ARM GAS  C:\Users\ESTEBAN\AppData\Local\Temp\cc2io8VI.s 			page 1


   1              		.syntax unified
   2              		.cpu cortex-m3
   3              		.fpu softvfp
   4              		.eabi_attribute 20, 1
   5              		.eabi_attribute 21, 1
   6              		.eabi_attribute 23, 3
   7              		.eabi_attribute 24, 1
   8              		.eabi_attribute 25, 1
   9              		.eabi_attribute 26, 1
  10              		.eabi_attribute 30, 1
  11              		.eabi_attribute 34, 1
  12              		.eabi_attribute 18, 4
  13              		.thumb
  14              		.syntax unified
  15              		.file	"main.c"
  16              		.text
  17              	.Ltext0:
  18              		.cfi_sections	.debug_frame
  19              		.section	.text.Enviar,"ax",%progbits
  20              		.align	2
  21              		.global	Enviar
  22              		.thumb
  23              		.thumb_func
  24              		.type	Enviar, %function
  25              	Enviar:
  26              	.LFB64:
  27              		.file 1 "main.c"
   1:main.c        **** /* ========================================
   2:main.c        ****  *
   3:main.c        ****  * Copyright YOUR COMPANY, THE YEAR
   4:main.c        ****  * All Rights Reserved
   5:main.c        ****  * UNPUBLISHED, LICENSED SOFTWARE.
   6:main.c        ****  *
   7:main.c        ****  * CONFIDENTIAL AND PROPRIETARY INFORMATION
   8:main.c        ****  * WHICH IS THE PROPERTY OF your company.
   9:main.c        ****  *
  10:main.c        ****  * ========================================
  11:main.c        **** */
  12:main.c        **** #include "project.h"
  13:main.c        **** #include <stdio.h>
  14:main.c        **** 
  15:main.c        **** int enteros[3];
  16:main.c        **** float32 voltiosADC[3];
  17:main.c        **** char str[12];
  18:main.c        **** char recibir;
  19:main.c        **** int canal=5;
  20:main.c        **** CY_ISR(Enviar){
  28              		.loc 1 20 0
  29              		.cfi_startproc
  30              		@ args = 0, pretend = 0, frame = 0
  31              		@ frame_needed = 0, uses_anonymous_args = 0
  32              		@ link register save eliminated.
  33 0000 7047     		bx	lr
  34              		.cfi_endproc
  35              	.LFE64:
  36              		.size	Enviar, .-Enviar
  37 0002 00BF     		.section	.text.InterruptRX,"ax",%progbits
ARM GAS  C:\Users\ESTEBAN\AppData\Local\Temp\cc2io8VI.s 			page 2


  38              		.align	2
  39              		.global	InterruptRX
  40              		.thumb
  41              		.thumb_func
  42              		.type	InterruptRX, %function
  43              	InterruptRX:
  44              	.LFB65:
  21:main.c        **** 
  22:main.c        **** }
  23:main.c        **** 
  24:main.c        **** 
  25:main.c        **** CY_ISR(InterruptRX){
  45              		.loc 1 25 0
  46              		.cfi_startproc
  47              		@ args = 0, pretend = 0, frame = 0
  48              		@ frame_needed = 0, uses_anonymous_args = 0
  49              		@ link register save eliminated.
  50 0000 7047     		bx	lr
  51              		.cfi_endproc
  52              	.LFE65:
  53              		.size	InterruptRX, .-InterruptRX
  54              		.global	__aeabi_f2d
  55 0002 00BF     		.section	.text.main,"ax",%progbits
  56              		.align	2
  57              		.global	main
  58              		.thumb
  59              		.thumb_func
  60              		.type	main, %function
  61              	main:
  62              	.LFB66:
  26:main.c        **** 
  27:main.c        ****     
  28:main.c        **** 
  29:main.c        **** }
  30:main.c        **** 
  31:main.c        **** 
  32:main.c        **** int main(void)
  33:main.c        **** {
  63              		.loc 1 33 0
  64              		.cfi_startproc
  65              		@ Volatile: function does not return.
  66              		@ args = 0, pretend = 0, frame = 0
  67              		@ frame_needed = 0, uses_anonymous_args = 0
  68              		.loc 1 33 0
  69 0000 08B5     		push	{r3, lr}
  70              		.cfi_def_cfa_offset 8
  71              		.cfi_offset 3, -8
  72              		.cfi_offset 14, -4
  34:main.c        ****     CyGlobalIntEnable; 
  73              		.loc 1 34 0
  74              		.syntax unified
  75              	@ 34 "main.c" 1
  76 0002 62B6     		CPSIE   i
  77              	@ 0 "" 2
  35:main.c        ****     
  36:main.c        ****     MUX_Start();
  78              		.loc 1 36 0
ARM GAS  C:\Users\ESTEBAN\AppData\Local\Temp\cc2io8VI.s 			page 3


  79              		.thumb
  80              		.syntax unified
  81 0004 FFF7FEFF 		bl	MUX_Start
  82              	.LVL0:
  37:main.c        ****     UART_Start();
  83              		.loc 1 37 0
  84 0008 FFF7FEFF 		bl	UART_Start
  85              	.LVL1:
  38:main.c        ****     ADC_Start();
  86              		.loc 1 38 0
  87 000c FFF7FEFF 		bl	ADC_Start
  88              	.LVL2:
  89              	.L9:
  39:main.c        ****     
  40:main.c        ****       for(;;)
  41:main.c        ****     {
  42:main.c        ****         
  43:main.c        ****         recibir=UART_GetChar();
  90              		.loc 1 43 0
  91 0010 FFF7FEFF 		bl	UART_GetChar
  92              	.LVL3:
  93 0014 3D4B     		ldr	r3, .L12
  94 0016 1870     		strb	r0, [r3]
  44:main.c        ****  if(recibir=='0'){
  95              		.loc 1 44 0
  96 0018 3028     		cmp	r0, #48
  97 001a 02D1     		bne	.L4
  45:main.c        ****     canal=0;
  98              		.loc 1 45 0
  99 001c 0022     		movs	r2, #0
 100 001e 3C4B     		ldr	r3, .L12+4
 101 0020 1A60     		str	r2, [r3]
 102              	.L4:
  46:main.c        ****  }
  47:main.c        **** if(recibir=='1'){
 103              		.loc 1 47 0
 104 0022 3128     		cmp	r0, #49
 105 0024 02D1     		bne	.L5
  48:main.c        ****     canal=1;
 106              		.loc 1 48 0
 107 0026 0122     		movs	r2, #1
 108 0028 394B     		ldr	r3, .L12+4
 109 002a 1A60     		str	r2, [r3]
 110              	.L5:
  49:main.c        ****  }
  50:main.c        **** if(recibir=='2'){
 111              		.loc 1 50 0
 112 002c 3228     		cmp	r0, #50
 113 002e 02D1     		bne	.L6
  51:main.c        ****     canal=2;
 114              		.loc 1 51 0
 115 0030 0222     		movs	r2, #2
 116 0032 374B     		ldr	r3, .L12+4
 117 0034 1A60     		str	r2, [r3]
 118              	.L6:
  52:main.c        ****  }
  53:main.c        ****         
ARM GAS  C:\Users\ESTEBAN\AppData\Local\Temp\cc2io8VI.s 			page 4


  54:main.c        ****         
  55:main.c        ****         
  56:main.c        ****         MUX_FastSelect(0);
 119              		.loc 1 56 0
 120 0036 0020     		movs	r0, #0
 121 0038 FFF7FEFF 		bl	MUX_FastSelect
 122              	.LVL4:
  57:main.c        ****         ADC_StartConvert();
 123              		.loc 1 57 0
 124 003c FFF7FEFF 		bl	ADC_StartConvert
 125              	.LVL5:
  58:main.c        ****         ADC_IsEndConversion(ADC_WAIT_FOR_RESULT);
 126              		.loc 1 58 0
 127 0040 0020     		movs	r0, #0
 128 0042 FFF7FEFF 		bl	ADC_IsEndConversion
 129              	.LVL6:
  59:main.c        ****         enteros[0]=ADC_GetResult32();
 130              		.loc 1 59 0
 131 0046 FFF7FEFF 		bl	ADC_GetResult32
 132              	.LVL7:
 133 004a 324C     		ldr	r4, .L12+8
 134 004c 2060     		str	r0, [r4]
  60:main.c        ****         ADC_StopConvert();
 135              		.loc 1 60 0
 136 004e FFF7FEFF 		bl	ADC_StopConvert
 137              	.LVL8:
  61:main.c        ****         
  62:main.c        ****         MUX_FastSelect(1);
 138              		.loc 1 62 0
 139 0052 0120     		movs	r0, #1
 140 0054 FFF7FEFF 		bl	MUX_FastSelect
 141              	.LVL9:
  63:main.c        ****         ADC_StartConvert();
 142              		.loc 1 63 0
 143 0058 FFF7FEFF 		bl	ADC_StartConvert
 144              	.LVL10:
  64:main.c        ****         ADC_IsEndConversion(ADC_WAIT_FOR_RESULT);
 145              		.loc 1 64 0
 146 005c 0020     		movs	r0, #0
 147 005e FFF7FEFF 		bl	ADC_IsEndConversion
 148              	.LVL11:
  65:main.c        ****         enteros[1]=ADC_GetResult32();
 149              		.loc 1 65 0
 150 0062 FFF7FEFF 		bl	ADC_GetResult32
 151              	.LVL12:
 152 0066 6060     		str	r0, [r4, #4]
  66:main.c        ****         ADC_StopConvert();
 153              		.loc 1 66 0
 154 0068 FFF7FEFF 		bl	ADC_StopConvert
 155              	.LVL13:
  67:main.c        ****         
  68:main.c        ****         MUX_FastSelect(2);
 156              		.loc 1 68 0
 157 006c 0220     		movs	r0, #2
 158 006e FFF7FEFF 		bl	MUX_FastSelect
 159              	.LVL14:
  69:main.c        ****         ADC_StartConvert();
ARM GAS  C:\Users\ESTEBAN\AppData\Local\Temp\cc2io8VI.s 			page 5


 160              		.loc 1 69 0
 161 0072 FFF7FEFF 		bl	ADC_StartConvert
 162              	.LVL15:
  70:main.c        ****         ADC_IsEndConversion(ADC_WAIT_FOR_RESULT);
 163              		.loc 1 70 0
 164 0076 0020     		movs	r0, #0
 165 0078 FFF7FEFF 		bl	ADC_IsEndConversion
 166              	.LVL16:
  71:main.c        ****         enteros[2]=ADC_GetResult32();
 167              		.loc 1 71 0
 168 007c FFF7FEFF 		bl	ADC_GetResult32
 169              	.LVL17:
 170 0080 A060     		str	r0, [r4, #8]
  72:main.c        ****         ADC_StopConvert();
 171              		.loc 1 72 0
 172 0082 FFF7FEFF 		bl	ADC_StopConvert
 173              	.LVL18:
  73:main.c        ****         
  74:main.c        ****         voltiosADC[0]=ADC_CountsTo_Volts(enteros[0]);
 174              		.loc 1 74 0
 175 0086 2068     		ldr	r0, [r4]
 176 0088 FFF7FEFF 		bl	ADC_CountsTo_Volts
 177              	.LVL19:
 178 008c 224D     		ldr	r5, .L12+12
 179 008e 2860     		str	r0, [r5]	@ float
  75:main.c        ****         voltiosADC[1]=ADC_CountsTo_Volts(enteros[1]);
 180              		.loc 1 75 0
 181 0090 6068     		ldr	r0, [r4, #4]
 182 0092 FFF7FEFF 		bl	ADC_CountsTo_Volts
 183              	.LVL20:
 184 0096 6860     		str	r0, [r5, #4]	@ float
  76:main.c        ****         voltiosADC[2]=ADC_CountsTo_Volts(enteros[2]);
 185              		.loc 1 76 0
 186 0098 A068     		ldr	r0, [r4, #8]
 187 009a FFF7FEFF 		bl	ADC_CountsTo_Volts
 188              	.LVL21:
 189 009e A860     		str	r0, [r5, #8]	@ float
  77:main.c        ****         
  78:main.c        ****         
  79:main.c        **** if(canal==0){
 190              		.loc 1 79 0
 191 00a0 1B4B     		ldr	r3, .L12+4
 192 00a2 1B68     		ldr	r3, [r3]
 193 00a4 63B9     		cbnz	r3, .L7
  80:main.c        ****   sprintf(str,"%.3fc1 \n \r" ,voltiosADC[0]);
 194              		.loc 1 80 0
 195 00a6 2868     		ldr	r0, [r5]	@ float
 196 00a8 FFF7FEFF 		bl	__aeabi_f2d
 197              	.LVL22:
 198 00ac 1B4C     		ldr	r4, .L12+16
 199 00ae 0246     		mov	r2, r0
 200 00b0 0B46     		mov	r3, r1
 201 00b2 1B49     		ldr	r1, .L12+20
 202 00b4 2046     		mov	r0, r4
 203 00b6 FFF7FEFF 		bl	sprintf
 204              	.LVL23:
  81:main.c        ****   UART_PutString(str);
ARM GAS  C:\Users\ESTEBAN\AppData\Local\Temp\cc2io8VI.s 			page 6


 205              		.loc 1 81 0
 206 00ba 2046     		mov	r0, r4
 207 00bc FFF7FEFF 		bl	UART_PutString
 208              	.LVL24:
 209              	.L7:
  82:main.c        **** }
  83:main.c        **** if(canal==1){
 210              		.loc 1 83 0
 211 00c0 134B     		ldr	r3, .L12+4
 212 00c2 1B68     		ldr	r3, [r3]
 213 00c4 012B     		cmp	r3, #1
 214 00c6 0DD1     		bne	.L8
  84:main.c        ****   sprintf(str,"%.3fc2 \n \r" ,voltiosADC[1]);
 215              		.loc 1 84 0
 216 00c8 134B     		ldr	r3, .L12+12
 217 00ca 5868     		ldr	r0, [r3, #4]	@ float
 218 00cc FFF7FEFF 		bl	__aeabi_f2d
 219              	.LVL25:
 220 00d0 124C     		ldr	r4, .L12+16
 221 00d2 0246     		mov	r2, r0
 222 00d4 0B46     		mov	r3, r1
 223 00d6 1349     		ldr	r1, .L12+24
 224 00d8 2046     		mov	r0, r4
 225 00da FFF7FEFF 		bl	sprintf
 226              	.LVL26:
  85:main.c        ****   UART_PutString(str);
 227              		.loc 1 85 0
 228 00de 2046     		mov	r0, r4
 229 00e0 FFF7FEFF 		bl	UART_PutString
 230              	.LVL27:
 231              	.L8:
  86:main.c        **** }
  87:main.c        **** if(canal==2){
 232              		.loc 1 87 0
 233 00e4 0A4B     		ldr	r3, .L12+4
 234 00e6 1B68     		ldr	r3, [r3]
 235 00e8 022B     		cmp	r3, #2
 236 00ea 91D1     		bne	.L9
  88:main.c        ****   sprintf(str,"%.3fc3 \n \r" ,voltiosADC[2]);
 237              		.loc 1 88 0
 238 00ec 0A4B     		ldr	r3, .L12+12
 239 00ee 9868     		ldr	r0, [r3, #8]	@ float
 240 00f0 FFF7FEFF 		bl	__aeabi_f2d
 241              	.LVL28:
 242 00f4 094C     		ldr	r4, .L12+16
 243 00f6 0246     		mov	r2, r0
 244 00f8 0B46     		mov	r3, r1
 245 00fa 0B49     		ldr	r1, .L12+28
 246 00fc 2046     		mov	r0, r4
 247 00fe FFF7FEFF 		bl	sprintf
 248              	.LVL29:
  89:main.c        ****   UART_PutString(str);
 249              		.loc 1 89 0
 250 0102 2046     		mov	r0, r4
 251 0104 FFF7FEFF 		bl	UART_PutString
 252              	.LVL30:
 253 0108 82E7     		b	.L9
ARM GAS  C:\Users\ESTEBAN\AppData\Local\Temp\cc2io8VI.s 			page 7


 254              	.L13:
 255 010a 00BF     		.align	2
 256              	.L12:
 257 010c 00000000 		.word	recibir
 258 0110 00000000 		.word	.LANCHOR0
 259 0114 00000000 		.word	enteros
 260 0118 00000000 		.word	voltiosADC
 261 011c 00000000 		.word	str
 262 0120 00000000 		.word	.LC0
 263 0124 0C000000 		.word	.LC1
 264 0128 18000000 		.word	.LC2
 265              		.cfi_endproc
 266              	.LFE66:
 267              		.size	main, .-main
 268              		.global	canal
 269              		.comm	recibir,1,1
 270              		.comm	str,12,4
 271              		.comm	voltiosADC,12,4
 272              		.comm	enteros,12,4
 273              		.data
 274              		.align	2
 275              		.set	.LANCHOR0,. + 0
 276              		.type	canal, %object
 277              		.size	canal, 4
 278              	canal:
 279 0000 05000000 		.word	5
 280              		.section	.rodata.str1.4,"aMS",%progbits,1
 281              		.align	2
 282              	.LC0:
 283 0000 252E3366 		.ascii	"%.3fc1 \012 \015\000"
 283      6331200A 
 283      200D00
 284 000b 00       		.space	1
 285              	.LC1:
 286 000c 252E3366 		.ascii	"%.3fc2 \012 \015\000"
 286      6332200A 
 286      200D00
 287 0017 00       		.space	1
 288              	.LC2:
 289 0018 252E3366 		.ascii	"%.3fc3 \012 \015\000"
 289      6333200A 
 289      200D00
 290              		.text
 291              	.Letext0:
 292              		.file 2 "c:\\program files (x86)\\cypress\\psoc creator\\4.2\\psoc creator\\import\\gnu\\arm\\5.4.
 293              		.file 3 "c:\\program files (x86)\\cypress\\psoc creator\\4.2\\psoc creator\\import\\gnu\\arm\\5.4.
 294              		.file 4 "Generated_Source\\PSoC5/cytypes.h"
 295              		.file 5 "Generated_Source\\PSoC5/core_cm3.h"
 296              		.file 6 "Generated_Source\\PSoC5/MUX.h"
 297              		.file 7 "Generated_Source\\PSoC5/UART.h"
 298              		.file 8 "Generated_Source\\PSoC5/ADC.h"
 299              		.file 9 "c:\\program files (x86)\\cypress\\psoc creator\\4.2\\psoc creator\\import\\gnu\\arm\\5.4.