ARM GAS  C:\Users\HENRYA~1\AppData\Local\Temp\ccxNFFqA.s 			page 1


   1              		.syntax unified
   2              		.cpu cortex-m3
   3              		.fpu softvfp
   4              		.eabi_attribute 20, 1
   5              		.eabi_attribute 21, 1
   6              		.eabi_attribute 23, 3
   7              		.eabi_attribute 24, 1
   8              		.eabi_attribute 25, 1
   9              		.eabi_attribute 26, 1
  10              		.eabi_attribute 30, 1
  11              		.eabi_attribute 34, 1
  12              		.eabi_attribute 18, 4
  13              		.thumb
  14              		.file	"CapSense_CSHL.c"
  15              		.text
  16              	.Ltext0:
  17              		.cfi_sections	.debug_frame
  18              		.section	.text.CapSense_BaseInit,"ax",%progbits
  19              		.align	2
  20              		.global	CapSense_BaseInit
  21              		.thumb
  22              		.thumb_func
  23              		.type	CapSense_BaseInit, %function
  24              	CapSense_BaseInit:
  25              	.LFB0:
  26              		.file 1 "Generated_Source\\PSoC5\\CapSense_CSHL.c"
   1:Generated_Source\PSoC5/CapSense_CSHL.c **** /*******************************************************************************
   2:Generated_Source\PSoC5/CapSense_CSHL.c **** * File Name: CapSense_CSHL.c
   3:Generated_Source\PSoC5/CapSense_CSHL.c **** * Version 3.50
   4:Generated_Source\PSoC5/CapSense_CSHL.c **** *
   5:Generated_Source\PSoC5/CapSense_CSHL.c **** * Description:
   6:Generated_Source\PSoC5/CapSense_CSHL.c **** *  This file provides the source code to the High Level APIs for the CapSesne
   7:Generated_Source\PSoC5/CapSense_CSHL.c **** *  CSD component.
   8:Generated_Source\PSoC5/CapSense_CSHL.c **** *
   9:Generated_Source\PSoC5/CapSense_CSHL.c **** * Note:
  10:Generated_Source\PSoC5/CapSense_CSHL.c **** *
  11:Generated_Source\PSoC5/CapSense_CSHL.c **** ********************************************************************************
  12:Generated_Source\PSoC5/CapSense_CSHL.c **** * Copyright 2008-2013, Cypress Semiconductor Corporation.  All rights reserved.
  13:Generated_Source\PSoC5/CapSense_CSHL.c **** * You may use this file only in accordance with the license, terms, conditions,
  14:Generated_Source\PSoC5/CapSense_CSHL.c **** * disclaimers, and limitations in the end user license agreement accompanying
  15:Generated_Source\PSoC5/CapSense_CSHL.c **** * the software package with which this file was provided.
  16:Generated_Source\PSoC5/CapSense_CSHL.c **** *******************************************************************************/
  17:Generated_Source\PSoC5/CapSense_CSHL.c **** 
  18:Generated_Source\PSoC5/CapSense_CSHL.c **** #include "CapSense_CSHL.h"
  19:Generated_Source\PSoC5/CapSense_CSHL.c **** 
  20:Generated_Source\PSoC5/CapSense_CSHL.c **** /* Storage of filters data */
  21:Generated_Source\PSoC5/CapSense_CSHL.c **** #if ( (CapSense_RAW_FILTER_MASK & CapSense_MEDIAN_FILTER) | \
  22:Generated_Source\PSoC5/CapSense_CSHL.c ****       (CapSense_RAW_FILTER_MASK & CapSense_AVERAGING_FILTER) )
  23:Generated_Source\PSoC5/CapSense_CSHL.c **** 
  24:Generated_Source\PSoC5/CapSense_CSHL.c ****     uint16 CapSense_rawFilterData1[CapSense_TOTAL_SENSOR_COUNT];
  25:Generated_Source\PSoC5/CapSense_CSHL.c ****     uint16 CapSense_rawFilterData2[CapSense_TOTAL_SENSOR_COUNT];
  26:Generated_Source\PSoC5/CapSense_CSHL.c **** 
  27:Generated_Source\PSoC5/CapSense_CSHL.c **** #elif ( (CapSense_RAW_FILTER_MASK & CapSense_IIR2_FILTER)   | \
  28:Generated_Source\PSoC5/CapSense_CSHL.c ****         (CapSense_RAW_FILTER_MASK & CapSense_IIR4_FILTER)   | \
  29:Generated_Source\PSoC5/CapSense_CSHL.c ****         (CapSense_RAW_FILTER_MASK & CapSense_JITTER_FILTER) | \
  30:Generated_Source\PSoC5/CapSense_CSHL.c ****         (CapSense_RAW_FILTER_MASK & CapSense_IIR8_FILTER)   | \
  31:Generated_Source\PSoC5/CapSense_CSHL.c ****         (CapSense_RAW_FILTER_MASK & CapSense_IIR16_FILTER) )
ARM GAS  C:\Users\HENRYA~1\AppData\Local\Temp\ccxNFFqA.s 			page 2


  32:Generated_Source\PSoC5/CapSense_CSHL.c ****         
  33:Generated_Source\PSoC5/CapSense_CSHL.c ****     uint16 CapSense_rawFilterData1[CapSense_TOTAL_SENSOR_COUNT];
  34:Generated_Source\PSoC5/CapSense_CSHL.c **** 
  35:Generated_Source\PSoC5/CapSense_CSHL.c **** #else
  36:Generated_Source\PSoC5/CapSense_CSHL.c ****     /* No Raw filters */
  37:Generated_Source\PSoC5/CapSense_CSHL.c **** #endif  /* ( (CapSense_RAW_FILTER_MASK & CapSense_MEDIAN_FILTER) || \
  38:Generated_Source\PSoC5/CapSense_CSHL.c ****         *    (CapSense_RAW_FILTER_MASK & CapSense_AVERAGING_FILTER) )
  39:Generated_Source\PSoC5/CapSense_CSHL.c ****         */
  40:Generated_Source\PSoC5/CapSense_CSHL.c **** 
  41:Generated_Source\PSoC5/CapSense_CSHL.c **** uint16 CapSense_sensorBaseline[CapSense_TOTAL_SENSOR_COUNT];
  42:Generated_Source\PSoC5/CapSense_CSHL.c **** uint8 CapSense_sensorBaselineLow[CapSense_TOTAL_SENSOR_COUNT];
  43:Generated_Source\PSoC5/CapSense_CSHL.c **** uint8 CapSense_sensorSignal[CapSense_TOTAL_SENSOR_COUNT];
  44:Generated_Source\PSoC5/CapSense_CSHL.c **** uint8 CapSense_sensorOnMask[(((CapSense_TOTAL_SENSOR_COUNT - 1u) / 8u) + 1u)];
  45:Generated_Source\PSoC5/CapSense_CSHL.c **** 
  46:Generated_Source\PSoC5/CapSense_CSHL.c **** uint8 CapSense_lowBaselineResetCnt[CapSense_TOTAL_SENSOR_COUNT];
  47:Generated_Source\PSoC5/CapSense_CSHL.c **** 
  48:Generated_Source\PSoC5/CapSense_CSHL.c **** uint8 CapSense_fingerThreshold[] = {
  49:Generated_Source\PSoC5/CapSense_CSHL.c ****     40u, 80u, 80u, 
  50:Generated_Source\PSoC5/CapSense_CSHL.c **** };
  51:Generated_Source\PSoC5/CapSense_CSHL.c **** 
  52:Generated_Source\PSoC5/CapSense_CSHL.c **** uint8 CapSense_noiseThreshold[] = {
  53:Generated_Source\PSoC5/CapSense_CSHL.c ****     20u, 40u, 40u, 
  54:Generated_Source\PSoC5/CapSense_CSHL.c **** };
  55:Generated_Source\PSoC5/CapSense_CSHL.c **** 
  56:Generated_Source\PSoC5/CapSense_CSHL.c **** uint8 CapSense_hysteresis[] = {
  57:Generated_Source\PSoC5/CapSense_CSHL.c ****     0u, 5u, 5u, 
  58:Generated_Source\PSoC5/CapSense_CSHL.c **** };
  59:Generated_Source\PSoC5/CapSense_CSHL.c **** 
  60:Generated_Source\PSoC5/CapSense_CSHL.c **** uint8 CapSense_debounce[] = {
  61:Generated_Source\PSoC5/CapSense_CSHL.c ****     1u, 1u, 1u, 
  62:Generated_Source\PSoC5/CapSense_CSHL.c **** };
  63:Generated_Source\PSoC5/CapSense_CSHL.c **** 
  64:Generated_Source\PSoC5/CapSense_CSHL.c **** uint8 CapSense_debounceCounter[] = {
  65:Generated_Source\PSoC5/CapSense_CSHL.c ****     0u, 0u, 0u, 
  66:Generated_Source\PSoC5/CapSense_CSHL.c **** };
  67:Generated_Source\PSoC5/CapSense_CSHL.c **** 
  68:Generated_Source\PSoC5/CapSense_CSHL.c **** const uint8 CYCODE CapSense_rawDataIndex[] = {
  69:Generated_Source\PSoC5/CapSense_CSHL.c ****     2u, /* LS__LS */
  70:Generated_Source\PSoC5/CapSense_CSHL.c ****     1u, /* B1__BTN */
  71:Generated_Source\PSoC5/CapSense_CSHL.c ****     0u, /* B2__BTN */
  72:Generated_Source\PSoC5/CapSense_CSHL.c **** 
  73:Generated_Source\PSoC5/CapSense_CSHL.c **** };
  74:Generated_Source\PSoC5/CapSense_CSHL.c **** 
  75:Generated_Source\PSoC5/CapSense_CSHL.c **** const uint8 CYCODE CapSense_numberOfSensors[] = {
  76:Generated_Source\PSoC5/CapSense_CSHL.c ****     5u, /* LS__LS */
  77:Generated_Source\PSoC5/CapSense_CSHL.c ****     1u, /* B1__BTN */
  78:Generated_Source\PSoC5/CapSense_CSHL.c ****     1u, /* B2__BTN */
  79:Generated_Source\PSoC5/CapSense_CSHL.c **** 
  80:Generated_Source\PSoC5/CapSense_CSHL.c **** };
  81:Generated_Source\PSoC5/CapSense_CSHL.c **** 
  82:Generated_Source\PSoC5/CapSense_CSHL.c **** const uint16 CYCODE CapSense_centroidMult[] = {
  83:Generated_Source\PSoC5/CapSense_CSHL.c ****     6400u, 
  84:Generated_Source\PSoC5/CapSense_CSHL.c **** };
  85:Generated_Source\PSoC5/CapSense_CSHL.c **** 
  86:Generated_Source\PSoC5/CapSense_CSHL.c **** 
  87:Generated_Source\PSoC5/CapSense_CSHL.c **** 
  88:Generated_Source\PSoC5/CapSense_CSHL.c **** 
ARM GAS  C:\Users\HENRYA~1\AppData\Local\Temp\ccxNFFqA.s 			page 3


  89:Generated_Source\PSoC5/CapSense_CSHL.c **** /*******************************************************************************
  90:Generated_Source\PSoC5/CapSense_CSHL.c **** * Function Name: CapSense_BaseInit
  91:Generated_Source\PSoC5/CapSense_CSHL.c **** ********************************************************************************
  92:Generated_Source\PSoC5/CapSense_CSHL.c **** *
  93:Generated_Source\PSoC5/CapSense_CSHL.c **** * Summary:
  94:Generated_Source\PSoC5/CapSense_CSHL.c **** *  Loads the CapSense_sensorBaseline[sensor] array element with an 
  95:Generated_Source\PSoC5/CapSense_CSHL.c **** *  initial value which is equal to raw count value. 
  96:Generated_Source\PSoC5/CapSense_CSHL.c **** *  Resets to zero CapSense_sensorBaselineLow[sensor] and 
  97:Generated_Source\PSoC5/CapSense_CSHL.c **** *  CapSense_sensorSignal[sensor] array element.
  98:Generated_Source\PSoC5/CapSense_CSHL.c **** *  Loads CapSense_debounceCounter[sensor] array element with initial 
  99:Generated_Source\PSoC5/CapSense_CSHL.c **** *  value equal CapSense_debounce[].
 100:Generated_Source\PSoC5/CapSense_CSHL.c **** *  Loads the CapSense_rawFilterData2[sensor] and 
 101:Generated_Source\PSoC5/CapSense_CSHL.c **** *  CapSense_rawFilterData2[sensor] array element with an 
 102:Generated_Source\PSoC5/CapSense_CSHL.c **** *  initial value which is equal raw count value if raw data filter is enabled.
 103:Generated_Source\PSoC5/CapSense_CSHL.c **** *
 104:Generated_Source\PSoC5/CapSense_CSHL.c **** * Parameters:
 105:Generated_Source\PSoC5/CapSense_CSHL.c **** *  sensor:  Sensor number.
 106:Generated_Source\PSoC5/CapSense_CSHL.c **** *
 107:Generated_Source\PSoC5/CapSense_CSHL.c **** * Return:
 108:Generated_Source\PSoC5/CapSense_CSHL.c **** *  None
 109:Generated_Source\PSoC5/CapSense_CSHL.c **** *
 110:Generated_Source\PSoC5/CapSense_CSHL.c **** * Global Variables:
 111:Generated_Source\PSoC5/CapSense_CSHL.c **** *  CapSense_sensorBaseline[]    - used to store baseline value.
 112:Generated_Source\PSoC5/CapSense_CSHL.c **** *  CapSense_sensorBaselineLow[] - used to store fraction byte of 
 113:Generated_Source\PSoC5/CapSense_CSHL.c **** *  baseline value.
 114:Generated_Source\PSoC5/CapSense_CSHL.c **** *  CapSense_sensorSignal[]      - used to store diffence between 
 115:Generated_Source\PSoC5/CapSense_CSHL.c **** *  current value of raw data and previous value of baseline.
 116:Generated_Source\PSoC5/CapSense_CSHL.c **** *  CapSense_debounceCounter[]   - used to store current debounce 
 117:Generated_Source\PSoC5/CapSense_CSHL.c **** *  counter of sensor. Widget which has this parameter are buttons, matrix 
 118:Generated_Source\PSoC5/CapSense_CSHL.c **** *  buttons, proximity, guard. All other widgets haven't debounce parameter
 119:Generated_Source\PSoC5/CapSense_CSHL.c **** *  and use the last element of this array with value 0 (it means no debounce).
 120:Generated_Source\PSoC5/CapSense_CSHL.c **** *  CapSense_rawFilterData1[]    - used to store previous sample of 
 121:Generated_Source\PSoC5/CapSense_CSHL.c **** *  any enabled raw data filter.
 122:Generated_Source\PSoC5/CapSense_CSHL.c **** *  CapSense_rawFilterData2[]    - used to store before previous sample
 123:Generated_Source\PSoC5/CapSense_CSHL.c **** *  of enabled raw data filter. Only required for median or average filters.
 124:Generated_Source\PSoC5/CapSense_CSHL.c **** *
 125:Generated_Source\PSoC5/CapSense_CSHL.c **** * Reentrant:
 126:Generated_Source\PSoC5/CapSense_CSHL.c **** *  No
 127:Generated_Source\PSoC5/CapSense_CSHL.c **** *
 128:Generated_Source\PSoC5/CapSense_CSHL.c **** *******************************************************************************/
 129:Generated_Source\PSoC5/CapSense_CSHL.c **** void CapSense_BaseInit(uint8 sensor) 
 130:Generated_Source\PSoC5/CapSense_CSHL.c **** {
  27              		.loc 1 130 0
  28              		.cfi_startproc
  29              		@ args = 0, pretend = 0, frame = 0
  30              		@ frame_needed = 0, uses_anonymous_args = 0
  31              		@ link register save eliminated.
  32              	.LVL0:
 131:Generated_Source\PSoC5/CapSense_CSHL.c ****     #if ((CapSense_TOTAL_BUTTONS_COUNT) || (CapSense_TOTAL_MATRIX_BUTTONS_COUNT) || \
 132:Generated_Source\PSoC5/CapSense_CSHL.c ****          (CapSense_TOTAL_GENERICS_COUNT))
 133:Generated_Source\PSoC5/CapSense_CSHL.c ****         uint8 widget = CapSense_widgetNumber[sensor];
  33              		.loc 1 133 0
  34 0000 094B     		ldr	r3, .L3
  35 0002 1B5C     		ldrb	r3, [r3, r0]	@ zero_extendqisi2
  36              	.LVL1:
 134:Generated_Source\PSoC5/CapSense_CSHL.c ****     #endif /* ((CapSense_TOTAL_MATRIX_BUTTONS_COUNT) || (CapSense_TOTAL_MATRIX_BUTTONS_COUNT)) */
 135:Generated_Source\PSoC5/CapSense_CSHL.c ****     
ARM GAS  C:\Users\HENRYA~1\AppData\Local\Temp\ccxNFFqA.s 			page 4


 136:Generated_Source\PSoC5/CapSense_CSHL.c ****     #if (CapSense_TOTAL_MATRIX_BUTTONS_COUNT)
 137:Generated_Source\PSoC5/CapSense_CSHL.c ****         uint8 debounceIndex;
 138:Generated_Source\PSoC5/CapSense_CSHL.c ****     #endif  /* (CapSense_TOTAL_MATRIX_BUTTONS_COUNT) */
 139:Generated_Source\PSoC5/CapSense_CSHL.c ****     
 140:Generated_Source\PSoC5/CapSense_CSHL.c ****     #if (CapSense_TOTAL_GENERICS_COUNT)
 141:Generated_Source\PSoC5/CapSense_CSHL.c ****         /* Exclude generic widget */
 142:Generated_Source\PSoC5/CapSense_CSHL.c ****         if(widget < CapSense_END_OF_WIDGETS_INDEX)
 143:Generated_Source\PSoC5/CapSense_CSHL.c ****         {
 144:Generated_Source\PSoC5/CapSense_CSHL.c ****     #endif  /* CapSense_TOTAL_GENERICS_COUNT */
 145:Generated_Source\PSoC5/CapSense_CSHL.c ****     
 146:Generated_Source\PSoC5/CapSense_CSHL.c ****     /* Initialize Baseline */
 147:Generated_Source\PSoC5/CapSense_CSHL.c ****     CapSense_sensorBaseline[sensor] = CapSense_sensorRaw[sensor];
  37              		.loc 1 147 0
  38 0004 094A     		ldr	r2, .L3+4
  39 0006 32F81010 		ldrh	r1, [r2, r0, lsl #1]
  40 000a 094A     		ldr	r2, .L3+8
  41 000c 22F81010 		strh	r1, [r2, r0, lsl #1]	@ movhi
 148:Generated_Source\PSoC5/CapSense_CSHL.c ****     CapSense_sensorBaselineLow[sensor] = 0u;
  42              		.loc 1 148 0
  43 0010 0022     		movs	r2, #0
  44 0012 0849     		ldr	r1, .L3+12
  45 0014 0A54     		strb	r2, [r1, r0]
 149:Generated_Source\PSoC5/CapSense_CSHL.c ****     CapSense_sensorSignal[sensor] = 0u;
  46              		.loc 1 149 0
  47 0016 0849     		ldr	r1, .L3+16
  48 0018 0A54     		strb	r2, [r1, r0]
 150:Generated_Source\PSoC5/CapSense_CSHL.c ****         
 151:Generated_Source\PSoC5/CapSense_CSHL.c ****     if(widget > CapSense_END_OF_TOUCH_PAD_INDEX)
  49              		.loc 1 151 0
  50 001a 23B1     		cbz	r3, .L1
 152:Generated_Source\PSoC5/CapSense_CSHL.c ****     {
 153:Generated_Source\PSoC5/CapSense_CSHL.c ****         CapSense_debounceCounter[widget - (CapSense_END_OF_TOUCH_PAD_INDEX + 1)] =  CapSense_deboun
  51              		.loc 1 153 0
  52 001c 5A1E     		subs	r2, r3, #1
  53 001e 0749     		ldr	r1, .L3+20
  54 0020 C95C     		ldrb	r1, [r1, r3]	@ zero_extendqisi2
  55 0022 074B     		ldr	r3, .L3+24
  56              	.LVL2:
  57 0024 9954     		strb	r1, [r3, r2]
  58              	.LVL3:
  59              	.L1:
  60 0026 7047     		bx	lr
  61              	.L4:
  62              		.align	2
  63              	.L3:
  64 0028 00000000 		.word	CapSense_widgetNumber
  65 002c 00000000 		.word	CapSense_sensorRaw
  66 0030 00000000 		.word	CapSense_sensorBaseline
  67 0034 00000000 		.word	CapSense_sensorBaselineLow
  68 0038 00000000 		.word	CapSense_sensorSignal
  69 003c 00000000 		.word	.LANCHOR0
  70 0040 00000000 		.word	.LANCHOR1
  71              		.cfi_endproc
  72              	.LFE0:
  73              		.size	CapSense_BaseInit, .-CapSense_BaseInit
  74              		.section	.text.CapSense_InitializeSensorBaseline,"ax",%progbits
  75              		.align	2
ARM GAS  C:\Users\HENRYA~1\AppData\Local\Temp\ccxNFFqA.s 			page 5


  76              		.global	CapSense_InitializeSensorBaseline
  77              		.thumb
  78              		.thumb_func
  79              		.type	CapSense_InitializeSensorBaseline, %function
  80              	CapSense_InitializeSensorBaseline:
  81              	.LFB1:
 154:Generated_Source\PSoC5/CapSense_CSHL.c ****     }
 155:Generated_Source\PSoC5/CapSense_CSHL.c **** 
 156:Generated_Source\PSoC5/CapSense_CSHL.c ****     
 157:Generated_Source\PSoC5/CapSense_CSHL.c ****     #if ((CapSense_RAW_FILTER_MASK & CapSense_MEDIAN_FILTER) |\
 158:Generated_Source\PSoC5/CapSense_CSHL.c ****          (CapSense_RAW_FILTER_MASK & CapSense_AVERAGING_FILTER))
 159:Generated_Source\PSoC5/CapSense_CSHL.c **** 
 160:Generated_Source\PSoC5/CapSense_CSHL.c ****         CapSense_rawFilterData1[sensor] = CapSense_sensorRaw[sensor];
 161:Generated_Source\PSoC5/CapSense_CSHL.c ****         CapSense_rawFilterData2[sensor] = CapSense_sensorRaw[sensor];
 162:Generated_Source\PSoC5/CapSense_CSHL.c ****     
 163:Generated_Source\PSoC5/CapSense_CSHL.c ****     #elif ((CapSense_RAW_FILTER_MASK & CapSense_IIR2_FILTER) |\
 164:Generated_Source\PSoC5/CapSense_CSHL.c ****            (CapSense_RAW_FILTER_MASK & CapSense_IIR4_FILTER) |\
 165:Generated_Source\PSoC5/CapSense_CSHL.c ****            (CapSense_RAW_FILTER_MASK & CapSense_JITTER_FILTER) |\
 166:Generated_Source\PSoC5/CapSense_CSHL.c ****            (CapSense_RAW_FILTER_MASK & CapSense_IIR8_FILTER) |\
 167:Generated_Source\PSoC5/CapSense_CSHL.c ****            (CapSense_RAW_FILTER_MASK & CapSense_IIR16_FILTER))
 168:Generated_Source\PSoC5/CapSense_CSHL.c ****             
 169:Generated_Source\PSoC5/CapSense_CSHL.c ****         CapSense_rawFilterData1[sensor] = CapSense_sensorRaw[sensor];
 170:Generated_Source\PSoC5/CapSense_CSHL.c ****     
 171:Generated_Source\PSoC5/CapSense_CSHL.c ****     #else
 172:Generated_Source\PSoC5/CapSense_CSHL.c ****         /* No Raw filters */
 173:Generated_Source\PSoC5/CapSense_CSHL.c ****     #endif  /* ((CapSense_RAW_FILTER_MASK & CapSense_MEDIAN_FILTER) | \
 174:Generated_Source\PSoC5/CapSense_CSHL.c ****             *   (CapSense_RAW_FILTER_MASK & CapSense_AVERAGING_FILTER))
 175:Generated_Source\PSoC5/CapSense_CSHL.c ****             */
 176:Generated_Source\PSoC5/CapSense_CSHL.c ****     
 177:Generated_Source\PSoC5/CapSense_CSHL.c ****     #if (CapSense_TOTAL_GENERICS_COUNT)
 178:Generated_Source\PSoC5/CapSense_CSHL.c ****         /* Exclude generic widget */
 179:Generated_Source\PSoC5/CapSense_CSHL.c ****         }
 180:Generated_Source\PSoC5/CapSense_CSHL.c ****     #endif  /* CapSense_TOTAL_GENERICS_COUNT */
 181:Generated_Source\PSoC5/CapSense_CSHL.c **** }
 182:Generated_Source\PSoC5/CapSense_CSHL.c **** 
 183:Generated_Source\PSoC5/CapSense_CSHL.c **** 
 184:Generated_Source\PSoC5/CapSense_CSHL.c **** /*******************************************************************************
 185:Generated_Source\PSoC5/CapSense_CSHL.c **** * Function Name: CapSense_InitializeSensorBaseline
 186:Generated_Source\PSoC5/CapSense_CSHL.c **** ********************************************************************************
 187:Generated_Source\PSoC5/CapSense_CSHL.c **** *
 188:Generated_Source\PSoC5/CapSense_CSHL.c **** * Summary:
 189:Generated_Source\PSoC5/CapSense_CSHL.c **** *  Loads the CapSense_sensorBaseline[sensor] array element with an 
 190:Generated_Source\PSoC5/CapSense_CSHL.c **** *  initial value by scanning the selected sensor (one channel design) or pair 
 191:Generated_Source\PSoC5/CapSense_CSHL.c **** *  of sensors (two channels designs). The raw count value is copied into the 
 192:Generated_Source\PSoC5/CapSense_CSHL.c **** *  baseline array for each sensor. The raw data filters are initialized if 
 193:Generated_Source\PSoC5/CapSense_CSHL.c **** *  enabled.
 194:Generated_Source\PSoC5/CapSense_CSHL.c **** *
 195:Generated_Source\PSoC5/CapSense_CSHL.c **** * Parameters:
 196:Generated_Source\PSoC5/CapSense_CSHL.c **** *  sensor:  Sensor number.
 197:Generated_Source\PSoC5/CapSense_CSHL.c **** *
 198:Generated_Source\PSoC5/CapSense_CSHL.c **** * Return:
 199:Generated_Source\PSoC5/CapSense_CSHL.c **** *  None
 200:Generated_Source\PSoC5/CapSense_CSHL.c **** *
 201:Generated_Source\PSoC5/CapSense_CSHL.c **** * Reentrant:
 202:Generated_Source\PSoC5/CapSense_CSHL.c **** *  No
 203:Generated_Source\PSoC5/CapSense_CSHL.c **** *
 204:Generated_Source\PSoC5/CapSense_CSHL.c **** *******************************************************************************/
ARM GAS  C:\Users\HENRYA~1\AppData\Local\Temp\ccxNFFqA.s 			page 6


 205:Generated_Source\PSoC5/CapSense_CSHL.c **** void CapSense_InitializeSensorBaseline(uint8 sensor)
 206:Generated_Source\PSoC5/CapSense_CSHL.c ****                           
 207:Generated_Source\PSoC5/CapSense_CSHL.c **** {
  82              		.loc 1 207 0
  83              		.cfi_startproc
  84              		@ args = 0, pretend = 0, frame = 0
  85              		@ frame_needed = 0, uses_anonymous_args = 0
  86              	.LVL4:
  87 0000 10B5     		push	{r4, lr}
  88              		.cfi_def_cfa_offset 8
  89              		.cfi_offset 4, -8
  90              		.cfi_offset 14, -4
  91 0002 0446     		mov	r4, r0
 208:Generated_Source\PSoC5/CapSense_CSHL.c ****     /* Scan sensor */
 209:Generated_Source\PSoC5/CapSense_CSHL.c ****     CapSense_ScanSensor(sensor);
  92              		.loc 1 209 0
  93 0004 FFF7FEFF 		bl	CapSense_ScanSensor
  94              	.LVL5:
  95              	.L6:
 210:Generated_Source\PSoC5/CapSense_CSHL.c ****     while(CapSense_IsBusy() != 0u)
  96              		.loc 1 210 0 discriminator 1
  97 0008 FFF7FEFF 		bl	CapSense_IsBusy
  98              	.LVL6:
  99 000c 0028     		cmp	r0, #0
 100 000e FBD1     		bne	.L6
 211:Generated_Source\PSoC5/CapSense_CSHL.c ****     {
 212:Generated_Source\PSoC5/CapSense_CSHL.c ****         /* Wait while busy */
 213:Generated_Source\PSoC5/CapSense_CSHL.c ****     }
 214:Generated_Source\PSoC5/CapSense_CSHL.c ****     
 215:Generated_Source\PSoC5/CapSense_CSHL.c ****     #if (CapSense_DESIGN_TYPE == CapSense_ONE_CHANNEL_DESIGN)
 216:Generated_Source\PSoC5/CapSense_CSHL.c ****         /* Initialize Baseline, Signal and debounce counters */       
 217:Generated_Source\PSoC5/CapSense_CSHL.c ****         CapSense_BaseInit(sensor);
 101              		.loc 1 217 0
 102 0010 2046     		mov	r0, r4
 103 0012 FFF7FEFF 		bl	CapSense_BaseInit
 104              	.LVL7:
 105 0016 10BD     		pop	{r4, pc}
 106              		.cfi_endproc
 107              	.LFE1:
 108              		.size	CapSense_InitializeSensorBaseline, .-CapSense_InitializeSensorBaseline
 109              		.section	.text.CapSense_InitializeAllBaselines,"ax",%progbits
 110              		.align	2
 111              		.global	CapSense_InitializeAllBaselines
 112              		.thumb
 113              		.thumb_func
 114              		.type	CapSense_InitializeAllBaselines, %function
 115              	CapSense_InitializeAllBaselines:
 116              	.LFB2:
 218:Generated_Source\PSoC5/CapSense_CSHL.c ****         
 219:Generated_Source\PSoC5/CapSense_CSHL.c ****     #else
 220:Generated_Source\PSoC5/CapSense_CSHL.c ****     
 221:Generated_Source\PSoC5/CapSense_CSHL.c ****         if(sensor < CapSense_TOTAL_SENSOR_COUNT__CH0)
 222:Generated_Source\PSoC5/CapSense_CSHL.c ****         {
 223:Generated_Source\PSoC5/CapSense_CSHL.c ****             /* Initialize Baseline, Signal and debounce counters */ 
 224:Generated_Source\PSoC5/CapSense_CSHL.c ****             CapSense_BaseInit(sensor);
 225:Generated_Source\PSoC5/CapSense_CSHL.c ****         }
 226:Generated_Source\PSoC5/CapSense_CSHL.c ****         
ARM GAS  C:\Users\HENRYA~1\AppData\Local\Temp\ccxNFFqA.s 			page 7


 227:Generated_Source\PSoC5/CapSense_CSHL.c ****         if(sensor < CapSense_TOTAL_SENSOR_COUNT__CH1)
 228:Generated_Source\PSoC5/CapSense_CSHL.c ****         {
 229:Generated_Source\PSoC5/CapSense_CSHL.c ****             /* Initialize Baseline, Signal and debounce counters */
 230:Generated_Source\PSoC5/CapSense_CSHL.c ****             CapSense_BaseInit(sensor + CapSense_TOTAL_SENSOR_COUNT__CH0);
 231:Generated_Source\PSoC5/CapSense_CSHL.c ****         }
 232:Generated_Source\PSoC5/CapSense_CSHL.c ****     
 233:Generated_Source\PSoC5/CapSense_CSHL.c ****     #endif  /* (CapSense_DESIGN_TYPE == CapSense_ONE_CHANNEL_DESIGN) */
 234:Generated_Source\PSoC5/CapSense_CSHL.c **** }
 235:Generated_Source\PSoC5/CapSense_CSHL.c **** 
 236:Generated_Source\PSoC5/CapSense_CSHL.c **** 
 237:Generated_Source\PSoC5/CapSense_CSHL.c **** /*******************************************************************************
 238:Generated_Source\PSoC5/CapSense_CSHL.c **** * Function Name: CapSense_InitializeAllBaselines
 239:Generated_Source\PSoC5/CapSense_CSHL.c **** ********************************************************************************
 240:Generated_Source\PSoC5/CapSense_CSHL.c **** *
 241:Generated_Source\PSoC5/CapSense_CSHL.c **** * Summary:
 242:Generated_Source\PSoC5/CapSense_CSHL.c **** *  Uses the CapSense_InitializeSensorBaseline function to loads the 
 243:Generated_Source\PSoC5/CapSense_CSHL.c **** *  CapSense_sensorBaseline[] array with an initial values by scanning 
 244:Generated_Source\PSoC5/CapSense_CSHL.c **** *  all sensors. The raw count values are copied into the baseline array for 
 245:Generated_Source\PSoC5/CapSense_CSHL.c **** *  all sensors. The raw data filters are initialized if enabled.
 246:Generated_Source\PSoC5/CapSense_CSHL.c **** *
 247:Generated_Source\PSoC5/CapSense_CSHL.c **** * Parameters:
 248:Generated_Source\PSoC5/CapSense_CSHL.c **** *  None
 249:Generated_Source\PSoC5/CapSense_CSHL.c **** *
 250:Generated_Source\PSoC5/CapSense_CSHL.c **** * Return:
 251:Generated_Source\PSoC5/CapSense_CSHL.c **** *  None
 252:Generated_Source\PSoC5/CapSense_CSHL.c **** *
 253:Generated_Source\PSoC5/CapSense_CSHL.c **** * Reentrant:
 254:Generated_Source\PSoC5/CapSense_CSHL.c **** *  No
 255:Generated_Source\PSoC5/CapSense_CSHL.c **** *
 256:Generated_Source\PSoC5/CapSense_CSHL.c **** *******************************************************************************/
 257:Generated_Source\PSoC5/CapSense_CSHL.c **** void CapSense_InitializeAllBaselines(void)
 258:Generated_Source\PSoC5/CapSense_CSHL.c ****                           
 259:Generated_Source\PSoC5/CapSense_CSHL.c **** {
 117              		.loc 1 259 0
 118              		.cfi_startproc
 119              		@ args = 0, pretend = 0, frame = 0
 120              		@ frame_needed = 0, uses_anonymous_args = 0
 121 0000 10B5     		push	{r4, lr}
 122              		.cfi_def_cfa_offset 8
 123              		.cfi_offset 4, -8
 124              		.cfi_offset 14, -4
 125              	.LVL8:
 260:Generated_Source\PSoC5/CapSense_CSHL.c ****     uint8 i;
 261:Generated_Source\PSoC5/CapSense_CSHL.c ****     
 262:Generated_Source\PSoC5/CapSense_CSHL.c ****     /* The baseline initialize by sensor of sensor pair */
 263:Generated_Source\PSoC5/CapSense_CSHL.c ****     for(i = 0u; i < CapSense_TOTAL_SCANSLOT_COUNT; i++)
 126              		.loc 1 263 0
 127 0002 0024     		movs	r4, #0
 128 0004 04E0     		b	.L9
 129              	.LVL9:
 130              	.L10:
 264:Generated_Source\PSoC5/CapSense_CSHL.c ****     {
 265:Generated_Source\PSoC5/CapSense_CSHL.c ****         CapSense_InitializeSensorBaseline(i);
 131              		.loc 1 265 0 discriminator 3
 132 0006 2046     		mov	r0, r4
 133 0008 FFF7FEFF 		bl	CapSense_InitializeSensorBaseline
 134              	.LVL10:
ARM GAS  C:\Users\HENRYA~1\AppData\Local\Temp\ccxNFFqA.s 			page 8


 263:Generated_Source\PSoC5/CapSense_CSHL.c ****     {
 135              		.loc 1 263 0 discriminator 3
 136 000c 0134     		adds	r4, r4, #1
 137              	.LVL11:
 138 000e E4B2     		uxtb	r4, r4
 139              	.LVL12:
 140              	.L9:
 263:Generated_Source\PSoC5/CapSense_CSHL.c ****     {
 141              		.loc 1 263 0 is_stmt 0 discriminator 1
 142 0010 062C     		cmp	r4, #6
 143 0012 F8D9     		bls	.L10
 266:Generated_Source\PSoC5/CapSense_CSHL.c ****     }
 267:Generated_Source\PSoC5/CapSense_CSHL.c **** }
 144              		.loc 1 267 0 is_stmt 1
 145 0014 10BD     		pop	{r4, pc}
 146              		.cfi_endproc
 147              	.LFE2:
 148              		.size	CapSense_InitializeAllBaselines, .-CapSense_InitializeAllBaselines
 149 0016 00BF     		.section	.text.CapSense_InitializeEnabledBaselines,"ax",%progbits
 150              		.align	2
 151              		.global	CapSense_InitializeEnabledBaselines
 152              		.thumb
 153              		.thumb_func
 154              		.type	CapSense_InitializeEnabledBaselines, %function
 155              	CapSense_InitializeEnabledBaselines:
 156              	.LFB3:
 268:Generated_Source\PSoC5/CapSense_CSHL.c **** 
 269:Generated_Source\PSoC5/CapSense_CSHL.c **** 
 270:Generated_Source\PSoC5/CapSense_CSHL.c **** /*******************************************************************************
 271:Generated_Source\PSoC5/CapSense_CSHL.c **** * Function Name: CapSense_InitializeEnabledBaselines
 272:Generated_Source\PSoC5/CapSense_CSHL.c **** ********************************************************************************
 273:Generated_Source\PSoC5/CapSense_CSHL.c **** *
 274:Generated_Source\PSoC5/CapSense_CSHL.c **** * Summary:
 275:Generated_Source\PSoC5/CapSense_CSHL.c **** *  Scans all enabled widgets and the raw count values are copied into the 
 276:Generated_Source\PSoC5/CapSense_CSHL.c **** *  baseline array for all sensors enabled in scanning process. Baselines 
 277:Generated_Source\PSoC5/CapSense_CSHL.c **** *  initialize with zero values for sensors disabled from scanning process. 
 278:Generated_Source\PSoC5/CapSense_CSHL.c **** *  The raw data filters are initialized if enabled.
 279:Generated_Source\PSoC5/CapSense_CSHL.c **** *
 280:Generated_Source\PSoC5/CapSense_CSHL.c **** * Parameters:
 281:Generated_Source\PSoC5/CapSense_CSHL.c **** *  None
 282:Generated_Source\PSoC5/CapSense_CSHL.c **** *
 283:Generated_Source\PSoC5/CapSense_CSHL.c **** * Return:
 284:Generated_Source\PSoC5/CapSense_CSHL.c **** *  None
 285:Generated_Source\PSoC5/CapSense_CSHL.c **** *
 286:Generated_Source\PSoC5/CapSense_CSHL.c **** * Reentrant:
 287:Generated_Source\PSoC5/CapSense_CSHL.c **** *  No
 288:Generated_Source\PSoC5/CapSense_CSHL.c **** *
 289:Generated_Source\PSoC5/CapSense_CSHL.c **** *******************************************************************************/
 290:Generated_Source\PSoC5/CapSense_CSHL.c **** void CapSense_InitializeEnabledBaselines(void)
 291:Generated_Source\PSoC5/CapSense_CSHL.c ****                              
 292:Generated_Source\PSoC5/CapSense_CSHL.c **** {
 157              		.loc 1 292 0
 158              		.cfi_startproc
 159              		@ args = 0, pretend = 0, frame = 0
 160              		@ frame_needed = 0, uses_anonymous_args = 0
 161 0000 10B5     		push	{r4, lr}
 162              		.cfi_def_cfa_offset 8
ARM GAS  C:\Users\HENRYA~1\AppData\Local\Temp\ccxNFFqA.s 			page 9


 163              		.cfi_offset 4, -8
 164              		.cfi_offset 14, -4
 293:Generated_Source\PSoC5/CapSense_CSHL.c ****     uint8 i;
 294:Generated_Source\PSoC5/CapSense_CSHL.c ****     uint8 pos;
 295:Generated_Source\PSoC5/CapSense_CSHL.c ****     uint8 enMask;
 296:Generated_Source\PSoC5/CapSense_CSHL.c ****     
 297:Generated_Source\PSoC5/CapSense_CSHL.c ****     CapSense_ScanEnabledWidgets();
 165              		.loc 1 297 0
 166 0002 FFF7FEFF 		bl	CapSense_ScanEnabledWidgets
 167              	.LVL13:
 168              	.L13:
 298:Generated_Source\PSoC5/CapSense_CSHL.c ****     while(CapSense_IsBusy() != 0u)
 169              		.loc 1 298 0 discriminator 1
 170 0006 FFF7FEFF 		bl	CapSense_IsBusy
 171              	.LVL14:
 172 000a 0028     		cmp	r0, #0
 173 000c FBD1     		bne	.L13
 174 000e 0024     		movs	r4, #0
 175 0010 11E0     		b	.L14
 176              	.LVL15:
 177              	.L16:
 299:Generated_Source\PSoC5/CapSense_CSHL.c ****     {
 300:Generated_Source\PSoC5/CapSense_CSHL.c ****         /* Wait while busy */
 301:Generated_Source\PSoC5/CapSense_CSHL.c ****     }
 302:Generated_Source\PSoC5/CapSense_CSHL.c ****     
 303:Generated_Source\PSoC5/CapSense_CSHL.c ****     for(i = 0u; i < CapSense_TOTAL_SENSOR_COUNT; i++)
 304:Generated_Source\PSoC5/CapSense_CSHL.c ****     {
 305:Generated_Source\PSoC5/CapSense_CSHL.c ****         pos = (i >> 3u);
 178              		.loc 1 305 0
 179 0012 E208     		lsrs	r2, r4, #3
 306:Generated_Source\PSoC5/CapSense_CSHL.c ****         enMask = 0x01u << (i & 0x07u);
 180              		.loc 1 306 0
 181 0014 04F00701 		and	r1, r4, #7
 182 0018 0123     		movs	r3, #1
 183 001a 8B40     		lsls	r3, r3, r1
 184              	.LVL16:
 307:Generated_Source\PSoC5/CapSense_CSHL.c ****         
 308:Generated_Source\PSoC5/CapSense_CSHL.c ****         /* Clear raw data if sensor is disabled from scanning process */
 309:Generated_Source\PSoC5/CapSense_CSHL.c ****         if((CapSense_sensorEnableMask[pos] & enMask) == 0u)
 185              		.loc 1 309 0
 186 001c 0749     		ldr	r1, .L18
 187 001e 8A5C     		ldrb	r2, [r1, r2]	@ zero_extendqisi2
 188 0020 1342     		tst	r3, r2
 189 0022 03D1     		bne	.L15
 310:Generated_Source\PSoC5/CapSense_CSHL.c ****         {
 311:Generated_Source\PSoC5/CapSense_CSHL.c ****             CapSense_sensorRaw[i] = 0u;
 190              		.loc 1 311 0
 191 0024 0022     		movs	r2, #0
 192 0026 064B     		ldr	r3, .L18+4
 193              	.LVL17:
 194 0028 23F81420 		strh	r2, [r3, r4, lsl #1]	@ movhi
 195              	.L15:
 312:Generated_Source\PSoC5/CapSense_CSHL.c ****         }
 313:Generated_Source\PSoC5/CapSense_CSHL.c ****         
 314:Generated_Source\PSoC5/CapSense_CSHL.c ****         /* Initialize baselines */
 315:Generated_Source\PSoC5/CapSense_CSHL.c ****         CapSense_BaseInit(i);
 196              		.loc 1 315 0 discriminator 2
ARM GAS  C:\Users\HENRYA~1\AppData\Local\Temp\ccxNFFqA.s 			page 10


 197 002c 2046     		mov	r0, r4
 198 002e FFF7FEFF 		bl	CapSense_BaseInit
 199              	.LVL18:
 303:Generated_Source\PSoC5/CapSense_CSHL.c ****     {
 200              		.loc 1 303 0 discriminator 2
 201 0032 0134     		adds	r4, r4, #1
 202              	.LVL19:
 203 0034 E4B2     		uxtb	r4, r4
 204              	.LVL20:
 205              	.L14:
 303:Generated_Source\PSoC5/CapSense_CSHL.c ****     {
 206              		.loc 1 303 0 is_stmt 0 discriminator 1
 207 0036 062C     		cmp	r4, #6
 208 0038 EBD9     		bls	.L16
 316:Generated_Source\PSoC5/CapSense_CSHL.c ****     }
 317:Generated_Source\PSoC5/CapSense_CSHL.c **** }  
 209              		.loc 1 317 0 is_stmt 1
 210 003a 10BD     		pop	{r4, pc}
 211              	.LVL21:
 212              	.L19:
 213              		.align	2
 214              	.L18:
 215 003c 00000000 		.word	CapSense_sensorEnableMask
 216 0040 00000000 		.word	CapSense_sensorRaw
 217              		.cfi_endproc
 218              	.LFE3:
 219              		.size	CapSense_InitializeEnabledBaselines, .-CapSense_InitializeEnabledBaselines
 220              		.section	.text.CapSense_UpdateSensorBaseline,"ax",%progbits
 221              		.align	2
 222              		.global	CapSense_UpdateSensorBaseline
 223              		.thumb
 224              		.thumb_func
 225              		.type	CapSense_UpdateSensorBaseline, %function
 226              	CapSense_UpdateSensorBaseline:
 227              	.LFB4:
 318:Generated_Source\PSoC5/CapSense_CSHL.c **** 
 319:Generated_Source\PSoC5/CapSense_CSHL.c **** 
 320:Generated_Source\PSoC5/CapSense_CSHL.c **** /*******************************************************************************
 321:Generated_Source\PSoC5/CapSense_CSHL.c **** * Function Name: CapSense_UpdateSensorBaseline
 322:Generated_Source\PSoC5/CapSense_CSHL.c **** ********************************************************************************
 323:Generated_Source\PSoC5/CapSense_CSHL.c **** *
 324:Generated_Source\PSoC5/CapSense_CSHL.c **** * Summary:
 325:Generated_Source\PSoC5/CapSense_CSHL.c **** *  Updates the CapSense_sensorBaseline[sensor] array element using the 
 326:Generated_Source\PSoC5/CapSense_CSHL.c **** *  LP filter with k = 256. The signal calculates the difference of count by 
 327:Generated_Source\PSoC5/CapSense_CSHL.c **** *  subtracting the previous baseline from the current raw count value and stores
 328:Generated_Source\PSoC5/CapSense_CSHL.c **** *  it in CapSense_SensorSignal[sensor]. 
 329:Generated_Source\PSoC5/CapSense_CSHL.c **** *  If auto reset option is enabled the baseline updated regards noise threshold. 
 330:Generated_Source\PSoC5/CapSense_CSHL.c **** *  If auto reset option is disabled the baseline stops updating if signal is 
 331:Generated_Source\PSoC5/CapSense_CSHL.c **** *  greater that zero and baseline loads with raw count value if signal is less 
 332:Generated_Source\PSoC5/CapSense_CSHL.c **** *  that noise threshold.
 333:Generated_Source\PSoC5/CapSense_CSHL.c **** *  Raw data filters are applied to the values if enabled before baseline 
 334:Generated_Source\PSoC5/CapSense_CSHL.c **** *  calculation.
 335:Generated_Source\PSoC5/CapSense_CSHL.c **** *
 336:Generated_Source\PSoC5/CapSense_CSHL.c **** * Parameters:
 337:Generated_Source\PSoC5/CapSense_CSHL.c **** *  sensor:  Sensor number.
 338:Generated_Source\PSoC5/CapSense_CSHL.c **** *
 339:Generated_Source\PSoC5/CapSense_CSHL.c **** * Return:
ARM GAS  C:\Users\HENRYA~1\AppData\Local\Temp\ccxNFFqA.s 			page 11


 340:Generated_Source\PSoC5/CapSense_CSHL.c **** *  None
 341:Generated_Source\PSoC5/CapSense_CSHL.c **** *
 342:Generated_Source\PSoC5/CapSense_CSHL.c **** * Global Variables:
 343:Generated_Source\PSoC5/CapSense_CSHL.c **** *  CapSense_sensorBaseline[]    - used to store baseline value.
 344:Generated_Source\PSoC5/CapSense_CSHL.c **** *  CapSense_sensorBaselineLow[] - used to store fraction byte of 
 345:Generated_Source\PSoC5/CapSense_CSHL.c **** *  baseline value.
 346:Generated_Source\PSoC5/CapSense_CSHL.c **** *  CapSense_sensorSignal[]      - used to store diffence between 
 347:Generated_Source\PSoC5/CapSense_CSHL.c **** *  current value of raw data and previous value of baseline.
 348:Generated_Source\PSoC5/CapSense_CSHL.c **** *  CapSense_rawFilterData1[]    - used to store previous sample of 
 349:Generated_Source\PSoC5/CapSense_CSHL.c **** *  any enabled raw data filter.
 350:Generated_Source\PSoC5/CapSense_CSHL.c **** *  CapSense_rawFilterData2[]    - used to store before previous sample
 351:Generated_Source\PSoC5/CapSense_CSHL.c **** *  of enabled raw data filter. Only required for median or average filters.
 352:Generated_Source\PSoC5/CapSense_CSHL.c **** *
 353:Generated_Source\PSoC5/CapSense_CSHL.c **** * Reentrant:
 354:Generated_Source\PSoC5/CapSense_CSHL.c **** *  No
 355:Generated_Source\PSoC5/CapSense_CSHL.c **** *
 356:Generated_Source\PSoC5/CapSense_CSHL.c **** *******************************************************************************/
 357:Generated_Source\PSoC5/CapSense_CSHL.c ****  void CapSense_UpdateSensorBaseline(uint8 sensor)
 358:Generated_Source\PSoC5/CapSense_CSHL.c ****                                  
 359:Generated_Source\PSoC5/CapSense_CSHL.c **** {
 228              		.loc 1 359 0
 229              		.cfi_startproc
 230              		@ args = 0, pretend = 0, frame = 0
 231              		@ frame_needed = 0, uses_anonymous_args = 0
 232              	.LVL22:
 233 0000 2DE9F041 		push	{r4, r5, r6, r7, r8, lr}
 234              		.cfi_def_cfa_offset 24
 235              		.cfi_offset 4, -24
 236              		.cfi_offset 5, -20
 237              		.cfi_offset 6, -16
 238              		.cfi_offset 7, -12
 239              		.cfi_offset 8, -8
 240              		.cfi_offset 14, -4
 241 0004 0446     		mov	r4, r0
 360:Generated_Source\PSoC5/CapSense_CSHL.c ****     uint32 calc;
 361:Generated_Source\PSoC5/CapSense_CSHL.c ****     uint16 tempRaw;
 362:Generated_Source\PSoC5/CapSense_CSHL.c ****     uint16 filteredRawData;
 363:Generated_Source\PSoC5/CapSense_CSHL.c ****     uint8 widget = CapSense_widgetNumber[sensor];
 242              		.loc 1 363 0
 243 0006 294B     		ldr	r3, .L31
 244 0008 1B5C     		ldrb	r3, [r3, r0]	@ zero_extendqisi2
 245              	.LVL23:
 364:Generated_Source\PSoC5/CapSense_CSHL.c ****     uint8 noiseThreshold = CapSense_noiseThreshold[widget];
 246              		.loc 1 364 0
 247 000a 294A     		ldr	r2, .L31+4
 248 000c 1344     		add	r3, r3, r2
 249              	.LVL24:
 250 000e 1E79     		ldrb	r6, [r3, #4]	@ zero_extendqisi2
 251              	.LVL25:
 365:Generated_Source\PSoC5/CapSense_CSHL.c ****     
 366:Generated_Source\PSoC5/CapSense_CSHL.c ****     #if (CapSense_TOTAL_GENERICS_COUNT)
 367:Generated_Source\PSoC5/CapSense_CSHL.c ****         /* Exclude generic widget */
 368:Generated_Source\PSoC5/CapSense_CSHL.c ****         if(widget < CapSense_END_OF_WIDGETS_INDEX)
 369:Generated_Source\PSoC5/CapSense_CSHL.c ****         {
 370:Generated_Source\PSoC5/CapSense_CSHL.c ****     #endif  /* CapSense_TOTAL_GENERICS_COUNT */
 371:Generated_Source\PSoC5/CapSense_CSHL.c ****     
 372:Generated_Source\PSoC5/CapSense_CSHL.c ****     filteredRawData = CapSense_sensorRaw[sensor];
ARM GAS  C:\Users\HENRYA~1\AppData\Local\Temp\ccxNFFqA.s 			page 12


 252              		.loc 1 372 0
 253 0010 284B     		ldr	r3, .L31+8
 254              	.LVL26:
 255 0012 33F81080 		ldrh	r8, [r3, r0, lsl #1]
 256              	.LVL27:
 373:Generated_Source\PSoC5/CapSense_CSHL.c ****     
 374:Generated_Source\PSoC5/CapSense_CSHL.c ****     #if (CapSense_RAW_FILTER_MASK & CapSense_MEDIAN_FILTER)
 375:Generated_Source\PSoC5/CapSense_CSHL.c ****         tempRaw = filteredRawData;
 376:Generated_Source\PSoC5/CapSense_CSHL.c ****         filteredRawData = CapSense_MedianFilter(filteredRawData, CapSense_rawFilterData1[sensor], 
 377:Generated_Source\PSoC5/CapSense_CSHL.c ****                                                         CapSense_rawFilterData2[sensor]);
 378:Generated_Source\PSoC5/CapSense_CSHL.c ****         CapSense_rawFilterData2[sensor] = CapSense_rawFilterData1[sensor];
 379:Generated_Source\PSoC5/CapSense_CSHL.c ****         CapSense_rawFilterData1[sensor] = tempRaw;
 380:Generated_Source\PSoC5/CapSense_CSHL.c ****         
 381:Generated_Source\PSoC5/CapSense_CSHL.c ****     #elif (CapSense_RAW_FILTER_MASK & CapSense_AVERAGING_FILTER)
 382:Generated_Source\PSoC5/CapSense_CSHL.c ****         tempRaw = filteredRawData;
 383:Generated_Source\PSoC5/CapSense_CSHL.c ****         filteredRawData = CapSense_AveragingFilter(filteredRawData, CapSense_rawFilterData1[sensor]
 384:Generated_Source\PSoC5/CapSense_CSHL.c ****                                                            CapSense_rawFilterData2[sensor]);
 385:Generated_Source\PSoC5/CapSense_CSHL.c ****         CapSense_rawFilterData2[sensor] = CapSense_rawFilterData1[sensor];
 386:Generated_Source\PSoC5/CapSense_CSHL.c ****         CapSense_rawFilterData1[sensor] = tempRaw;
 387:Generated_Source\PSoC5/CapSense_CSHL.c ****         
 388:Generated_Source\PSoC5/CapSense_CSHL.c ****     #elif (CapSense_RAW_FILTER_MASK & CapSense_IIR2_FILTER)
 389:Generated_Source\PSoC5/CapSense_CSHL.c ****         filteredRawData = CapSense_IIR2Filter(filteredRawData, CapSense_rawFilterData1[sensor]);
 390:Generated_Source\PSoC5/CapSense_CSHL.c ****         CapSense_rawFilterData1[sensor] = filteredRawData;
 391:Generated_Source\PSoC5/CapSense_CSHL.c ****         
 392:Generated_Source\PSoC5/CapSense_CSHL.c ****     #elif (CapSense_RAW_FILTER_MASK & CapSense_IIR4_FILTER)
 393:Generated_Source\PSoC5/CapSense_CSHL.c ****         filteredRawData = CapSense_IIR4Filter(filteredRawData, CapSense_rawFilterData1[sensor]);
 394:Generated_Source\PSoC5/CapSense_CSHL.c ****         CapSense_rawFilterData1[sensor] = filteredRawData;
 395:Generated_Source\PSoC5/CapSense_CSHL.c ****             
 396:Generated_Source\PSoC5/CapSense_CSHL.c ****     #elif (CapSense_RAW_FILTER_MASK & CapSense_JITTER_FILTER)
 397:Generated_Source\PSoC5/CapSense_CSHL.c ****         filteredRawData = CapSense_JitterFilter(filteredRawData, CapSense_rawFilterData1[sensor]);
 398:Generated_Source\PSoC5/CapSense_CSHL.c ****         CapSense_rawFilterData1[sensor] = filteredRawData;
 399:Generated_Source\PSoC5/CapSense_CSHL.c ****         
 400:Generated_Source\PSoC5/CapSense_CSHL.c ****     #elif (CapSense_RAW_FILTER_MASK & CapSense_IIR8_FILTER)
 401:Generated_Source\PSoC5/CapSense_CSHL.c ****         filteredRawData = CapSense_IIR8Filter(filteredRawData, CapSense_rawFilterData1[sensor]);
 402:Generated_Source\PSoC5/CapSense_CSHL.c ****         CapSense_rawFilterData1[sensor] = filteredRawData;
 403:Generated_Source\PSoC5/CapSense_CSHL.c ****         
 404:Generated_Source\PSoC5/CapSense_CSHL.c ****     #elif (CapSense_RAW_FILTER_MASK & CapSense_IIR16_FILTER)
 405:Generated_Source\PSoC5/CapSense_CSHL.c ****         filteredRawData = CapSense_IIR16Filter(filteredRawData, CapSense_rawFilterData1[sensor]);
 406:Generated_Source\PSoC5/CapSense_CSHL.c ****         CapSense_rawFilterData1[sensor] = filteredRawData;
 407:Generated_Source\PSoC5/CapSense_CSHL.c ****         
 408:Generated_Source\PSoC5/CapSense_CSHL.c ****     #else
 409:Generated_Source\PSoC5/CapSense_CSHL.c ****         /* No Raw filters */
 410:Generated_Source\PSoC5/CapSense_CSHL.c ****     #endif  /* (CapSense_RAW_FILTER_MASK & CapSense_MEDIAN_FILTER) */
 411:Generated_Source\PSoC5/CapSense_CSHL.c ****     
 412:Generated_Source\PSoC5/CapSense_CSHL.c ****     #if (CapSense_TUNING_METHOD == CapSense_AUTO_TUNING)
 413:Generated_Source\PSoC5/CapSense_CSHL.c ****         CapSense_CalculateThresholds(sensor);
 257              		.loc 1 413 0
 258 0016 FFF7FEFF 		bl	CapSense_CalculateThresholds
 259              	.LVL28:
 414:Generated_Source\PSoC5/CapSense_CSHL.c ****     #endif /* (CapSense_TUNING_METHOD == CapSense_AUTO_TUNING) */
 415:Generated_Source\PSoC5/CapSense_CSHL.c **** 
 416:Generated_Source\PSoC5/CapSense_CSHL.c **** 
 417:Generated_Source\PSoC5/CapSense_CSHL.c ****     /* Baseline calculation */
 418:Generated_Source\PSoC5/CapSense_CSHL.c ****     /* Calculate difference RawData[cur] - Baseline[prev] */
 419:Generated_Source\PSoC5/CapSense_CSHL.c ****     if(filteredRawData >= CapSense_sensorBaseline[sensor])
 260              		.loc 1 419 0
 261 001a 274B     		ldr	r3, .L31+12
ARM GAS  C:\Users\HENRYA~1\AppData\Local\Temp\ccxNFFqA.s 			page 13


 262 001c 33F81420 		ldrh	r2, [r3, r4, lsl #1]
 263 0020 4245     		cmp	r2, r8
 264 0022 04D8     		bhi	.L21
 420:Generated_Source\PSoC5/CapSense_CSHL.c ****     {
 421:Generated_Source\PSoC5/CapSense_CSHL.c ****         tempRaw = filteredRawData - CapSense_sensorBaseline[sensor];
 265              		.loc 1 421 0
 266 0024 C2EB0805 		rsb	r5, r2, r8
 267 0028 ADB2     		uxth	r5, r5
 268              	.LVL29:
 422:Generated_Source\PSoC5/CapSense_CSHL.c ****         widget = 1u;    /* Positive difference - Calculate the Signal */
 269              		.loc 1 422 0
 270 002a 0127     		movs	r7, #1
 271 002c 03E0     		b	.L22
 272              	.LVL30:
 273              	.L21:
 423:Generated_Source\PSoC5/CapSense_CSHL.c ****     }
 424:Generated_Source\PSoC5/CapSense_CSHL.c ****     else
 425:Generated_Source\PSoC5/CapSense_CSHL.c ****     {
 426:Generated_Source\PSoC5/CapSense_CSHL.c ****         tempRaw = CapSense_sensorBaseline[sensor] - filteredRawData;
 274              		.loc 1 426 0
 275 002e C8EB0205 		rsb	r5, r8, r2
 276 0032 ADB2     		uxth	r5, r5
 277              	.LVL31:
 427:Generated_Source\PSoC5/CapSense_CSHL.c ****         widget = 0u;    /* Negative difference - Do NOT calculate the Signal */
 278              		.loc 1 427 0
 279 0034 0027     		movs	r7, #0
 280              	.LVL32:
 281              	.L22:
 428:Generated_Source\PSoC5/CapSense_CSHL.c ****     }
 429:Generated_Source\PSoC5/CapSense_CSHL.c **** 
 430:Generated_Source\PSoC5/CapSense_CSHL.c ****     if((widget == 0u) && (tempRaw > (uint16) CapSense_NEGATIVE_NOISE_THRESHOLD))
 282              		.loc 1 430 0
 283 0036 87B9     		cbnz	r7, .L23
 284              		.loc 1 430 0 is_stmt 0 discriminator 1
 285 0038 142D     		cmp	r5, #20
 286 003a 0ED9     		bls	.L23
 431:Generated_Source\PSoC5/CapSense_CSHL.c ****     {
 432:Generated_Source\PSoC5/CapSense_CSHL.c ****         if(CapSense_lowBaselineResetCnt[sensor] >= CapSense_LOW_BASELINE_RESET)
 287              		.loc 1 432 0 is_stmt 1
 288 003c 1F4B     		ldr	r3, .L31+16
 289 003e 1B5D     		ldrb	r3, [r3, r4]	@ zero_extendqisi2
 290 0040 042B     		cmp	r3, #4
 291 0042 06D9     		bls	.L24
 433:Generated_Source\PSoC5/CapSense_CSHL.c ****         {
 434:Generated_Source\PSoC5/CapSense_CSHL.c ****             CapSense_BaseInit(sensor);
 292              		.loc 1 434 0
 293 0044 2046     		mov	r0, r4
 294 0046 FFF7FEFF 		bl	CapSense_BaseInit
 295              	.LVL33:
 435:Generated_Source\PSoC5/CapSense_CSHL.c ****             CapSense_lowBaselineResetCnt[sensor] = 0u;
 296              		.loc 1 435 0
 297 004a 0022     		movs	r2, #0
 298 004c 1B4B     		ldr	r3, .L31+16
 299 004e 1A55     		strb	r2, [r3, r4]
 300 0050 18E0     		b	.L25
 301              	.L24:
 436:Generated_Source\PSoC5/CapSense_CSHL.c ****         }
ARM GAS  C:\Users\HENRYA~1\AppData\Local\Temp\ccxNFFqA.s 			page 14


 437:Generated_Source\PSoC5/CapSense_CSHL.c ****         else
 438:Generated_Source\PSoC5/CapSense_CSHL.c ****         {
 439:Generated_Source\PSoC5/CapSense_CSHL.c ****             CapSense_lowBaselineResetCnt[sensor]++;
 302              		.loc 1 439 0
 303 0052 0133     		adds	r3, r3, #1
 304 0054 194A     		ldr	r2, .L31+16
 305 0056 1355     		strb	r3, [r2, r4]
 306 0058 14E0     		b	.L25
 307              	.L23:
 440:Generated_Source\PSoC5/CapSense_CSHL.c ****         }
 441:Generated_Source\PSoC5/CapSense_CSHL.c ****     }
 442:Generated_Source\PSoC5/CapSense_CSHL.c ****     else
 443:Generated_Source\PSoC5/CapSense_CSHL.c ****     {
 444:Generated_Source\PSoC5/CapSense_CSHL.c ****         #if (CapSense_AUTO_RESET == CapSense_AUTO_RESET_DISABLE)
 445:Generated_Source\PSoC5/CapSense_CSHL.c ****             /* Update Baseline if lower that noiseThreshold */
 446:Generated_Source\PSoC5/CapSense_CSHL.c ****             if ( (tempRaw <= (uint16) noiseThreshold) || 
 308              		.loc 1 446 0
 309 005a B3B2     		uxth	r3, r6
 310 005c AB42     		cmp	r3, r5
 311 005e 02D2     		bcs	.L26
 312              		.loc 1 446 0 is_stmt 0 discriminator 1
 313 0060 132D     		cmp	r5, #19
 314 0062 0FD8     		bhi	.L25
 447:Generated_Source\PSoC5/CapSense_CSHL.c ****                  ((tempRaw < (uint16) CapSense_NEGATIVE_NOISE_THRESHOLD)
 448:Generated_Source\PSoC5/CapSense_CSHL.c ****                    && (widget == 0u)))
 315              		.loc 1 448 0 is_stmt 1
 316 0064 77B9     		cbnz	r7, .L25
 317              	.L26:
 318              	.LVL34:
 449:Generated_Source\PSoC5/CapSense_CSHL.c ****             {
 450:Generated_Source\PSoC5/CapSense_CSHL.c ****         #endif /* (CapSense_AUTO_RESET == CapSense_AUTO_RESET_DISABLE) */
 451:Generated_Source\PSoC5/CapSense_CSHL.c ****                 /* Make full Baseline 23 bits */
 452:Generated_Source\PSoC5/CapSense_CSHL.c ****                 calc = (uint32) CapSense_sensorBaseline[sensor] << 8u;
 453:Generated_Source\PSoC5/CapSense_CSHL.c ****                 calc |= (uint32) CapSense_sensorBaselineLow[sensor];
 319              		.loc 1 453 0
 320 0066 1649     		ldr	r1, .L31+20
 321 0068 0B5D     		ldrb	r3, [r1, r4]	@ zero_extendqisi2
 322 006a 43EA0223 		orr	r3, r3, r2, lsl #8
 323              	.LVL35:
 454:Generated_Source\PSoC5/CapSense_CSHL.c **** 
 455:Generated_Source\PSoC5/CapSense_CSHL.c ****                 /* Add Raw Data to Baseline */
 456:Generated_Source\PSoC5/CapSense_CSHL.c ****                 calc += filteredRawData;
 324              		.loc 1 456 0
 325 006e 4344     		add	r3, r3, r8
 326              	.LVL36:
 457:Generated_Source\PSoC5/CapSense_CSHL.c **** 
 458:Generated_Source\PSoC5/CapSense_CSHL.c ****                 /* Sub the high Baseline */
 459:Generated_Source\PSoC5/CapSense_CSHL.c ****                 calc -= CapSense_sensorBaseline[sensor];
 327              		.loc 1 459 0
 328 0070 9B1A     		subs	r3, r3, r2
 329              	.LVL37:
 460:Generated_Source\PSoC5/CapSense_CSHL.c **** 
 461:Generated_Source\PSoC5/CapSense_CSHL.c ****                 /* Put Baseline and BaselineLow */
 462:Generated_Source\PSoC5/CapSense_CSHL.c ****                 CapSense_sensorBaseline[sensor] = ((uint16) (calc >> 8u));
 330              		.loc 1 462 0
 331 0072 C3F30F20 		ubfx	r0, r3, #8, #16
 332 0076 104A     		ldr	r2, .L31+12
ARM GAS  C:\Users\HENRYA~1\AppData\Local\Temp\ccxNFFqA.s 			page 15


 333 0078 22F81400 		strh	r0, [r2, r4, lsl #1]	@ movhi
 463:Generated_Source\PSoC5/CapSense_CSHL.c ****                 CapSense_sensorBaselineLow[sensor] = ((uint8) calc);
 334              		.loc 1 463 0
 335 007c 0B55     		strb	r3, [r1, r4]
 464:Generated_Source\PSoC5/CapSense_CSHL.c **** 
 465:Generated_Source\PSoC5/CapSense_CSHL.c ****                 CapSense_lowBaselineResetCnt[sensor] = 0u;
 336              		.loc 1 465 0
 337 007e 0022     		movs	r2, #0
 338 0080 0E4B     		ldr	r3, .L31+16
 339              	.LVL38:
 340 0082 1A55     		strb	r2, [r3, r4]
 341              	.L25:
 466:Generated_Source\PSoC5/CapSense_CSHL.c ****         #if (CapSense_AUTO_RESET == CapSense_AUTO_RESET_DISABLE)
 467:Generated_Source\PSoC5/CapSense_CSHL.c ****             }
 468:Generated_Source\PSoC5/CapSense_CSHL.c ****         #endif /* (CapSense_AUTO_RESET == CapSense_AUTO_RESET_DISABLE) */
 469:Generated_Source\PSoC5/CapSense_CSHL.c ****     }
 470:Generated_Source\PSoC5/CapSense_CSHL.c **** 
 471:Generated_Source\PSoC5/CapSense_CSHL.c ****     /* Calculate Signal if possitive difference > noiseThreshold */
 472:Generated_Source\PSoC5/CapSense_CSHL.c ****     if((tempRaw > (uint16) noiseThreshold) && (widget != 0u))
 342              		.loc 1 472 0
 343 0084 B6B2     		uxth	r6, r6
 344              	.LVL39:
 345 0086 AE42     		cmp	r6, r5
 346 0088 0BD2     		bcs	.L27
 347              		.loc 1 472 0 is_stmt 0 discriminator 1
 348 008a 57B1     		cbz	r7, .L27
 473:Generated_Source\PSoC5/CapSense_CSHL.c ****     {
 474:Generated_Source\PSoC5/CapSense_CSHL.c ****         #if (CapSense_SIGNAL_SIZE == CapSense_SIGNAL_SIZE_UINT8)
 475:Generated_Source\PSoC5/CapSense_CSHL.c ****             /* Over flow defence for uint8 */
 476:Generated_Source\PSoC5/CapSense_CSHL.c ****             if (tempRaw > 0xFFu)
 349              		.loc 1 476 0 is_stmt 1
 350 008c FF2D     		cmp	r5, #255
 351 008e 04D9     		bls	.L28
 477:Generated_Source\PSoC5/CapSense_CSHL.c ****             {
 478:Generated_Source\PSoC5/CapSense_CSHL.c ****                 CapSense_sensorSignal[sensor] = 0xFFu;
 352              		.loc 1 478 0
 353 0090 FF22     		movs	r2, #255
 354 0092 0C4B     		ldr	r3, .L31+24
 355 0094 1A55     		strb	r2, [r3, r4]
 356 0096 BDE8F081 		pop	{r4, r5, r6, r7, r8, pc}
 357              	.LVL40:
 358              	.L28:
 479:Generated_Source\PSoC5/CapSense_CSHL.c ****             }    
 480:Generated_Source\PSoC5/CapSense_CSHL.c ****             else 
 481:Generated_Source\PSoC5/CapSense_CSHL.c ****             {
 482:Generated_Source\PSoC5/CapSense_CSHL.c ****                 CapSense_sensorSignal[sensor] = ((uint8) tempRaw);
 359              		.loc 1 482 0
 360 009a 0A4B     		ldr	r3, .L31+24
 361 009c 1D55     		strb	r5, [r3, r4]
 362 009e BDE8F081 		pop	{r4, r5, r6, r7, r8, pc}
 363              	.LVL41:
 364              	.L27:
 483:Generated_Source\PSoC5/CapSense_CSHL.c ****             }
 484:Generated_Source\PSoC5/CapSense_CSHL.c ****         #else
 485:Generated_Source\PSoC5/CapSense_CSHL.c ****             CapSense_sensorSignal[sensor] = ((uint16) tempRaw);
 486:Generated_Source\PSoC5/CapSense_CSHL.c ****         #endif  /* (CapSense_SIGNAL_SIZE == CapSense_SIGNAL_SIZE_UINT8) */
 487:Generated_Source\PSoC5/CapSense_CSHL.c ****     }
ARM GAS  C:\Users\HENRYA~1\AppData\Local\Temp\ccxNFFqA.s 			page 16


 488:Generated_Source\PSoC5/CapSense_CSHL.c ****     else
 489:Generated_Source\PSoC5/CapSense_CSHL.c ****     {
 490:Generated_Source\PSoC5/CapSense_CSHL.c ****         /* Signal is zero */
 491:Generated_Source\PSoC5/CapSense_CSHL.c ****         CapSense_sensorSignal[sensor] = 0u;
 365              		.loc 1 491 0
 366 00a2 0022     		movs	r2, #0
 367 00a4 074B     		ldr	r3, .L31+24
 368 00a6 1A55     		strb	r2, [r3, r4]
 369 00a8 BDE8F081 		pop	{r4, r5, r6, r7, r8, pc}
 370              	.LVL42:
 371              	.L32:
 372              		.align	2
 373              	.L31:
 374 00ac 00000000 		.word	CapSense_widgetNumber
 375 00b0 00000000 		.word	.LANCHOR0
 376 00b4 00000000 		.word	CapSense_sensorRaw
 377 00b8 00000000 		.word	CapSense_sensorBaseline
 378 00bc 00000000 		.word	CapSense_lowBaselineResetCnt
 379 00c0 00000000 		.word	CapSense_sensorBaselineLow
 380 00c4 00000000 		.word	CapSense_sensorSignal
 381              		.cfi_endproc
 382              	.LFE4:
 383              		.size	CapSense_UpdateSensorBaseline, .-CapSense_UpdateSensorBaseline
 384              		.section	.text.CapSense_UpdateEnabledBaselines,"ax",%progbits
 385              		.align	2
 386              		.global	CapSense_UpdateEnabledBaselines
 387              		.thumb
 388              		.thumb_func
 389              		.type	CapSense_UpdateEnabledBaselines, %function
 390              	CapSense_UpdateEnabledBaselines:
 391              	.LFB5:
 492:Generated_Source\PSoC5/CapSense_CSHL.c ****     }
 493:Generated_Source\PSoC5/CapSense_CSHL.c **** 
 494:Generated_Source\PSoC5/CapSense_CSHL.c ****     #if (CapSense_TOTAL_GENERICS_COUNT)
 495:Generated_Source\PSoC5/CapSense_CSHL.c ****         /* Exclude generic widget */
 496:Generated_Source\PSoC5/CapSense_CSHL.c ****         }
 497:Generated_Source\PSoC5/CapSense_CSHL.c ****     #endif  /* CapSense_TOTAL_GENERICS_COUNT */
 498:Generated_Source\PSoC5/CapSense_CSHL.c **** }
 499:Generated_Source\PSoC5/CapSense_CSHL.c **** 
 500:Generated_Source\PSoC5/CapSense_CSHL.c **** 
 501:Generated_Source\PSoC5/CapSense_CSHL.c **** /*******************************************************************************
 502:Generated_Source\PSoC5/CapSense_CSHL.c **** * Function Name: CapSense_UpdateEnabledBaselines
 503:Generated_Source\PSoC5/CapSense_CSHL.c **** ********************************************************************************
 504:Generated_Source\PSoC5/CapSense_CSHL.c **** *
 505:Generated_Source\PSoC5/CapSense_CSHL.c **** * Summary:
 506:Generated_Source\PSoC5/CapSense_CSHL.c **** *  Checks CapSense_sensorEnableMask[] array and calls the 
 507:Generated_Source\PSoC5/CapSense_CSHL.c **** *  CapSense_UpdateSensorBaseline function to update the baselines 
 508:Generated_Source\PSoC5/CapSense_CSHL.c **** *  for enabled sensors.
 509:Generated_Source\PSoC5/CapSense_CSHL.c **** *
 510:Generated_Source\PSoC5/CapSense_CSHL.c **** * Parameters:
 511:Generated_Source\PSoC5/CapSense_CSHL.c **** *  None
 512:Generated_Source\PSoC5/CapSense_CSHL.c **** *
 513:Generated_Source\PSoC5/CapSense_CSHL.c **** * Return:
 514:Generated_Source\PSoC5/CapSense_CSHL.c **** *  None
 515:Generated_Source\PSoC5/CapSense_CSHL.c **** *
 516:Generated_Source\PSoC5/CapSense_CSHL.c **** * Global Variables:
 517:Generated_Source\PSoC5/CapSense_CSHL.c **** *  CapSense_sensorEnableMask[] - used to store the sensor scanning 
ARM GAS  C:\Users\HENRYA~1\AppData\Local\Temp\ccxNFFqA.s 			page 17


 518:Generated_Source\PSoC5/CapSense_CSHL.c **** *  state.
 519:Generated_Source\PSoC5/CapSense_CSHL.c **** *  CapSense_sensorEnableMask[0] contains the masked bits for sensors 
 520:Generated_Source\PSoC5/CapSense_CSHL.c **** *   0 through 7 (sensor 0 is bit 0, sensor 1 is bit 1).
 521:Generated_Source\PSoC5/CapSense_CSHL.c **** *  CapSense_sensorEnableMask[1] contains the masked bits for 
 522:Generated_Source\PSoC5/CapSense_CSHL.c **** *  sensors 8 through 15 (if needed), and so on.
 523:Generated_Source\PSoC5/CapSense_CSHL.c **** *  0 - sensor doesn't scan by CapSense_ScanEnabledWidgets().
 524:Generated_Source\PSoC5/CapSense_CSHL.c **** *  1 - sensor scans by CapSense_ScanEnabledWidgets().
 525:Generated_Source\PSoC5/CapSense_CSHL.c **** *
 526:Generated_Source\PSoC5/CapSense_CSHL.c **** * Reentrant:
 527:Generated_Source\PSoC5/CapSense_CSHL.c **** *  No
 528:Generated_Source\PSoC5/CapSense_CSHL.c **** *
 529:Generated_Source\PSoC5/CapSense_CSHL.c **** *******************************************************************************/
 530:Generated_Source\PSoC5/CapSense_CSHL.c ****  void CapSense_UpdateEnabledBaselines(void)
 531:Generated_Source\PSoC5/CapSense_CSHL.c ****                                  
 532:Generated_Source\PSoC5/CapSense_CSHL.c **** {
 392              		.loc 1 532 0
 393              		.cfi_startproc
 394              		@ args = 0, pretend = 0, frame = 0
 395              		@ frame_needed = 0, uses_anonymous_args = 0
 396 0000 10B5     		push	{r4, lr}
 397              		.cfi_def_cfa_offset 8
 398              		.cfi_offset 4, -8
 399              		.cfi_offset 14, -4
 400              	.LVL43:
 533:Generated_Source\PSoC5/CapSense_CSHL.c ****     uint8 i;
 534:Generated_Source\PSoC5/CapSense_CSHL.c ****     uint8 pos;
 535:Generated_Source\PSoC5/CapSense_CSHL.c ****     uint8 enMask;
 536:Generated_Source\PSoC5/CapSense_CSHL.c ****     
 537:Generated_Source\PSoC5/CapSense_CSHL.c ****     for(i = 0u; i < CapSense_TOTAL_SENSOR_COUNT; i++)
 401              		.loc 1 537 0
 402 0002 0024     		movs	r4, #0
 403 0004 0DE0     		b	.L34
 404              	.LVL44:
 405              	.L36:
 538:Generated_Source\PSoC5/CapSense_CSHL.c ****     {
 539:Generated_Source\PSoC5/CapSense_CSHL.c ****         pos = (i >> 3u);
 406              		.loc 1 539 0
 407 0006 E208     		lsrs	r2, r4, #3
 540:Generated_Source\PSoC5/CapSense_CSHL.c ****         enMask = (uint8)(0x01u << (i & 0x07u));
 408              		.loc 1 540 0
 409 0008 04F00701 		and	r1, r4, #7
 410 000c 0123     		movs	r3, #1
 411 000e 8B40     		lsls	r3, r3, r1
 412              	.LVL45:
 541:Generated_Source\PSoC5/CapSense_CSHL.c ****         if((CapSense_sensorEnableMask[pos] & enMask) != 0u)
 413              		.loc 1 541 0
 414 0010 0549     		ldr	r1, .L38
 415 0012 8A5C     		ldrb	r2, [r1, r2]	@ zero_extendqisi2
 416 0014 1342     		tst	r3, r2
 417 0016 02D0     		beq	.L35
 542:Generated_Source\PSoC5/CapSense_CSHL.c ****         {
 543:Generated_Source\PSoC5/CapSense_CSHL.c ****             CapSense_UpdateSensorBaseline(i);
 418              		.loc 1 543 0
 419 0018 2046     		mov	r0, r4
 420 001a FFF7FEFF 		bl	CapSense_UpdateSensorBaseline
 421              	.LVL46:
 422              	.L35:
ARM GAS  C:\Users\HENRYA~1\AppData\Local\Temp\ccxNFFqA.s 			page 18


 537:Generated_Source\PSoC5/CapSense_CSHL.c ****     {
 423              		.loc 1 537 0 discriminator 2
 424 001e 0134     		adds	r4, r4, #1
 425              	.LVL47:
 426 0020 E4B2     		uxtb	r4, r4
 427              	.LVL48:
 428              	.L34:
 537:Generated_Source\PSoC5/CapSense_CSHL.c ****     {
 429              		.loc 1 537 0 is_stmt 0 discriminator 1
 430 0022 062C     		cmp	r4, #6
 431 0024 EFD9     		bls	.L36
 544:Generated_Source\PSoC5/CapSense_CSHL.c ****         }
 545:Generated_Source\PSoC5/CapSense_CSHL.c ****     }
 546:Generated_Source\PSoC5/CapSense_CSHL.c **** }
 432              		.loc 1 546 0 is_stmt 1
 433 0026 10BD     		pop	{r4, pc}
 434              	.LVL49:
 435              	.L39:
 436              		.align	2
 437              	.L38:
 438 0028 00000000 		.word	CapSense_sensorEnableMask
 439              		.cfi_endproc
 440              	.LFE5:
 441              		.size	CapSense_UpdateEnabledBaselines, .-CapSense_UpdateEnabledBaselines
 442              		.section	.text.CapSense_CheckIsSensorActive,"ax",%progbits
 443              		.align	2
 444              		.global	CapSense_CheckIsSensorActive
 445              		.thumb
 446              		.thumb_func
 447              		.type	CapSense_CheckIsSensorActive, %function
 448              	CapSense_CheckIsSensorActive:
 449              	.LFB6:
 547:Generated_Source\PSoC5/CapSense_CSHL.c **** 
 548:Generated_Source\PSoC5/CapSense_CSHL.c **** 
 549:Generated_Source\PSoC5/CapSense_CSHL.c **** /*******************************************************************************
 550:Generated_Source\PSoC5/CapSense_CSHL.c **** * Function Name: CapSense_CheckIsSensorActive
 551:Generated_Source\PSoC5/CapSense_CSHL.c **** ********************************************************************************
 552:Generated_Source\PSoC5/CapSense_CSHL.c **** *
 553:Generated_Source\PSoC5/CapSense_CSHL.c **** * Summary:
 554:Generated_Source\PSoC5/CapSense_CSHL.c **** *  Compares the CapSense_SensorSignal[sensor] array element to finger
 555:Generated_Source\PSoC5/CapSense_CSHL.c **** *  threshold of widget it belongs to. The hysteresis and debounce are taken into 
 556:Generated_Source\PSoC5/CapSense_CSHL.c **** *  account. The hysteresis is added or subtracted from the finger threshold 
 557:Generated_Source\PSoC5/CapSense_CSHL.c **** *  based on whether the sensor is currently active. 
 558:Generated_Source\PSoC5/CapSense_CSHL.c **** *  If the sensor is active, the threshold is lowered by the hysteresis amount.
 559:Generated_Source\PSoC5/CapSense_CSHL.c **** *  If the sensor is inactive, the threshold is raised by the hysteresis amount.
 560:Generated_Source\PSoC5/CapSense_CSHL.c **** *  The debounce counter added to the sensor active transition.
 561:Generated_Source\PSoC5/CapSense_CSHL.c **** *  This function updates CapSense_SensorOnMask[] array element.
 562:Generated_Source\PSoC5/CapSense_CSHL.c **** *
 563:Generated_Source\PSoC5/CapSense_CSHL.c **** * Parameters:
 564:Generated_Source\PSoC5/CapSense_CSHL.c **** *  sensor:  Sensor number.
 565:Generated_Source\PSoC5/CapSense_CSHL.c **** *
 566:Generated_Source\PSoC5/CapSense_CSHL.c **** * Return:
 567:Generated_Source\PSoC5/CapSense_CSHL.c **** *  Returns sensor state 1 if active, 0 if not active.
 568:Generated_Source\PSoC5/CapSense_CSHL.c **** *
 569:Generated_Source\PSoC5/CapSense_CSHL.c **** * Global Variables:
 570:Generated_Source\PSoC5/CapSense_CSHL.c **** *  CapSense_sensorSignal[]      - used to store diffence between 
 571:Generated_Source\PSoC5/CapSense_CSHL.c **** *  current value of raw data and previous value of baseline.
ARM GAS  C:\Users\HENRYA~1\AppData\Local\Temp\ccxNFFqA.s 			page 19


 572:Generated_Source\PSoC5/CapSense_CSHL.c **** *  CapSense_debounceCounter[]   - used to store current debounce 
 573:Generated_Source\PSoC5/CapSense_CSHL.c **** *  counter of sensor. Widget which has this parameter are buttons, matrix 
 574:Generated_Source\PSoC5/CapSense_CSHL.c **** *  buttons, proximity, guard. All other widgets haven't debounce parameter
 575:Generated_Source\PSoC5/CapSense_CSHL.c **** *  and use the last element of this array with value 0 (it means no debounce).
 576:Generated_Source\PSoC5/CapSense_CSHL.c **** *  CapSense_sensorOnMask[] - used to store sensors on/off state.
 577:Generated_Source\PSoC5/CapSense_CSHL.c **** *  CapSense_sensorOnMask[0] contains the masked bits for sensors 
 578:Generated_Source\PSoC5/CapSense_CSHL.c **** *   0 through 7 (sensor 0 is bit 0, sensor 1 is bit 1).
 579:Generated_Source\PSoC5/CapSense_CSHL.c **** *  CapSense_sensorEnableMask[1] contains the masked bits for 
 580:Generated_Source\PSoC5/CapSense_CSHL.c **** *  sensors 8 through 15 (if needed), and so on.
 581:Generated_Source\PSoC5/CapSense_CSHL.c **** *  0 - sensor is inactive.
 582:Generated_Source\PSoC5/CapSense_CSHL.c **** *  1 - sensor is active.
 583:Generated_Source\PSoC5/CapSense_CSHL.c **** *
 584:Generated_Source\PSoC5/CapSense_CSHL.c **** * Reentrant:
 585:Generated_Source\PSoC5/CapSense_CSHL.c **** *  No
 586:Generated_Source\PSoC5/CapSense_CSHL.c **** *
 587:Generated_Source\PSoC5/CapSense_CSHL.c **** *******************************************************************************/
 588:Generated_Source\PSoC5/CapSense_CSHL.c **** uint8 CapSense_CheckIsSensorActive(uint8 sensor)
 589:Generated_Source\PSoC5/CapSense_CSHL.c ****                                   
 590:Generated_Source\PSoC5/CapSense_CSHL.c **** {
 450              		.loc 1 590 0
 451              		.cfi_startproc
 452              		@ args = 0, pretend = 0, frame = 0
 453              		@ frame_needed = 0, uses_anonymous_args = 0
 454              	.LVL50:
 455 0000 F0B5     		push	{r4, r5, r6, r7, lr}
 456              		.cfi_def_cfa_offset 20
 457              		.cfi_offset 4, -20
 458              		.cfi_offset 5, -16
 459              		.cfi_offset 6, -12
 460              		.cfi_offset 7, -8
 461              		.cfi_offset 14, -4
 591:Generated_Source\PSoC5/CapSense_CSHL.c ****     uint8 debounceIndex;
 592:Generated_Source\PSoC5/CapSense_CSHL.c ****     /* Get On/Off mask */
 593:Generated_Source\PSoC5/CapSense_CSHL.c ****     uint8 pos = (sensor >> 3u);
 462              		.loc 1 593 0
 463 0002 C408     		lsrs	r4, r0, #3
 464              	.LVL51:
 594:Generated_Source\PSoC5/CapSense_CSHL.c ****     uint8 onMask = 0x01u << (sensor & 0x07u);
 465              		.loc 1 594 0
 466 0004 00F00702 		and	r2, r0, #7
 467 0008 0123     		movs	r3, #1
 468 000a 9340     		lsls	r3, r3, r2
 469 000c DBB2     		uxtb	r3, r3
 470              	.LVL52:
 595:Generated_Source\PSoC5/CapSense_CSHL.c ****     /* Prepare to find debounce counter index */
 596:Generated_Source\PSoC5/CapSense_CSHL.c ****     uint8 widget = CapSense_widgetNumber[sensor];
 471              		.loc 1 596 0
 472 000e 1E4A     		ldr	r2, .L49
 473 0010 125C     		ldrb	r2, [r2, r0]	@ zero_extendqisi2
 474              	.LVL53:
 597:Generated_Source\PSoC5/CapSense_CSHL.c ****     uint8 fingerThreshold = CapSense_fingerThreshold[widget];
 475              		.loc 1 597 0
 476 0012 1E4D     		ldr	r5, .L49+4
 477 0014 AE18     		adds	r6, r5, r2
 478 0016 377A     		ldrb	r7, [r6, #8]	@ zero_extendqisi2
 479              	.LVL54:
 598:Generated_Source\PSoC5/CapSense_CSHL.c ****     uint8 hysteresis = CapSense_hysteresis[widget];
ARM GAS  C:\Users\HENRYA~1\AppData\Local\Temp\ccxNFFqA.s 			page 20


 480              		.loc 1 598 0
 481 0018 317B     		ldrb	r1, [r6, #12]	@ zero_extendqisi2
 482              	.LVL55:
 599:Generated_Source\PSoC5/CapSense_CSHL.c ****     uint8 debounce = CapSense_debounce[widget];
 483              		.loc 1 599 0
 484 001a AE5C     		ldrb	r6, [r5, r2]	@ zero_extendqisi2
 485              	.LVL56:
 600:Generated_Source\PSoC5/CapSense_CSHL.c ****     
 601:Generated_Source\PSoC5/CapSense_CSHL.c ****     if (widget < CapSense_TOTAL_CENTROIDS_COUNT)
 486              		.loc 1 601 0
 487 001c 22B9     		cbnz	r2, .L41
 488              	.LVL57:
 602:Generated_Source\PSoC5/CapSense_CSHL.c ****     {
 603:Generated_Source\PSoC5/CapSense_CSHL.c ****         debounceIndex = CapSense_UNUSED_DEBOUNCE_COUNTER_INDEX;
 604:Generated_Source\PSoC5/CapSense_CSHL.c ****         CapSense_debounceCounter[debounceIndex] = 1u;
 489              		.loc 1 604 0
 490 001e 0125     		movs	r5, #1
 491 0020 1B4A     		ldr	r2, .L49+8
 492              	.LVL58:
 493 0022 9570     		strb	r5, [r2, #2]
 603:Generated_Source\PSoC5/CapSense_CSHL.c ****         CapSense_debounceCounter[debounceIndex] = 1u;
 494              		.loc 1 603 0
 495 0024 0222     		movs	r2, #2
 496 0026 01E0     		b	.L42
 497              	.LVL59:
 498              	.L41:
 605:Generated_Source\PSoC5/CapSense_CSHL.c ****     }
 606:Generated_Source\PSoC5/CapSense_CSHL.c ****     else
 607:Generated_Source\PSoC5/CapSense_CSHL.c ****     {
 608:Generated_Source\PSoC5/CapSense_CSHL.c ****         debounceIndex = widget - (CapSense_END_OF_TOUCH_PAD_INDEX + 1);
 499              		.loc 1 608 0
 500 0028 013A     		subs	r2, r2, #1
 501              	.LVL60:
 502 002a D2B2     		uxtb	r2, r2
 503              	.LVL61:
 504              	.L42:
 609:Generated_Source\PSoC5/CapSense_CSHL.c ****     }
 610:Generated_Source\PSoC5/CapSense_CSHL.c **** 
 611:Generated_Source\PSoC5/CapSense_CSHL.c ****     
 612:Generated_Source\PSoC5/CapSense_CSHL.c ****     /* Was on */
 613:Generated_Source\PSoC5/CapSense_CSHL.c ****     if (0u != (CapSense_sensorOnMask[pos] & onMask))
 505              		.loc 1 613 0
 506 002c 194D     		ldr	r5, .L49+12
 507 002e 2D5D     		ldrb	r5, [r5, r4]	@ zero_extendqisi2
 508 0030 1D42     		tst	r5, r3
 509 0032 0DD0     		beq	.L43
 614:Generated_Source\PSoC5/CapSense_CSHL.c ****     {
 615:Generated_Source\PSoC5/CapSense_CSHL.c ****         /* Hysteresis minus */
 616:Generated_Source\PSoC5/CapSense_CSHL.c ****         if (CapSense_sensorSignal[sensor] < (fingerThreshold - hysteresis))
 510              		.loc 1 616 0
 511 0034 DFF860E0 		ldr	lr, .L49+16
 512 0038 1EF80000 		ldrb	r0, [lr, r0]	@ zero_extendqisi2
 513              	.LVL62:
 514 003c 791A     		subs	r1, r7, r1
 515              	.LVL63:
 516 003e 8842     		cmp	r0, r1
 517 0040 1BDA     		bge	.L44
ARM GAS  C:\Users\HENRYA~1\AppData\Local\Temp\ccxNFFqA.s 			page 21


 617:Generated_Source\PSoC5/CapSense_CSHL.c ****         {
 618:Generated_Source\PSoC5/CapSense_CSHL.c ****             CapSense_sensorOnMask[pos] &= (uint8)~onMask;
 518              		.loc 1 618 0
 519 0042 25EA0305 		bic	r5, r5, r3
 520 0046 1349     		ldr	r1, .L49+12
 521 0048 0D55     		strb	r5, [r1, r4]
 619:Generated_Source\PSoC5/CapSense_CSHL.c ****             CapSense_debounceCounter[debounceIndex] = debounce; 
 522              		.loc 1 619 0
 523 004a 1149     		ldr	r1, .L49+8
 524 004c 8E54     		strb	r6, [r1, r2]
 525 004e 14E0     		b	.L44
 526              	.LVL64:
 527              	.L43:
 620:Generated_Source\PSoC5/CapSense_CSHL.c ****         }
 621:Generated_Source\PSoC5/CapSense_CSHL.c ****     }
 622:Generated_Source\PSoC5/CapSense_CSHL.c ****     else    /* Was off */
 623:Generated_Source\PSoC5/CapSense_CSHL.c ****     {
 624:Generated_Source\PSoC5/CapSense_CSHL.c ****         /* Hysteresis plus */
 625:Generated_Source\PSoC5/CapSense_CSHL.c ****         if (CapSense_sensorSignal[sensor] > (fingerThreshold + hysteresis))
 528              		.loc 1 625 0
 529 0050 DFF844E0 		ldr	lr, .L49+16
 530 0054 1EF80000 		ldrb	r0, [lr, r0]	@ zero_extendqisi2
 531              	.LVL65:
 532 0058 3944     		add	r1, r1, r7
 533              	.LVL66:
 534 005a 8842     		cmp	r0, r1
 535 005c 0BDD     		ble	.L45
 626:Generated_Source\PSoC5/CapSense_CSHL.c ****         {
 627:Generated_Source\PSoC5/CapSense_CSHL.c ****             /* Sensor active, decrement debounce counter */
 628:Generated_Source\PSoC5/CapSense_CSHL.c ****             if (CapSense_debounceCounter[debounceIndex] <= 1u)
 536              		.loc 1 628 0
 537 005e 1146     		mov	r1, r2
 538 0060 0B48     		ldr	r0, .L49+8
 539 0062 825C     		ldrb	r2, [r0, r2]	@ zero_extendqisi2
 540              	.LVL67:
 541 0064 012A     		cmp	r2, #1
 542 0066 02D8     		bhi	.L46
 629:Generated_Source\PSoC5/CapSense_CSHL.c ****             {
 630:Generated_Source\PSoC5/CapSense_CSHL.c ****                 CapSense_sensorOnMask[pos] |= onMask; 
 543              		.loc 1 630 0
 544 0068 1D43     		orrs	r5, r5, r3
 545 006a 0A48     		ldr	r0, .L49+12
 546 006c 0555     		strb	r5, [r0, r4]
 547              	.L46:
 631:Generated_Source\PSoC5/CapSense_CSHL.c ****             }
 632:Generated_Source\PSoC5/CapSense_CSHL.c ****             CapSense_debounceCounter[debounceIndex]--;
 548              		.loc 1 632 0
 549 006e 013A     		subs	r2, r2, #1
 550 0070 0748     		ldr	r0, .L49+8
 551 0072 4254     		strb	r2, [r0, r1]
 552 0074 01E0     		b	.L44
 553              	.LVL68:
 554              	.L45:
 633:Generated_Source\PSoC5/CapSense_CSHL.c ****         }
 634:Generated_Source\PSoC5/CapSense_CSHL.c ****         else
 635:Generated_Source\PSoC5/CapSense_CSHL.c ****         {
 636:Generated_Source\PSoC5/CapSense_CSHL.c ****             /* Sensor inactive - reset Debounce counter */
ARM GAS  C:\Users\HENRYA~1\AppData\Local\Temp\ccxNFFqA.s 			page 22


 637:Generated_Source\PSoC5/CapSense_CSHL.c ****             CapSense_debounceCounter[debounceIndex] = debounce;
 555              		.loc 1 637 0
 556 0076 0649     		ldr	r1, .L49+8
 557 0078 8E54     		strb	r6, [r1, r2]
 558              	.LVL69:
 559              	.L44:
 638:Generated_Source\PSoC5/CapSense_CSHL.c ****         }
 639:Generated_Source\PSoC5/CapSense_CSHL.c ****     }
 640:Generated_Source\PSoC5/CapSense_CSHL.c ****     
 641:Generated_Source\PSoC5/CapSense_CSHL.c ****     return (((CapSense_sensorOnMask[pos] & onMask) != 0u) ? 1u : 0u);
 560              		.loc 1 641 0
 561 007a 064A     		ldr	r2, .L49+12
 562 007c 105D     		ldrb	r0, [r2, r4]	@ zero_extendqisi2
 563 007e 1840     		ands	r0, r0, r3
 564 0080 00D0     		beq	.L47
 565 0082 0120     		movs	r0, #1
 566              	.L47:
 642:Generated_Source\PSoC5/CapSense_CSHL.c **** }
 567              		.loc 1 642 0 discriminator 4
 568 0084 F0BD     		pop	{r4, r5, r6, r7, pc}
 569              	.LVL70:
 570              	.L50:
 571 0086 00BF     		.align	2
 572              	.L49:
 573 0088 00000000 		.word	CapSense_widgetNumber
 574 008c 00000000 		.word	.LANCHOR0
 575 0090 00000000 		.word	.LANCHOR1
 576 0094 00000000 		.word	CapSense_sensorOnMask
 577 0098 00000000 		.word	CapSense_sensorSignal
 578              		.cfi_endproc
 579              	.LFE6:
 580              		.size	CapSense_CheckIsSensorActive, .-CapSense_CheckIsSensorActive
 581              		.section	.text.CapSense_CheckIsWidgetActive,"ax",%progbits
 582              		.align	2
 583              		.global	CapSense_CheckIsWidgetActive
 584              		.thumb
 585              		.thumb_func
 586              		.type	CapSense_CheckIsWidgetActive, %function
 587              	CapSense_CheckIsWidgetActive:
 588              	.LFB7:
 643:Generated_Source\PSoC5/CapSense_CSHL.c **** 
 644:Generated_Source\PSoC5/CapSense_CSHL.c **** 
 645:Generated_Source\PSoC5/CapSense_CSHL.c **** /*******************************************************************************
 646:Generated_Source\PSoC5/CapSense_CSHL.c **** * Function Name: CapSense_CheckIsWidgetActive
 647:Generated_Source\PSoC5/CapSense_CSHL.c **** ********************************************************************************
 648:Generated_Source\PSoC5/CapSense_CSHL.c **** *
 649:Generated_Source\PSoC5/CapSense_CSHL.c **** * Summary:
 650:Generated_Source\PSoC5/CapSense_CSHL.c **** *  Use function CapSense_CheckIsSensorActive() to update 
 651:Generated_Source\PSoC5/CapSense_CSHL.c **** *  CapSense_sensorOnMask[] for all sensors within the widget.
 652:Generated_Source\PSoC5/CapSense_CSHL.c **** *  If one of sensors within widget is active the function return that widget is 
 653:Generated_Source\PSoC5/CapSense_CSHL.c **** *  active.
 654:Generated_Source\PSoC5/CapSense_CSHL.c **** *  The touch pad and matrix buttons widgets need to have active sensor within 
 655:Generated_Source\PSoC5/CapSense_CSHL.c **** *  col and row to return widget active status.
 656:Generated_Source\PSoC5/CapSense_CSHL.c **** *
 657:Generated_Source\PSoC5/CapSense_CSHL.c **** * Parameters:
 658:Generated_Source\PSoC5/CapSense_CSHL.c **** *  widget:  widget number.
 659:Generated_Source\PSoC5/CapSense_CSHL.c **** *
ARM GAS  C:\Users\HENRYA~1\AppData\Local\Temp\ccxNFFqA.s 			page 23


 660:Generated_Source\PSoC5/CapSense_CSHL.c **** * Return:
 661:Generated_Source\PSoC5/CapSense_CSHL.c **** *  Returns widget sensor state 1 if one or more sensors within widget is/are 
 662:Generated_Source\PSoC5/CapSense_CSHL.c **** *  active, 0 if all sensors within widget are inactive.
 663:Generated_Source\PSoC5/CapSense_CSHL.c **** *
 664:Generated_Source\PSoC5/CapSense_CSHL.c **** * Reentrant:
 665:Generated_Source\PSoC5/CapSense_CSHL.c **** *  No
 666:Generated_Source\PSoC5/CapSense_CSHL.c **** *
 667:Generated_Source\PSoC5/CapSense_CSHL.c **** *******************************************************************************/
 668:Generated_Source\PSoC5/CapSense_CSHL.c **** uint8 CapSense_CheckIsWidgetActive(uint8 widget)
 669:Generated_Source\PSoC5/CapSense_CSHL.c ****                                  
 670:Generated_Source\PSoC5/CapSense_CSHL.c **** {
 589              		.loc 1 670 0
 590              		.cfi_startproc
 591              		@ args = 0, pretend = 0, frame = 0
 592              		@ frame_needed = 0, uses_anonymous_args = 0
 593              	.LVL71:
 594 0000 70B5     		push	{r4, r5, r6, lr}
 595              		.cfi_def_cfa_offset 16
 596              		.cfi_offset 4, -16
 597              		.cfi_offset 5, -12
 598              		.cfi_offset 6, -8
 599              		.cfi_offset 14, -4
 671:Generated_Source\PSoC5/CapSense_CSHL.c ****     uint8 rawIndex = CapSense_rawDataIndex[widget];
 600              		.loc 1 671 0
 601 0002 094B     		ldr	r3, .L56
 602 0004 1C5C     		ldrb	r4, [r3, r0]	@ zero_extendqisi2
 603              	.LVL72:
 672:Generated_Source\PSoC5/CapSense_CSHL.c ****     uint8 numberOfSensors = CapSense_numberOfSensors[widget] + rawIndex;
 604              		.loc 1 672 0
 605 0006 1844     		add	r0, r0, r3
 606              	.LVL73:
 607 0008 0579     		ldrb	r5, [r0, #4]	@ zero_extendqisi2
 608 000a 2544     		add	r5, r5, r4
 609 000c EDB2     		uxtb	r5, r5
 610              	.LVL74:
 673:Generated_Source\PSoC5/CapSense_CSHL.c ****     uint8 state = 0u;
 611              		.loc 1 673 0
 612 000e 0026     		movs	r6, #0
 613              	.LVL75:
 614              	.L53:
 674:Generated_Source\PSoC5/CapSense_CSHL.c **** 
 675:Generated_Source\PSoC5/CapSense_CSHL.c ****     /* Check all sensors of the widget */
 676:Generated_Source\PSoC5/CapSense_CSHL.c ****     do
 677:Generated_Source\PSoC5/CapSense_CSHL.c ****     {
 678:Generated_Source\PSoC5/CapSense_CSHL.c ****         if(CapSense_CheckIsSensorActive(rawIndex) != 0u)
 615              		.loc 1 678 0
 616 0010 2046     		mov	r0, r4
 617 0012 FFF7FEFF 		bl	CapSense_CheckIsSensorActive
 618              	.LVL76:
 619 0016 00B1     		cbz	r0, .L52
 679:Generated_Source\PSoC5/CapSense_CSHL.c ****         {
 680:Generated_Source\PSoC5/CapSense_CSHL.c ****             state = CapSense_SENSOR_1_IS_ACTIVE;
 620              		.loc 1 680 0
 621 0018 0126     		movs	r6, #1
 622              	.LVL77:
 623              	.L52:
 681:Generated_Source\PSoC5/CapSense_CSHL.c ****         }
ARM GAS  C:\Users\HENRYA~1\AppData\Local\Temp\ccxNFFqA.s 			page 24


 682:Generated_Source\PSoC5/CapSense_CSHL.c ****         rawIndex++;
 624              		.loc 1 682 0
 625 001a 0134     		adds	r4, r4, #1
 626              	.LVL78:
 627 001c E4B2     		uxtb	r4, r4
 628              	.LVL79:
 683:Generated_Source\PSoC5/CapSense_CSHL.c ****     }
 684:Generated_Source\PSoC5/CapSense_CSHL.c ****     while(rawIndex < numberOfSensors);
 629              		.loc 1 684 0
 630 001e AC42     		cmp	r4, r5
 631 0020 F6D3     		bcc	.L53
 685:Generated_Source\PSoC5/CapSense_CSHL.c ****     
 686:Generated_Source\PSoC5/CapSense_CSHL.c **** 
 687:Generated_Source\PSoC5/CapSense_CSHL.c ****     
 688:Generated_Source\PSoC5/CapSense_CSHL.c ****     return (state);
 689:Generated_Source\PSoC5/CapSense_CSHL.c **** }
 632              		.loc 1 689 0
 633 0022 3046     		mov	r0, r6
 634 0024 70BD     		pop	{r4, r5, r6, pc}
 635              	.LVL80:
 636              	.L57:
 637 0026 00BF     		.align	2
 638              	.L56:
 639 0028 00000000 		.word	.LANCHOR2
 640              		.cfi_endproc
 641              	.LFE7:
 642              		.size	CapSense_CheckIsWidgetActive, .-CapSense_CheckIsWidgetActive
 643              		.section	.text.CapSense_CheckIsAnyWidgetActive,"ax",%progbits
 644              		.align	2
 645              		.global	CapSense_CheckIsAnyWidgetActive
 646              		.thumb
 647              		.thumb_func
 648              		.type	CapSense_CheckIsAnyWidgetActive, %function
 649              	CapSense_CheckIsAnyWidgetActive:
 650              	.LFB8:
 690:Generated_Source\PSoC5/CapSense_CSHL.c **** 
 691:Generated_Source\PSoC5/CapSense_CSHL.c **** 
 692:Generated_Source\PSoC5/CapSense_CSHL.c **** /*******************************************************************************
 693:Generated_Source\PSoC5/CapSense_CSHL.c **** * Function Name: CapSense_CheckIsAnyWidgetActive
 694:Generated_Source\PSoC5/CapSense_CSHL.c **** ********************************************************************************
 695:Generated_Source\PSoC5/CapSense_CSHL.c **** *
 696:Generated_Source\PSoC5/CapSense_CSHL.c **** * Summary:
 697:Generated_Source\PSoC5/CapSense_CSHL.c **** *  Compares all sensors of the CapSense_signal[] array to their finger 
 698:Generated_Source\PSoC5/CapSense_CSHL.c **** *  threshold. Calls CapSense_CheckIsWidgetActive() for each widget so 
 699:Generated_Source\PSoC5/CapSense_CSHL.c **** *  the CapSense_SensorOnMask[] array is up to date after calling this 
 700:Generated_Source\PSoC5/CapSense_CSHL.c **** *  function.
 701:Generated_Source\PSoC5/CapSense_CSHL.c **** *
 702:Generated_Source\PSoC5/CapSense_CSHL.c **** * Parameters:
 703:Generated_Source\PSoC5/CapSense_CSHL.c **** *  widget:  widget number.
 704:Generated_Source\PSoC5/CapSense_CSHL.c **** *
 705:Generated_Source\PSoC5/CapSense_CSHL.c **** * Return:
 706:Generated_Source\PSoC5/CapSense_CSHL.c **** *  Returns 1 if any widget is active, 0 none of widgets are active.
 707:Generated_Source\PSoC5/CapSense_CSHL.c **** *
 708:Generated_Source\PSoC5/CapSense_CSHL.c **** * Reentrant:
 709:Generated_Source\PSoC5/CapSense_CSHL.c **** *  No
 710:Generated_Source\PSoC5/CapSense_CSHL.c **** *
 711:Generated_Source\PSoC5/CapSense_CSHL.c **** *******************************************************************************/
ARM GAS  C:\Users\HENRYA~1\AppData\Local\Temp\ccxNFFqA.s 			page 25


 712:Generated_Source\PSoC5/CapSense_CSHL.c **** uint8 CapSense_CheckIsAnyWidgetActive(void)
 713:Generated_Source\PSoC5/CapSense_CSHL.c ****                                  
 714:Generated_Source\PSoC5/CapSense_CSHL.c **** {
 651              		.loc 1 714 0
 652              		.cfi_startproc
 653              		@ args = 0, pretend = 0, frame = 0
 654              		@ frame_needed = 0, uses_anonymous_args = 0
 655 0000 38B5     		push	{r3, r4, r5, lr}
 656              		.cfi_def_cfa_offset 16
 657              		.cfi_offset 3, -16
 658              		.cfi_offset 4, -12
 659              		.cfi_offset 5, -8
 660              		.cfi_offset 14, -4
 661              	.LVL81:
 715:Generated_Source\PSoC5/CapSense_CSHL.c ****     uint8 i;
 716:Generated_Source\PSoC5/CapSense_CSHL.c ****     uint8 state = 0u;
 662              		.loc 1 716 0
 663 0002 0025     		movs	r5, #0
 717:Generated_Source\PSoC5/CapSense_CSHL.c ****     
 718:Generated_Source\PSoC5/CapSense_CSHL.c ****     for(i = 0u; i < CapSense_TOTAL_WIDGET_COUNT; i++)
 664              		.loc 1 718 0
 665 0004 2C46     		mov	r4, r5
 666 0006 06E0     		b	.L59
 667              	.LVL82:
 668              	.L61:
 719:Generated_Source\PSoC5/CapSense_CSHL.c ****     {
 720:Generated_Source\PSoC5/CapSense_CSHL.c ****         if (CapSense_CheckIsWidgetActive(i) != 0u)
 669              		.loc 1 720 0
 670 0008 2046     		mov	r0, r4
 671 000a FFF7FEFF 		bl	CapSense_CheckIsWidgetActive
 672              	.LVL83:
 673 000e 00B1     		cbz	r0, .L60
 721:Generated_Source\PSoC5/CapSense_CSHL.c ****         {
 722:Generated_Source\PSoC5/CapSense_CSHL.c ****             state = CapSense_WIDGET_IS_ACTIVE;
 674              		.loc 1 722 0
 675 0010 0125     		movs	r5, #1
 676              	.LVL84:
 677              	.L60:
 718:Generated_Source\PSoC5/CapSense_CSHL.c ****     {
 678              		.loc 1 718 0 discriminator 2
 679 0012 0134     		adds	r4, r4, #1
 680              	.LVL85:
 681 0014 E4B2     		uxtb	r4, r4
 682              	.LVL86:
 683              	.L59:
 718:Generated_Source\PSoC5/CapSense_CSHL.c ****     {
 684              		.loc 1 718 0 is_stmt 0 discriminator 1
 685 0016 022C     		cmp	r4, #2
 686 0018 F6D9     		bls	.L61
 723:Generated_Source\PSoC5/CapSense_CSHL.c ****         }
 724:Generated_Source\PSoC5/CapSense_CSHL.c ****     }
 725:Generated_Source\PSoC5/CapSense_CSHL.c ****     
 726:Generated_Source\PSoC5/CapSense_CSHL.c **** 
 727:Generated_Source\PSoC5/CapSense_CSHL.c ****     return (state);
 728:Generated_Source\PSoC5/CapSense_CSHL.c **** }
 687              		.loc 1 728 0 is_stmt 1
 688 001a 2846     		mov	r0, r5
ARM GAS  C:\Users\HENRYA~1\AppData\Local\Temp\ccxNFFqA.s 			page 26


 689 001c 38BD     		pop	{r3, r4, r5, pc}
 690              		.cfi_endproc
 691              	.LFE8:
 692              		.size	CapSense_CheckIsAnyWidgetActive, .-CapSense_CheckIsAnyWidgetActive
 693 001e 00BF     		.section	.text.CapSense_EnableWidget,"ax",%progbits
 694              		.align	2
 695              		.global	CapSense_EnableWidget
 696              		.thumb
 697              		.thumb_func
 698              		.type	CapSense_EnableWidget, %function
 699              	CapSense_EnableWidget:
 700              	.LFB9:
 729:Generated_Source\PSoC5/CapSense_CSHL.c **** 
 730:Generated_Source\PSoC5/CapSense_CSHL.c **** 
 731:Generated_Source\PSoC5/CapSense_CSHL.c **** /*******************************************************************************
 732:Generated_Source\PSoC5/CapSense_CSHL.c **** * Function Name: CapSense_EnableWidget
 733:Generated_Source\PSoC5/CapSense_CSHL.c **** ********************************************************************************
 734:Generated_Source\PSoC5/CapSense_CSHL.c **** *
 735:Generated_Source\PSoC5/CapSense_CSHL.c **** * Summary:
 736:Generated_Source\PSoC5/CapSense_CSHL.c **** *  Enable all widget elements (sensors) to scanning process.
 737:Generated_Source\PSoC5/CapSense_CSHL.c **** *
 738:Generated_Source\PSoC5/CapSense_CSHL.c **** * Parameters:
 739:Generated_Source\PSoC5/CapSense_CSHL.c **** *  widget:  widget number.
 740:Generated_Source\PSoC5/CapSense_CSHL.c **** *
 741:Generated_Source\PSoC5/CapSense_CSHL.c **** * Return:
 742:Generated_Source\PSoC5/CapSense_CSHL.c **** *  None
 743:Generated_Source\PSoC5/CapSense_CSHL.c **** *
 744:Generated_Source\PSoC5/CapSense_CSHL.c **** * Global Variables:
 745:Generated_Source\PSoC5/CapSense_CSHL.c **** *  CapSense_sensorEnableMask[] - used to store the sensor scanning 
 746:Generated_Source\PSoC5/CapSense_CSHL.c **** *  state.
 747:Generated_Source\PSoC5/CapSense_CSHL.c **** *  CapSense_sensorEnableMask[0] contains the masked bits for sensors 
 748:Generated_Source\PSoC5/CapSense_CSHL.c **** *  0 through 7 (sensor 0 is bit 0, sensor 1 is bit 1).
 749:Generated_Source\PSoC5/CapSense_CSHL.c **** *  CapSense_sensorEnableMask[1] contains the masked bits for 
 750:Generated_Source\PSoC5/CapSense_CSHL.c **** *  sensors 8 through 15 (if needed), and so on.
 751:Generated_Source\PSoC5/CapSense_CSHL.c **** *  0 - sensor doesn't scan by CapSense_ScanEnabledWidgets().
 752:Generated_Source\PSoC5/CapSense_CSHL.c **** *  1 - sensor scans by CapSense_ScanEnabledWidgets().
 753:Generated_Source\PSoC5/CapSense_CSHL.c **** *
 754:Generated_Source\PSoC5/CapSense_CSHL.c **** * Reentrant:
 755:Generated_Source\PSoC5/CapSense_CSHL.c **** *  No
 756:Generated_Source\PSoC5/CapSense_CSHL.c **** *
 757:Generated_Source\PSoC5/CapSense_CSHL.c **** *******************************************************************************/
 758:Generated_Source\PSoC5/CapSense_CSHL.c **** void CapSense_EnableWidget(uint8 widget)
 759:Generated_Source\PSoC5/CapSense_CSHL.c ****                                    
 760:Generated_Source\PSoC5/CapSense_CSHL.c **** {
 701              		.loc 1 760 0
 702              		.cfi_startproc
 703              		@ args = 0, pretend = 0, frame = 0
 704              		@ frame_needed = 0, uses_anonymous_args = 0
 705              		@ link register save eliminated.
 706              	.LVL87:
 707 0000 30B4     		push	{r4, r5}
 708              		.cfi_def_cfa_offset 8
 709              		.cfi_offset 4, -8
 710              		.cfi_offset 5, -4
 761:Generated_Source\PSoC5/CapSense_CSHL.c ****     uint8 pos;
 762:Generated_Source\PSoC5/CapSense_CSHL.c ****     uint8 enMask;
 763:Generated_Source\PSoC5/CapSense_CSHL.c ****     uint8 rawIndex = CapSense_rawDataIndex[widget];
ARM GAS  C:\Users\HENRYA~1\AppData\Local\Temp\ccxNFFqA.s 			page 27


 711              		.loc 1 763 0
 712 0002 0A4A     		ldr	r2, .L67
 713 0004 135C     		ldrb	r3, [r2, r0]	@ zero_extendqisi2
 714              	.LVL88:
 764:Generated_Source\PSoC5/CapSense_CSHL.c ****     uint8 numberOfSensors = CapSense_numberOfSensors[widget] + rawIndex;
 715              		.loc 1 764 0
 716 0006 1044     		add	r0, r0, r2
 717              	.LVL89:
 718 0008 0579     		ldrb	r5, [r0, #4]	@ zero_extendqisi2
 719 000a 1D44     		add	r5, r5, r3
 720 000c EDB2     		uxtb	r5, r5
 721              	.LVL90:
 722              	.L65:
 765:Generated_Source\PSoC5/CapSense_CSHL.c ****     
 766:Generated_Source\PSoC5/CapSense_CSHL.c ****     /* Enable all sensors of the widget */
 767:Generated_Source\PSoC5/CapSense_CSHL.c ****     do
 768:Generated_Source\PSoC5/CapSense_CSHL.c ****     {
 769:Generated_Source\PSoC5/CapSense_CSHL.c ****         pos = (rawIndex >> 3u);
 723              		.loc 1 769 0 discriminator 1
 724 000e D808     		lsrs	r0, r3, #3
 725              	.LVL91:
 770:Generated_Source\PSoC5/CapSense_CSHL.c ****         enMask = 0x01u << (rawIndex & 0x07u);
 726              		.loc 1 770 0 discriminator 1
 727 0010 03F00701 		and	r1, r3, #7
 728 0014 0122     		movs	r2, #1
 729 0016 8A40     		lsls	r2, r2, r1
 730              	.LVL92:
 771:Generated_Source\PSoC5/CapSense_CSHL.c ****         
 772:Generated_Source\PSoC5/CapSense_CSHL.c ****         CapSense_sensorEnableMask[pos] |= enMask;
 731              		.loc 1 772 0 discriminator 1
 732 0018 054C     		ldr	r4, .L67+4
 733 001a 215C     		ldrb	r1, [r4, r0]	@ zero_extendqisi2
 734 001c 0A43     		orrs	r2, r2, r1
 735              	.LVL93:
 736 001e 2254     		strb	r2, [r4, r0]
 773:Generated_Source\PSoC5/CapSense_CSHL.c ****         rawIndex++;
 737              		.loc 1 773 0 discriminator 1
 738 0020 0133     		adds	r3, r3, #1
 739              	.LVL94:
 740 0022 DBB2     		uxtb	r3, r3
 741              	.LVL95:
 774:Generated_Source\PSoC5/CapSense_CSHL.c ****     }
 775:Generated_Source\PSoC5/CapSense_CSHL.c ****     while(rawIndex < numberOfSensors);
 742              		.loc 1 775 0 discriminator 1
 743 0024 AB42     		cmp	r3, r5
 744 0026 F2D3     		bcc	.L65
 776:Generated_Source\PSoC5/CapSense_CSHL.c ****     
 777:Generated_Source\PSoC5/CapSense_CSHL.c **** 
 778:Generated_Source\PSoC5/CapSense_CSHL.c **** }
 745              		.loc 1 778 0
 746 0028 30BC     		pop	{r4, r5}
 747              		.cfi_restore 5
 748              		.cfi_restore 4
 749              		.cfi_def_cfa_offset 0
 750              	.LVL96:
 751 002a 7047     		bx	lr
 752              	.L68:
ARM GAS  C:\Users\HENRYA~1\AppData\Local\Temp\ccxNFFqA.s 			page 28


 753              		.align	2
 754              	.L67:
 755 002c 00000000 		.word	.LANCHOR2
 756 0030 00000000 		.word	CapSense_sensorEnableMask
 757              		.cfi_endproc
 758              	.LFE9:
 759              		.size	CapSense_EnableWidget, .-CapSense_EnableWidget
 760              		.section	.text.CapSense_DisableWidget,"ax",%progbits
 761              		.align	2
 762              		.global	CapSense_DisableWidget
 763              		.thumb
 764              		.thumb_func
 765              		.type	CapSense_DisableWidget, %function
 766              	CapSense_DisableWidget:
 767              	.LFB10:
 779:Generated_Source\PSoC5/CapSense_CSHL.c **** 
 780:Generated_Source\PSoC5/CapSense_CSHL.c **** 
 781:Generated_Source\PSoC5/CapSense_CSHL.c **** /*******************************************************************************
 782:Generated_Source\PSoC5/CapSense_CSHL.c **** * Function Name: CapSense_DisableWidget
 783:Generated_Source\PSoC5/CapSense_CSHL.c **** ********************************************************************************
 784:Generated_Source\PSoC5/CapSense_CSHL.c **** *
 785:Generated_Source\PSoC5/CapSense_CSHL.c **** * Summary:
 786:Generated_Source\PSoC5/CapSense_CSHL.c **** *  Disable all widget elements (sensors) from scanning process.
 787:Generated_Source\PSoC5/CapSense_CSHL.c **** *
 788:Generated_Source\PSoC5/CapSense_CSHL.c **** * Parameters:
 789:Generated_Source\PSoC5/CapSense_CSHL.c **** *  widget:  widget number.
 790:Generated_Source\PSoC5/CapSense_CSHL.c **** *
 791:Generated_Source\PSoC5/CapSense_CSHL.c **** * Return:
 792:Generated_Source\PSoC5/CapSense_CSHL.c **** *  None
 793:Generated_Source\PSoC5/CapSense_CSHL.c **** *
 794:Generated_Source\PSoC5/CapSense_CSHL.c **** * Global Variables:
 795:Generated_Source\PSoC5/CapSense_CSHL.c **** *  CapSense_sensorEnableMask[] - used to store the sensor scanning 
 796:Generated_Source\PSoC5/CapSense_CSHL.c **** *  state.
 797:Generated_Source\PSoC5/CapSense_CSHL.c **** *  CapSense_sensorEnableMask[0] contains the masked bits for sensors 
 798:Generated_Source\PSoC5/CapSense_CSHL.c **** *  0 through 7 (sensor 0 is bit 0, sensor 1 is bit 1).
 799:Generated_Source\PSoC5/CapSense_CSHL.c **** *  CapSense_sensorEnableMask[1] contains the masked bits for 
 800:Generated_Source\PSoC5/CapSense_CSHL.c **** *  sensors 8 through 15 (if needed), and so on.
 801:Generated_Source\PSoC5/CapSense_CSHL.c **** *  0 - sensor doesn't scan by CapSense_ScanEnabledWidgets().
 802:Generated_Source\PSoC5/CapSense_CSHL.c **** *  1 - sensor scans by CapSense_ScanEnabledWidgets().
 803:Generated_Source\PSoC5/CapSense_CSHL.c **** *
 804:Generated_Source\PSoC5/CapSense_CSHL.c **** * Reentrant:
 805:Generated_Source\PSoC5/CapSense_CSHL.c **** *  No
 806:Generated_Source\PSoC5/CapSense_CSHL.c **** *
 807:Generated_Source\PSoC5/CapSense_CSHL.c **** *******************************************************************************/
 808:Generated_Source\PSoC5/CapSense_CSHL.c **** void CapSense_DisableWidget(uint8 widget)
 809:Generated_Source\PSoC5/CapSense_CSHL.c ****                                     
 810:Generated_Source\PSoC5/CapSense_CSHL.c **** {
 768              		.loc 1 810 0
 769              		.cfi_startproc
 770              		@ args = 0, pretend = 0, frame = 0
 771              		@ frame_needed = 0, uses_anonymous_args = 0
 772              		@ link register save eliminated.
 773              	.LVL97:
 774 0000 30B4     		push	{r4, r5}
 775              		.cfi_def_cfa_offset 8
 776              		.cfi_offset 4, -8
 777              		.cfi_offset 5, -4
ARM GAS  C:\Users\HENRYA~1\AppData\Local\Temp\ccxNFFqA.s 			page 29


 811:Generated_Source\PSoC5/CapSense_CSHL.c ****     uint8 pos;
 812:Generated_Source\PSoC5/CapSense_CSHL.c ****     uint8 enMask;
 813:Generated_Source\PSoC5/CapSense_CSHL.c ****     uint8 rawIndex = CapSense_rawDataIndex[widget];
 778              		.loc 1 813 0
 779 0002 0B4A     		ldr	r2, .L72
 780 0004 135C     		ldrb	r3, [r2, r0]	@ zero_extendqisi2
 781              	.LVL98:
 814:Generated_Source\PSoC5/CapSense_CSHL.c ****     uint8 numberOfSensors = CapSense_numberOfSensors[widget] + rawIndex;
 782              		.loc 1 814 0
 783 0006 1044     		add	r0, r0, r2
 784              	.LVL99:
 785 0008 0579     		ldrb	r5, [r0, #4]	@ zero_extendqisi2
 786 000a 1D44     		add	r5, r5, r3
 787 000c EDB2     		uxtb	r5, r5
 788              	.LVL100:
 789              	.L70:
 815:Generated_Source\PSoC5/CapSense_CSHL.c ****    
 816:Generated_Source\PSoC5/CapSense_CSHL.c ****     /* Disable all sensors of the widget */
 817:Generated_Source\PSoC5/CapSense_CSHL.c ****     do
 818:Generated_Source\PSoC5/CapSense_CSHL.c ****     {
 819:Generated_Source\PSoC5/CapSense_CSHL.c ****         pos = (rawIndex >> 3u);
 790              		.loc 1 819 0 discriminator 1
 791 000e D808     		lsrs	r0, r3, #3
 792              	.LVL101:
 820:Generated_Source\PSoC5/CapSense_CSHL.c ****         enMask = 0x01u << (rawIndex & 0x07u);
 793              		.loc 1 820 0 discriminator 1
 794 0010 03F00701 		and	r1, r3, #7
 795 0014 0122     		movs	r2, #1
 796 0016 8A40     		lsls	r2, r2, r1
 797              	.LVL102:
 821:Generated_Source\PSoC5/CapSense_CSHL.c ****         
 822:Generated_Source\PSoC5/CapSense_CSHL.c ****         CapSense_sensorEnableMask[pos] &= (uint8)~enMask;
 798              		.loc 1 822 0 discriminator 1
 799 0018 064C     		ldr	r4, .L72+4
 800 001a 215C     		ldrb	r1, [r4, r0]	@ zero_extendqisi2
 801 001c 21EA0202 		bic	r2, r1, r2
 802              	.LVL103:
 803 0020 2254     		strb	r2, [r4, r0]
 823:Generated_Source\PSoC5/CapSense_CSHL.c ****         rawIndex++;
 804              		.loc 1 823 0 discriminator 1
 805 0022 0133     		adds	r3, r3, #1
 806              	.LVL104:
 807 0024 DBB2     		uxtb	r3, r3
 808              	.LVL105:
 824:Generated_Source\PSoC5/CapSense_CSHL.c ****     }
 825:Generated_Source\PSoC5/CapSense_CSHL.c ****     while(rawIndex < numberOfSensors);
 809              		.loc 1 825 0 discriminator 1
 810 0026 AB42     		cmp	r3, r5
 811 0028 F1D3     		bcc	.L70
 826:Generated_Source\PSoC5/CapSense_CSHL.c ****     
 827:Generated_Source\PSoC5/CapSense_CSHL.c **** 
 828:Generated_Source\PSoC5/CapSense_CSHL.c **** }
 812              		.loc 1 828 0
 813 002a 30BC     		pop	{r4, r5}
 814              		.cfi_restore 5
 815              		.cfi_restore 4
 816              		.cfi_def_cfa_offset 0
ARM GAS  C:\Users\HENRYA~1\AppData\Local\Temp\ccxNFFqA.s 			page 30


 817              	.LVL106:
 818 002c 7047     		bx	lr
 819              	.L73:
 820 002e 00BF     		.align	2
 821              	.L72:
 822 0030 00000000 		.word	.LANCHOR2
 823 0034 00000000 		.word	CapSense_sensorEnableMask
 824              		.cfi_endproc
 825              	.LFE10:
 826              		.size	CapSense_DisableWidget, .-CapSense_DisableWidget
 827              		.section	.text.CapSense_FindMaximum,"ax",%progbits
 828              		.align	2
 829              		.global	CapSense_FindMaximum
 830              		.thumb
 831              		.thumb_func
 832              		.type	CapSense_FindMaximum, %function
 833              	CapSense_FindMaximum:
 834              	.LFB11:
 829:Generated_Source\PSoC5/CapSense_CSHL.c **** #if(CapSense_TOTAL_CENTROIDS_COUNT)
 830:Generated_Source\PSoC5/CapSense_CSHL.c ****     /*******************************************************************************
 831:Generated_Source\PSoC5/CapSense_CSHL.c ****     * Function Name: CapSense_FindMaximum
 832:Generated_Source\PSoC5/CapSense_CSHL.c ****     ********************************************************************************
 833:Generated_Source\PSoC5/CapSense_CSHL.c ****     *
 834:Generated_Source\PSoC5/CapSense_CSHL.c ****     * Summary:
 835:Generated_Source\PSoC5/CapSense_CSHL.c ****     *  Finds index of maximum element within defined centroid. Checks 
 836:Generated_Source\PSoC5/CapSense_CSHL.c ****     *  CapSense_SensorSignal[] within defined cenrtoid and 
 837:Generated_Source\PSoC5/CapSense_CSHL.c ****     *  returns index of maximum element. The values below finger threshold are 
 838:Generated_Source\PSoC5/CapSense_CSHL.c ****     *  ignored.
 839:Generated_Source\PSoC5/CapSense_CSHL.c ****     *  The centrod defines by offset of first element and number of elements - count.
 840:Generated_Source\PSoC5/CapSense_CSHL.c ****     *  The diplexed centroid requires at least consecutive two elements above
 841:Generated_Source\PSoC5/CapSense_CSHL.c ****     *  FingerThreshold to find index of maximum element.
 842:Generated_Source\PSoC5/CapSense_CSHL.c ****     * 
 843:Generated_Source\PSoC5/CapSense_CSHL.c ****     * Parameters:
 844:Generated_Source\PSoC5/CapSense_CSHL.c ****     *  offset:  Start index of cetroid in CapSense_sensorSignal[] array.
 845:Generated_Source\PSoC5/CapSense_CSHL.c ****     *  count:   number of elements within centroid.
 846:Generated_Source\PSoC5/CapSense_CSHL.c ****     *  fingerThreshold:  Finger threshould.
 847:Generated_Source\PSoC5/CapSense_CSHL.c ****     *  diplex:   pointer to diplex table.
 848:Generated_Source\PSoC5/CapSense_CSHL.c ****     * 
 849:Generated_Source\PSoC5/CapSense_CSHL.c ****     * Return:
 850:Generated_Source\PSoC5/CapSense_CSHL.c ****     *  Returns index of maximum element within defined centroid.
 851:Generated_Source\PSoC5/CapSense_CSHL.c ****     *  If index of maximum element doesn't find the 0xFF returns.
 852:Generated_Source\PSoC5/CapSense_CSHL.c ****     * 
 853:Generated_Source\PSoC5/CapSense_CSHL.c ****     *******************************************************************************/
 854:Generated_Source\PSoC5/CapSense_CSHL.c ****     #if (CapSense_IS_DIPLEX_SLIDER)
 855:Generated_Source\PSoC5/CapSense_CSHL.c ****         uint8 CapSense_FindMaximum(uint8 offset, uint8 count, uint8 fingerThreshold, const uint8 CY
 856:Generated_Source\PSoC5/CapSense_CSHL.c **** 	                                       
 857:Generated_Source\PSoC5/CapSense_CSHL.c ****     #else 
 858:Generated_Source\PSoC5/CapSense_CSHL.c ****         uint8 CapSense_FindMaximum(uint8 offset, uint8 count, uint8 fingerThreshold)
 859:Generated_Source\PSoC5/CapSense_CSHL.c **** 	                                       
 860:Generated_Source\PSoC5/CapSense_CSHL.c ****     #endif /* (CapSense_IS_DIPLEX_SLIDER) */
 861:Generated_Source\PSoC5/CapSense_CSHL.c ****     {
 835              		.loc 1 861 0
 836              		.cfi_startproc
 837              		@ args = 0, pretend = 0, frame = 0
 838              		@ frame_needed = 0, uses_anonymous_args = 0
 839              		@ link register save eliminated.
 840              	.LVL107:
ARM GAS  C:\Users\HENRYA~1\AppData\Local\Temp\ccxNFFqA.s 			page 31


 841 0000 70B4     		push	{r4, r5, r6}
 842              		.cfi_def_cfa_offset 12
 843              		.cfi_offset 4, -12
 844              		.cfi_offset 5, -8
 845              		.cfi_offset 6, -4
 846              	.LVL108:
 862:Generated_Source\PSoC5/CapSense_CSHL.c ****         uint8 i;
 863:Generated_Source\PSoC5/CapSense_CSHL.c ****         #if (CapSense_IS_DIPLEX_SLIDER)        
 864:Generated_Source\PSoC5/CapSense_CSHL.c ****             uint8 curPos = 0u;
 865:Generated_Source\PSoC5/CapSense_CSHL.c ****             /* No centroid at the Start */
 866:Generated_Source\PSoC5/CapSense_CSHL.c ****             uint8 curCntrdSize = 0u;
 867:Generated_Source\PSoC5/CapSense_CSHL.c ****             uint8 curCtrdStartPos = 0xFFu;
 868:Generated_Source\PSoC5/CapSense_CSHL.c ****             /* The biggset centroid is zero */
 869:Generated_Source\PSoC5/CapSense_CSHL.c ****             uint8 biggestCtrdSize = 0u;
 870:Generated_Source\PSoC5/CapSense_CSHL.c ****             uint8 biggestCtrdStartPos = 0u;
 871:Generated_Source\PSoC5/CapSense_CSHL.c ****         #endif /* (CapSense_IS_DIPLEX_SLIDER) */
 872:Generated_Source\PSoC5/CapSense_CSHL.c ****         uint8 maximum = 0xFFu;
 873:Generated_Source\PSoC5/CapSense_CSHL.c ****         uint8 temp = 0u;
 874:Generated_Source\PSoC5/CapSense_CSHL.c ****         uint8 *startOfSlider = &CapSense_sensorSignal[offset]; 
 847              		.loc 1 874 0
 848 0002 094D     		ldr	r5, .L80
 849 0004 0544     		add	r5, r5, r0
 850              	.LVL109:
 873:Generated_Source\PSoC5/CapSense_CSHL.c ****         uint8 *startOfSlider = &CapSense_sensorSignal[offset]; 
 851              		.loc 1 873 0
 852 0006 0026     		movs	r6, #0
 872:Generated_Source\PSoC5/CapSense_CSHL.c ****         uint8 temp = 0u;
 853              		.loc 1 872 0
 854 0008 FF20     		movs	r0, #255
 855              	.LVL110:
 875:Generated_Source\PSoC5/CapSense_CSHL.c **** 
 876:Generated_Source\PSoC5/CapSense_CSHL.c ****         #if (CapSense_IS_DIPLEX_SLIDER)        
 877:Generated_Source\PSoC5/CapSense_CSHL.c ****             if(diplex != 0u)
 878:Generated_Source\PSoC5/CapSense_CSHL.c ****             {
 879:Generated_Source\PSoC5/CapSense_CSHL.c ****                 /* Initialize */
 880:Generated_Source\PSoC5/CapSense_CSHL.c ****                 i = 0u;
 881:Generated_Source\PSoC5/CapSense_CSHL.c ****                 
 882:Generated_Source\PSoC5/CapSense_CSHL.c ****                 /* Make slider x2 as Diplexed */
 883:Generated_Source\PSoC5/CapSense_CSHL.c ****                 count <<= 1u;
 884:Generated_Source\PSoC5/CapSense_CSHL.c ****                 while(1u)
 885:Generated_Source\PSoC5/CapSense_CSHL.c ****                 { 
 886:Generated_Source\PSoC5/CapSense_CSHL.c ****                     if (startOfSlider[curPos] > 0u)    /* Looking for centroids */
 887:Generated_Source\PSoC5/CapSense_CSHL.c ****                     {
 888:Generated_Source\PSoC5/CapSense_CSHL.c ****                         if (curCtrdStartPos == 0xFFu)
 889:Generated_Source\PSoC5/CapSense_CSHL.c ****                         {
 890:Generated_Source\PSoC5/CapSense_CSHL.c ****                             /* Start of centroid */
 891:Generated_Source\PSoC5/CapSense_CSHL.c ****                             curCtrdStartPos = i;
 892:Generated_Source\PSoC5/CapSense_CSHL.c ****                             curCntrdSize++;
 893:Generated_Source\PSoC5/CapSense_CSHL.c ****                         }
 894:Generated_Source\PSoC5/CapSense_CSHL.c ****                         else
 895:Generated_Source\PSoC5/CapSense_CSHL.c ****                         {
 896:Generated_Source\PSoC5/CapSense_CSHL.c ****                             curCntrdSize++;
 897:Generated_Source\PSoC5/CapSense_CSHL.c ****                         }
 898:Generated_Source\PSoC5/CapSense_CSHL.c ****                     }
 899:Generated_Source\PSoC5/CapSense_CSHL.c ****                     else   /* Select the bigest and indicate zero start */
 900:Generated_Source\PSoC5/CapSense_CSHL.c ****                     {          
 901:Generated_Source\PSoC5/CapSense_CSHL.c ****                         if(curCntrdSize > 0u)
ARM GAS  C:\Users\HENRYA~1\AppData\Local\Temp\ccxNFFqA.s 			page 32


 902:Generated_Source\PSoC5/CapSense_CSHL.c ****                         {
 903:Generated_Source\PSoC5/CapSense_CSHL.c ****                             /* We are in the end of current */
 904:Generated_Source\PSoC5/CapSense_CSHL.c ****                             if(curCntrdSize > biggestCtrdSize)
 905:Generated_Source\PSoC5/CapSense_CSHL.c ****                             {
 906:Generated_Source\PSoC5/CapSense_CSHL.c ****                                 biggestCtrdSize = curCntrdSize;
 907:Generated_Source\PSoC5/CapSense_CSHL.c ****                                 biggestCtrdStartPos = curCtrdStartPos;
 908:Generated_Source\PSoC5/CapSense_CSHL.c ****                             }
 909:Generated_Source\PSoC5/CapSense_CSHL.c ****                             
 910:Generated_Source\PSoC5/CapSense_CSHL.c ****                             curCntrdSize = 0u;
 911:Generated_Source\PSoC5/CapSense_CSHL.c ****                             curCtrdStartPos = 0xFFu;
 912:Generated_Source\PSoC5/CapSense_CSHL.c ****                         }
 913:Generated_Source\PSoC5/CapSense_CSHL.c ****                     }
 914:Generated_Source\PSoC5/CapSense_CSHL.c ****                     
 915:Generated_Source\PSoC5/CapSense_CSHL.c ****                     i++; 
 916:Generated_Source\PSoC5/CapSense_CSHL.c ****                     curPos = diplex[i];
 917:Generated_Source\PSoC5/CapSense_CSHL.c ****                     if(i == count)
 918:Generated_Source\PSoC5/CapSense_CSHL.c ****                     {
 919:Generated_Source\PSoC5/CapSense_CSHL.c ****                         break;
 920:Generated_Source\PSoC5/CapSense_CSHL.c ****                     }            
 921:Generated_Source\PSoC5/CapSense_CSHL.c ****                 }
 922:Generated_Source\PSoC5/CapSense_CSHL.c ****                     
 923:Generated_Source\PSoC5/CapSense_CSHL.c ****                     /* Find the biggest centroid if two are the same size, last one wins
 924:Generated_Source\PSoC5/CapSense_CSHL.c ****                        We are in the end of current */
 925:Generated_Source\PSoC5/CapSense_CSHL.c ****                 if (curCntrdSize >= biggestCtrdSize) 
 926:Generated_Source\PSoC5/CapSense_CSHL.c ****                 {
 927:Generated_Source\PSoC5/CapSense_CSHL.c ****                     biggestCtrdSize = curCntrdSize;
 928:Generated_Source\PSoC5/CapSense_CSHL.c ****                     biggestCtrdStartPos = curCtrdStartPos;
 929:Generated_Source\PSoC5/CapSense_CSHL.c ****                 }
 930:Generated_Source\PSoC5/CapSense_CSHL.c ****             }
 931:Generated_Source\PSoC5/CapSense_CSHL.c ****             else
 932:Generated_Source\PSoC5/CapSense_CSHL.c ****             {
 933:Generated_Source\PSoC5/CapSense_CSHL.c ****                 /* Without diplexing */ 
 934:Generated_Source\PSoC5/CapSense_CSHL.c ****                 biggestCtrdSize = count;
 935:Generated_Source\PSoC5/CapSense_CSHL.c ****             }
 936:Generated_Source\PSoC5/CapSense_CSHL.c ****                         
 937:Generated_Source\PSoC5/CapSense_CSHL.c **** 
 938:Generated_Source\PSoC5/CapSense_CSHL.c ****             /* Check centroid size */
 939:Generated_Source\PSoC5/CapSense_CSHL.c ****             #if (CapSense_IS_NON_DIPLEX_SLIDER)
 940:Generated_Source\PSoC5/CapSense_CSHL.c ****                 if((biggestCtrdSize >= 2u) || ((biggestCtrdSize == 1u) && (diplex == 0u)))
 941:Generated_Source\PSoC5/CapSense_CSHL.c ****             #else                    
 942:Generated_Source\PSoC5/CapSense_CSHL.c ****                 if(biggestCtrdSize >= 2u)
 943:Generated_Source\PSoC5/CapSense_CSHL.c ****             #endif /* (CapSense_IS_NON_DIPLEX_SLIDER) */
 944:Generated_Source\PSoC5/CapSense_CSHL.c ****                 {
 945:Generated_Source\PSoC5/CapSense_CSHL.c ****                     for (i = biggestCtrdStartPos; i < (biggestCtrdStartPos + biggestCtrdSize); i++)
 946:Generated_Source\PSoC5/CapSense_CSHL.c ****                     {
 947:Generated_Source\PSoC5/CapSense_CSHL.c ****                         #if (CapSense_IS_DIPLEX_SLIDER && CapSense_IS_NON_DIPLEX_SLIDER)
 948:Generated_Source\PSoC5/CapSense_CSHL.c ****                             if (diplex == 0u)
 949:Generated_Source\PSoC5/CapSense_CSHL.c ****                             {
 950:Generated_Source\PSoC5/CapSense_CSHL.c ****                                 curPos = i;
 951:Generated_Source\PSoC5/CapSense_CSHL.c ****                             }
 952:Generated_Source\PSoC5/CapSense_CSHL.c ****                             else
 953:Generated_Source\PSoC5/CapSense_CSHL.c ****                             {
 954:Generated_Source\PSoC5/CapSense_CSHL.c ****                                 curPos = diplex[i];
 955:Generated_Source\PSoC5/CapSense_CSHL.c ****                             }                    
 956:Generated_Source\PSoC5/CapSense_CSHL.c ****                         #elif (CapSense_IS_DIPLEX_SLIDER)                    
 957:Generated_Source\PSoC5/CapSense_CSHL.c ****                             curPos = diplex[i];                    
 958:Generated_Source\PSoC5/CapSense_CSHL.c ****                         #endif /* (CapSense_IS_DIPLEX_SLIDER && CapSense_IS_NON_DIPLEX_SLIDER) */
ARM GAS  C:\Users\HENRYA~1\AppData\Local\Temp\ccxNFFqA.s 			page 33


 959:Generated_Source\PSoC5/CapSense_CSHL.c ****                         /* Looking for the grater element within centroid */
 960:Generated_Source\PSoC5/CapSense_CSHL.c ****                         if(startOfSlider[curPos] > fingerThreshold)
 961:Generated_Source\PSoC5/CapSense_CSHL.c ****                         {
 962:Generated_Source\PSoC5/CapSense_CSHL.c ****                             if(startOfSlider[curPos] > temp)
 963:Generated_Source\PSoC5/CapSense_CSHL.c ****                             {
 964:Generated_Source\PSoC5/CapSense_CSHL.c ****                                 maximum = i;
 965:Generated_Source\PSoC5/CapSense_CSHL.c ****                                 temp = startOfSlider[curPos];
 966:Generated_Source\PSoC5/CapSense_CSHL.c ****                             }
 967:Generated_Source\PSoC5/CapSense_CSHL.c ****                         }
 968:Generated_Source\PSoC5/CapSense_CSHL.c ****                     }
 969:Generated_Source\PSoC5/CapSense_CSHL.c ****                 } 
 970:Generated_Source\PSoC5/CapSense_CSHL.c ****         #else
 971:Generated_Source\PSoC5/CapSense_CSHL.c ****             for (i = 0u; i < count; i++)
 856              		.loc 1 971 0
 857 000a 3346     		mov	r3, r6
 858 000c 08E0     		b	.L75
 859              	.LVL111:
 860              	.L77:
 972:Generated_Source\PSoC5/CapSense_CSHL.c ****             {                      
 973:Generated_Source\PSoC5/CapSense_CSHL.c ****                 /* Looking for the grater element within centroid */
 974:Generated_Source\PSoC5/CapSense_CSHL.c ****                 if(startOfSlider[i] > fingerThreshold)
 861              		.loc 1 974 0
 862 000e EC5C     		ldrb	r4, [r5, r3]	@ zero_extendqisi2
 863 0010 9442     		cmp	r4, r2
 864 0012 03D9     		bls	.L76
 975:Generated_Source\PSoC5/CapSense_CSHL.c ****                 {
 976:Generated_Source\PSoC5/CapSense_CSHL.c ****                     if(startOfSlider[i] > temp)
 865              		.loc 1 976 0
 866 0014 A642     		cmp	r6, r4
 867 0016 01D2     		bcs	.L76
 977:Generated_Source\PSoC5/CapSense_CSHL.c ****                     {
 978:Generated_Source\PSoC5/CapSense_CSHL.c ****                         maximum = i;
 979:Generated_Source\PSoC5/CapSense_CSHL.c ****                         temp = startOfSlider[i];
 868              		.loc 1 979 0
 869 0018 2646     		mov	r6, r4
 870              	.LVL112:
 978:Generated_Source\PSoC5/CapSense_CSHL.c ****                         temp = startOfSlider[i];
 871              		.loc 1 978 0
 872 001a 1846     		mov	r0, r3
 873              	.LVL113:
 874              	.L76:
 971:Generated_Source\PSoC5/CapSense_CSHL.c ****             {                      
 875              		.loc 1 971 0 discriminator 2
 876 001c 0133     		adds	r3, r3, #1
 877              	.LVL114:
 878 001e DBB2     		uxtb	r3, r3
 879              	.LVL115:
 880              	.L75:
 971:Generated_Source\PSoC5/CapSense_CSHL.c ****             {                      
 881              		.loc 1 971 0 is_stmt 0 discriminator 1
 882 0020 8B42     		cmp	r3, r1
 883 0022 F4D3     		bcc	.L77
 980:Generated_Source\PSoC5/CapSense_CSHL.c ****                     }
 981:Generated_Source\PSoC5/CapSense_CSHL.c ****                 }
 982:Generated_Source\PSoC5/CapSense_CSHL.c ****             }    
 983:Generated_Source\PSoC5/CapSense_CSHL.c ****         #endif /* (CapSense_IS_DIPLEX_SLIDER) */
 984:Generated_Source\PSoC5/CapSense_CSHL.c ****         return (maximum);
ARM GAS  C:\Users\HENRYA~1\AppData\Local\Temp\ccxNFFqA.s 			page 34


 985:Generated_Source\PSoC5/CapSense_CSHL.c ****     }
 884              		.loc 1 985 0 is_stmt 1
 885 0024 70BC     		pop	{r4, r5, r6}
 886              		.cfi_restore 6
 887              		.cfi_restore 5
 888              		.cfi_restore 4
 889              		.cfi_def_cfa_offset 0
 890              	.LVL116:
 891 0026 7047     		bx	lr
 892              	.L81:
 893              		.align	2
 894              	.L80:
 895 0028 00000000 		.word	CapSense_sensorSignal
 896              		.cfi_endproc
 897              	.LFE11:
 898              		.size	CapSense_FindMaximum, .-CapSense_FindMaximum
 899              		.section	.text.CapSense_CalcCentroid,"ax",%progbits
 900              		.align	2
 901              		.global	CapSense_CalcCentroid
 902              		.thumb
 903              		.thumb_func
 904              		.type	CapSense_CalcCentroid, %function
 905              	CapSense_CalcCentroid:
 906              	.LFB12:
 986:Generated_Source\PSoC5/CapSense_CSHL.c ****     
 987:Generated_Source\PSoC5/CapSense_CSHL.c ****     
 988:Generated_Source\PSoC5/CapSense_CSHL.c ****     /*******************************************************************************
 989:Generated_Source\PSoC5/CapSense_CSHL.c ****     * Function Name: CapSense_CalcCentroid
 990:Generated_Source\PSoC5/CapSense_CSHL.c ****     ********************************************************************************
 991:Generated_Source\PSoC5/CapSense_CSHL.c ****     *
 992:Generated_Source\PSoC5/CapSense_CSHL.c ****     * Summary:
 993:Generated_Source\PSoC5/CapSense_CSHL.c ****     *  Returns position value calculated accoring index of maximum element and API
 994:Generated_Source\PSoC5/CapSense_CSHL.c ****     *  resolution.
 995:Generated_Source\PSoC5/CapSense_CSHL.c ****     *
 996:Generated_Source\PSoC5/CapSense_CSHL.c ****     * Parameters:
 997:Generated_Source\PSoC5/CapSense_CSHL.c ****     *  type:  widget type.
 998:Generated_Source\PSoC5/CapSense_CSHL.c ****     *  diplex:  pointer to diplex table.
 999:Generated_Source\PSoC5/CapSense_CSHL.c ****     *  maximum:  Index of maximum element within centroid.
1000:Generated_Source\PSoC5/CapSense_CSHL.c ****     *  offset:   Start index of cetroid in CapSense_SensorSignal[] array.
1001:Generated_Source\PSoC5/CapSense_CSHL.c ****     *  count:    Number of elements within centroid.
1002:Generated_Source\PSoC5/CapSense_CSHL.c ****     *  resolution:  multiplicator calculated according to centroid type and
1003:Generated_Source\PSoC5/CapSense_CSHL.c ****     *  API resolution.
1004:Generated_Source\PSoC5/CapSense_CSHL.c ****     *  noiseThreshold:  Noise threshould.
1005:Generated_Source\PSoC5/CapSense_CSHL.c ****     * 
1006:Generated_Source\PSoC5/CapSense_CSHL.c ****     * Return:
1007:Generated_Source\PSoC5/CapSense_CSHL.c ****     *  Returns position value of the slider.
1008:Generated_Source\PSoC5/CapSense_CSHL.c ****     * 
1009:Generated_Source\PSoC5/CapSense_CSHL.c ****     *
1010:Generated_Source\PSoC5/CapSense_CSHL.c ****     * Reentrant:
1011:Generated_Source\PSoC5/CapSense_CSHL.c ****     *  No.
1012:Generated_Source\PSoC5/CapSense_CSHL.c ****     *
1013:Generated_Source\PSoC5/CapSense_CSHL.c ****     *******************************************************************************/
1014:Generated_Source\PSoC5/CapSense_CSHL.c ****     uint8 CapSense_CalcCentroid(uint8 maximum, uint8 offset, 
1015:Generated_Source\PSoC5/CapSense_CSHL.c ****                                         uint8 count, uint16 resolution, uint8 noiseThreshold)
1016:Generated_Source\PSoC5/CapSense_CSHL.c **** 	                                    
1017:Generated_Source\PSoC5/CapSense_CSHL.c ****     {
 907              		.loc 1 1017 0
ARM GAS  C:\Users\HENRYA~1\AppData\Local\Temp\ccxNFFqA.s 			page 35


 908              		.cfi_startproc
 909              		@ args = 4, pretend = 0, frame = 0
 910              		@ frame_needed = 0, uses_anonymous_args = 0
 911              	.LVL117:
 912 0000 F0B5     		push	{r4, r5, r6, r7, lr}
 913              		.cfi_def_cfa_offset 20
 914              		.cfi_offset 4, -20
 915              		.cfi_offset 5, -16
 916              		.cfi_offset 6, -12
 917              		.cfi_offset 7, -8
 918              		.cfi_offset 14, -4
 919 0002 9DF81450 		ldrb	r5, [sp, #20]	@ zero_extendqisi2
 920              	.LVL118:
1018:Generated_Source\PSoC5/CapSense_CSHL.c ****         #if ((CapSense_TOTAL_LINEAR_SLIDERS_COUNT > 0u) || (CapSense_TOTAL_TOUCH_PADS_COUNT > 0u))
1019:Generated_Source\PSoC5/CapSense_CSHL.c ****             uint8 posPrev = 0u;
1020:Generated_Source\PSoC5/CapSense_CSHL.c ****             uint8 posNext = 0u;
1021:Generated_Source\PSoC5/CapSense_CSHL.c ****         #endif /* ((CapSense_TOTAL_LINEAR_SLIDERS_COUNT>0u) || (CapSense_TOTAL_TOUCH_PADS_COUNT>0u)
1022:Generated_Source\PSoC5/CapSense_CSHL.c ****                
1023:Generated_Source\PSoC5/CapSense_CSHL.c ****         #if (CapSense_IS_DIPLEX_SLIDER)                
1024:Generated_Source\PSoC5/CapSense_CSHL.c ****             uint8 pos;
1025:Generated_Source\PSoC5/CapSense_CSHL.c ****         #endif /* (CapSense_IS_DIPLEX_SLIDER) */
1026:Generated_Source\PSoC5/CapSense_CSHL.c ****         
1027:Generated_Source\PSoC5/CapSense_CSHL.c ****         /* Helps while centroid calulation */
1028:Generated_Source\PSoC5/CapSense_CSHL.c ****         static uint8 CapSense_centroid[3u];
1029:Generated_Source\PSoC5/CapSense_CSHL.c **** 
1030:Generated_Source\PSoC5/CapSense_CSHL.c ****         uint8 position;
1031:Generated_Source\PSoC5/CapSense_CSHL.c ****         uint32 numerator;
1032:Generated_Source\PSoC5/CapSense_CSHL.c ****         int32 denominator;
1033:Generated_Source\PSoC5/CapSense_CSHL.c ****         uint8 *startOfSlider = &CapSense_sensorSignal[offset];
 921              		.loc 1 1033 0
 922 0006 284C     		ldr	r4, .L93
 923 0008 2144     		add	r1, r1, r4
 924              	.LVL119:
1034:Generated_Source\PSoC5/CapSense_CSHL.c ****                     
1035:Generated_Source\PSoC5/CapSense_CSHL.c ****         #if (CapSense_ADD_SLIDER_TYPE)
1036:Generated_Source\PSoC5/CapSense_CSHL.c ****             if(type == CapSense_TYPE_RADIAL_SLIDER)
1037:Generated_Source\PSoC5/CapSense_CSHL.c ****             {
1038:Generated_Source\PSoC5/CapSense_CSHL.c ****         #endif /* (CapSense_ADD_SLIDER_TYPE) */
1039:Generated_Source\PSoC5/CapSense_CSHL.c **** 
1040:Generated_Source\PSoC5/CapSense_CSHL.c ****             #if (CapSense_TOTAL_RADIAL_SLIDERS_COUNT > 0u)                
1041:Generated_Source\PSoC5/CapSense_CSHL.c ****                 /* Copy Signal for found centriod */
1042:Generated_Source\PSoC5/CapSense_CSHL.c ****                 CapSense_centroid[CapSense_POS] = startOfSlider[maximum];
1043:Generated_Source\PSoC5/CapSense_CSHL.c ****                  
1044:Generated_Source\PSoC5/CapSense_CSHL.c ****                 /* Check borders for ROTARY Slider */
1045:Generated_Source\PSoC5/CapSense_CSHL.c ****                 if (maximum == 0u)                   /* Start of centroid */
1046:Generated_Source\PSoC5/CapSense_CSHL.c ****                 { 
1047:Generated_Source\PSoC5/CapSense_CSHL.c ****                     CapSense_centroid[CapSense_POS_PREV] = startOfSlider[count - 1u];
1048:Generated_Source\PSoC5/CapSense_CSHL.c ****                     CapSense_centroid[CapSense_POS_NEXT] = startOfSlider[1u];
1049:Generated_Source\PSoC5/CapSense_CSHL.c ****                 }
1050:Generated_Source\PSoC5/CapSense_CSHL.c ****                 else if (maximum == (count - 1u))    /* End of centroid */
1051:Generated_Source\PSoC5/CapSense_CSHL.c ****                 {
1052:Generated_Source\PSoC5/CapSense_CSHL.c ****                     CapSense_centroid[CapSense_POS_PREV] = startOfSlider[maximum - 1u];
1053:Generated_Source\PSoC5/CapSense_CSHL.c ****                     CapSense_centroid[CapSense_POS_NEXT] = startOfSlider[0u];
1054:Generated_Source\PSoC5/CapSense_CSHL.c ****                 }
1055:Generated_Source\PSoC5/CapSense_CSHL.c ****                 else                                /* Not first Not last */
1056:Generated_Source\PSoC5/CapSense_CSHL.c ****                 {
1057:Generated_Source\PSoC5/CapSense_CSHL.c ****                     CapSense_centroid[CapSense_POS_PREV] = startOfSlider[maximum - 1u];
ARM GAS  C:\Users\HENRYA~1\AppData\Local\Temp\ccxNFFqA.s 			page 36


1058:Generated_Source\PSoC5/CapSense_CSHL.c ****                     CapSense_centroid[CapSense_POS_NEXT] = startOfSlider[maximum + 1u];
1059:Generated_Source\PSoC5/CapSense_CSHL.c ****                 }
1060:Generated_Source\PSoC5/CapSense_CSHL.c ****             #endif /* (CapSense_TOTAL_RADIAL_SLIDERS_COUNT > 0u) */
1061:Generated_Source\PSoC5/CapSense_CSHL.c **** 
1062:Generated_Source\PSoC5/CapSense_CSHL.c ****         #if (CapSense_ADD_SLIDER_TYPE)
1063:Generated_Source\PSoC5/CapSense_CSHL.c ****             }
1064:Generated_Source\PSoC5/CapSense_CSHL.c ****             else
1065:Generated_Source\PSoC5/CapSense_CSHL.c ****             {
1066:Generated_Source\PSoC5/CapSense_CSHL.c ****         #endif /* (CapSense_ADD_SLIDER_TYPE) */
1067:Generated_Source\PSoC5/CapSense_CSHL.c **** 
1068:Generated_Source\PSoC5/CapSense_CSHL.c ****             #if ((CapSense_TOTAL_LINEAR_SLIDERS_COUNT > 0u) || (CapSense_TOTAL_TOUCH_PADS_COUNT > 0
1069:Generated_Source\PSoC5/CapSense_CSHL.c ****                 #if (CapSense_IS_DIPLEX_SLIDER && CapSense_IS_NON_DIPLEX_SLIDER)                   
1070:Generated_Source\PSoC5/CapSense_CSHL.c ****                     /* Calculate next and previous near to maximum */
1071:Generated_Source\PSoC5/CapSense_CSHL.c ****                     if(diplex == 0u)
1072:Generated_Source\PSoC5/CapSense_CSHL.c ****                     {
1073:Generated_Source\PSoC5/CapSense_CSHL.c ****                         pos     = maximum;
1074:Generated_Source\PSoC5/CapSense_CSHL.c ****                         posPrev = maximum - 1u;
1075:Generated_Source\PSoC5/CapSense_CSHL.c ****                         posNext = maximum + 1u; 
1076:Generated_Source\PSoC5/CapSense_CSHL.c ****                     }
1077:Generated_Source\PSoC5/CapSense_CSHL.c ****                     else
1078:Generated_Source\PSoC5/CapSense_CSHL.c ****                     {
1079:Generated_Source\PSoC5/CapSense_CSHL.c ****                         pos     = diplex[maximum];
1080:Generated_Source\PSoC5/CapSense_CSHL.c ****                         posPrev = diplex[maximum - 1u];
1081:Generated_Source\PSoC5/CapSense_CSHL.c ****                         posNext = diplex[maximum + 1u];
1082:Generated_Source\PSoC5/CapSense_CSHL.c ****                         count <<= 1u;
1083:Generated_Source\PSoC5/CapSense_CSHL.c ****                     }                    
1084:Generated_Source\PSoC5/CapSense_CSHL.c ****                 #elif (CapSense_IS_DIPLEX_SLIDER)
1085:Generated_Source\PSoC5/CapSense_CSHL.c ****                     /* Calculate next and previous near to maximum */
1086:Generated_Source\PSoC5/CapSense_CSHL.c ****                     pos     = diplex[maximum];
1087:Generated_Source\PSoC5/CapSense_CSHL.c ****                     posPrev = diplex[maximum - 1u];
1088:Generated_Source\PSoC5/CapSense_CSHL.c ****                     posNext = diplex[maximum + 1u];
1089:Generated_Source\PSoC5/CapSense_CSHL.c ****                     count <<= 1u;                    
1090:Generated_Source\PSoC5/CapSense_CSHL.c ****                 #else                    
1091:Generated_Source\PSoC5/CapSense_CSHL.c ****                     /* Calculate next and previous near to maximum */
1092:Generated_Source\PSoC5/CapSense_CSHL.c ****                     if (maximum >= 1u)
 925              		.loc 1 1092 0
 926 000a 0446     		mov	r4, r0
 927 000c 10B1     		cbz	r0, .L91
1093:Generated_Source\PSoC5/CapSense_CSHL.c ****                     {
1094:Generated_Source\PSoC5/CapSense_CSHL.c ****                         posPrev = maximum - 1u;
 928              		.loc 1 1094 0
 929 000e 461E     		subs	r6, r0, #1
 930 0010 F6B2     		uxtb	r6, r6
 931              	.LVL120:
 932 0012 00E0     		b	.L83
 933              	.LVL121:
 934              	.L91:
1019:Generated_Source\PSoC5/CapSense_CSHL.c ****             uint8 posNext = 0u;
 935              		.loc 1 1019 0
 936 0014 0026     		movs	r6, #0
 937              	.LVL122:
 938              	.L83:
1095:Generated_Source\PSoC5/CapSense_CSHL.c ****                     }
1096:Generated_Source\PSoC5/CapSense_CSHL.c ****                     posNext = maximum + 1u; 
 939              		.loc 1 1096 0
 940 0016 601C     		adds	r0, r4, #1
 941              	.LVL123:
ARM GAS  C:\Users\HENRYA~1\AppData\Local\Temp\ccxNFFqA.s 			page 37


 942 0018 C0B2     		uxtb	r0, r0
 943              	.LVL124:
1097:Generated_Source\PSoC5/CapSense_CSHL.c ****                 #endif /* (CapSense_IS_DIPLEX_SLIDER && CapSense_IS_NON_DIPLEX_SLIDER) */
1098:Generated_Source\PSoC5/CapSense_CSHL.c ****                         
1099:Generated_Source\PSoC5/CapSense_CSHL.c ****                 /* Copy Signal for found centriod */
1100:Generated_Source\PSoC5/CapSense_CSHL.c ****                 #if (CapSense_IS_DIPLEX_SLIDER)
1101:Generated_Source\PSoC5/CapSense_CSHL.c ****                     CapSense_centroid[CapSense_POS] = startOfSlider[pos];
1102:Generated_Source\PSoC5/CapSense_CSHL.c ****                 #else
1103:Generated_Source\PSoC5/CapSense_CSHL.c ****                     CapSense_centroid[CapSense_POS] = startOfSlider[maximum];
 944              		.loc 1 1103 0
 945 001a 11F804E0 		ldrb	lr, [r1, r4]	@ zero_extendqisi2
 946 001e 234F     		ldr	r7, .L93+4
 947 0020 87F805E0 		strb	lr, [r7, #5]
1104:Generated_Source\PSoC5/CapSense_CSHL.c ****                 #endif /* (CapSense_IS_DIPLEX_SLIDER) */
1105:Generated_Source\PSoC5/CapSense_CSHL.c ****                     
1106:Generated_Source\PSoC5/CapSense_CSHL.c ****                 /* Check borders for LINEAR Slider */
1107:Generated_Source\PSoC5/CapSense_CSHL.c ****                 if (maximum == 0u)                   /* Start of centroid */
 948              		.loc 1 1107 0
 949 0024 24B9     		cbnz	r4, .L84
1108:Generated_Source\PSoC5/CapSense_CSHL.c ****                 { 
1109:Generated_Source\PSoC5/CapSense_CSHL.c ****                     CapSense_centroid[CapSense_POS_PREV] = 0u;
 950              		.loc 1 1109 0
 951 0026 0026     		movs	r6, #0
 952              	.LVL125:
 953 0028 3E71     		strb	r6, [r7, #4]
1110:Generated_Source\PSoC5/CapSense_CSHL.c ****                     CapSense_centroid[CapSense_POS_NEXT] = startOfSlider[posNext];
 954              		.loc 1 1110 0
 955 002a 095C     		ldrb	r1, [r1, r0]	@ zero_extendqisi2
 956              	.LVL126:
 957 002c B971     		strb	r1, [r7, #6]
 958 002e 0DE0     		b	.L85
 959              	.LVL127:
 960              	.L84:
1111:Generated_Source\PSoC5/CapSense_CSHL.c ****                 }
1112:Generated_Source\PSoC5/CapSense_CSHL.c ****                 else if (maximum == ((count) - 1u)) /* End of centroid */
 961              		.loc 1 1112 0
 962 0030 013A     		subs	r2, r2, #1
 963              	.LVL128:
 964 0032 9442     		cmp	r4, r2
 965 0034 05D1     		bne	.L86
1113:Generated_Source\PSoC5/CapSense_CSHL.c ****                 {
1114:Generated_Source\PSoC5/CapSense_CSHL.c ****                     CapSense_centroid[CapSense_POS_PREV] = startOfSlider[posPrev];
 966              		.loc 1 1114 0
 967 0036 895D     		ldrb	r1, [r1, r6]	@ zero_extendqisi2
 968              	.LVL129:
 969 0038 1C4A     		ldr	r2, .L93+4
 970 003a 1171     		strb	r1, [r2, #4]
1115:Generated_Source\PSoC5/CapSense_CSHL.c ****                     CapSense_centroid[CapSense_POS_NEXT] = 0u;
 971              		.loc 1 1115 0
 972 003c 0021     		movs	r1, #0
 973 003e 9171     		strb	r1, [r2, #6]
 974 0040 04E0     		b	.L85
 975              	.LVL130:
 976              	.L86:
1116:Generated_Source\PSoC5/CapSense_CSHL.c ****                 }
1117:Generated_Source\PSoC5/CapSense_CSHL.c ****                 else                                /* Not first Not last */
1118:Generated_Source\PSoC5/CapSense_CSHL.c ****                 {
ARM GAS  C:\Users\HENRYA~1\AppData\Local\Temp\ccxNFFqA.s 			page 38


1119:Generated_Source\PSoC5/CapSense_CSHL.c ****                     CapSense_centroid[CapSense_POS_PREV] = startOfSlider[posPrev];
 977              		.loc 1 1119 0
 978 0042 8E5D     		ldrb	r6, [r1, r6]	@ zero_extendqisi2
 979              	.LVL131:
 980 0044 194A     		ldr	r2, .L93+4
 981 0046 1671     		strb	r6, [r2, #4]
1120:Generated_Source\PSoC5/CapSense_CSHL.c ****                     CapSense_centroid[CapSense_POS_NEXT] = startOfSlider[posNext];
 982              		.loc 1 1120 0
 983 0048 095C     		ldrb	r1, [r1, r0]	@ zero_extendqisi2
 984              	.LVL132:
 985 004a 9171     		strb	r1, [r2, #6]
 986              	.L85:
1121:Generated_Source\PSoC5/CapSense_CSHL.c ****                 }
1122:Generated_Source\PSoC5/CapSense_CSHL.c ****             #endif /* ((CapSense_TOTAL_LINEAR_SLIDERS_COUNT>0u)||(CapSense_TOTAL_TOUCH_PADS_COUNT>0
1123:Generated_Source\PSoC5/CapSense_CSHL.c **** 
1124:Generated_Source\PSoC5/CapSense_CSHL.c ****         #if (CapSense_ADD_SLIDER_TYPE)
1125:Generated_Source\PSoC5/CapSense_CSHL.c ****             }
1126:Generated_Source\PSoC5/CapSense_CSHL.c ****         #endif /* (CapSense_ADD_SLIDER_TYPE) */
1127:Generated_Source\PSoC5/CapSense_CSHL.c ****     
1128:Generated_Source\PSoC5/CapSense_CSHL.c ****         /* Subtract noiseThreshold */
1129:Generated_Source\PSoC5/CapSense_CSHL.c ****         if(CapSense_centroid[CapSense_POS_PREV] > noiseThreshold)
 987              		.loc 1 1129 0
 988 004c 174A     		ldr	r2, .L93+4
 989 004e 1279     		ldrb	r2, [r2, #4]	@ zero_extendqisi2
 990 0050 AA42     		cmp	r2, r5
 991 0052 03D9     		bls	.L87
1130:Generated_Source\PSoC5/CapSense_CSHL.c ****         {
1131:Generated_Source\PSoC5/CapSense_CSHL.c ****             CapSense_centroid[CapSense_POS_PREV] -= noiseThreshold;
 992              		.loc 1 1131 0
 993 0054 521B     		subs	r2, r2, r5
 994 0056 1549     		ldr	r1, .L93+4
 995 0058 0A71     		strb	r2, [r1, #4]
 996 005a 02E0     		b	.L88
 997              	.L87:
1132:Generated_Source\PSoC5/CapSense_CSHL.c ****         }
1133:Generated_Source\PSoC5/CapSense_CSHL.c ****         else
1134:Generated_Source\PSoC5/CapSense_CSHL.c ****         {
1135:Generated_Source\PSoC5/CapSense_CSHL.c ****             CapSense_centroid[CapSense_POS_PREV] = 0u;
 998              		.loc 1 1135 0
 999 005c 0021     		movs	r1, #0
 1000 005e 134A     		ldr	r2, .L93+4
 1001 0060 1171     		strb	r1, [r2, #4]
 1002              	.L88:
1136:Generated_Source\PSoC5/CapSense_CSHL.c ****         }
1137:Generated_Source\PSoC5/CapSense_CSHL.c ****         
1138:Generated_Source\PSoC5/CapSense_CSHL.c ****         /* Maximum always grater than fingerThreshold, so grate than noiseThreshold */
1139:Generated_Source\PSoC5/CapSense_CSHL.c ****         CapSense_centroid[CapSense_POS] -= noiseThreshold;
 1003              		.loc 1 1139 0
 1004 0062 124A     		ldr	r2, .L93+4
 1005 0064 5179     		ldrb	r1, [r2, #5]	@ zero_extendqisi2
 1006 0066 491B     		subs	r1, r1, r5
 1007 0068 C9B2     		uxtb	r1, r1
 1008 006a 5171     		strb	r1, [r2, #5]
1140:Generated_Source\PSoC5/CapSense_CSHL.c ****         
1141:Generated_Source\PSoC5/CapSense_CSHL.c ****         /* Subtract noiseThreshold */
1142:Generated_Source\PSoC5/CapSense_CSHL.c ****         if(CapSense_centroid[CapSense_POS_NEXT] > noiseThreshold)
 1009              		.loc 1 1142 0
ARM GAS  C:\Users\HENRYA~1\AppData\Local\Temp\ccxNFFqA.s 			page 39


 1010 006c 9279     		ldrb	r2, [r2, #6]	@ zero_extendqisi2
 1011 006e AA42     		cmp	r2, r5
 1012 0070 03D9     		bls	.L89
1143:Generated_Source\PSoC5/CapSense_CSHL.c ****         {
1144:Generated_Source\PSoC5/CapSense_CSHL.c ****             CapSense_centroid[CapSense_POS_NEXT] -= noiseThreshold;
 1013              		.loc 1 1144 0
 1014 0072 551B     		subs	r5, r2, r5
 1015 0074 0D4A     		ldr	r2, .L93+4
 1016 0076 9571     		strb	r5, [r2, #6]
 1017 0078 02E0     		b	.L90
 1018              	.L89:
1145:Generated_Source\PSoC5/CapSense_CSHL.c ****         }
1146:Generated_Source\PSoC5/CapSense_CSHL.c ****         else
1147:Generated_Source\PSoC5/CapSense_CSHL.c ****         {
1148:Generated_Source\PSoC5/CapSense_CSHL.c ****             CapSense_centroid[CapSense_POS_NEXT] = 0u;
 1019              		.loc 1 1148 0
 1020 007a 0020     		movs	r0, #0
 1021              	.LVL133:
 1022 007c 0B4A     		ldr	r2, .L93+4
 1023 007e 9071     		strb	r0, [r2, #6]
 1024              	.L90:
1149:Generated_Source\PSoC5/CapSense_CSHL.c ****         }
1150:Generated_Source\PSoC5/CapSense_CSHL.c ****         
1151:Generated_Source\PSoC5/CapSense_CSHL.c ****         
1152:Generated_Source\PSoC5/CapSense_CSHL.c ****         /* Si+1 - Si-1 */
1153:Generated_Source\PSoC5/CapSense_CSHL.c ****         numerator = (uint32) CapSense_centroid[CapSense_POS_NEXT] -
 1025              		.loc 1 1153 0
 1026 0080 0A4A     		ldr	r2, .L93+4
 1027 0082 9079     		ldrb	r0, [r2, #6]	@ zero_extendqisi2
1154:Generated_Source\PSoC5/CapSense_CSHL.c ****                     (uint32) CapSense_centroid[CapSense_POS_PREV];
 1028              		.loc 1 1154 0
 1029 0084 1579     		ldrb	r5, [r2, #4]	@ zero_extendqisi2
1153:Generated_Source\PSoC5/CapSense_CSHL.c ****                     (uint32) CapSense_centroid[CapSense_POS_PREV];
 1030              		.loc 1 1153 0
 1031 0086 421B     		subs	r2, r0, r5
 1032              	.LVL134:
1155:Generated_Source\PSoC5/CapSense_CSHL.c **** 
1156:Generated_Source\PSoC5/CapSense_CSHL.c ****         /* Si+1 + Si + Si-1 */
1157:Generated_Source\PSoC5/CapSense_CSHL.c ****         denominator = (int32) CapSense_centroid[CapSense_POS_PREV] + 
 1033              		.loc 1 1157 0
 1034 0088 2944     		add	r1, r1, r5
 1035 008a 0844     		add	r0, r0, r1
 1036              	.LVL135:
1158:Generated_Source\PSoC5/CapSense_CSHL.c ****                       (int32) CapSense_centroid[CapSense_POS] + 
1159:Generated_Source\PSoC5/CapSense_CSHL.c ****                       (int32) CapSense_centroid[CapSense_POS_NEXT];
1160:Generated_Source\PSoC5/CapSense_CSHL.c ****         
1161:Generated_Source\PSoC5/CapSense_CSHL.c ****         /* (numerator/denominator) + maximum */
1162:Generated_Source\PSoC5/CapSense_CSHL.c ****         denominator = (((int32)(uint32)((uint32)numerator << 8u)/denominator) + (int32)(uint32)((ui
 1037              		.loc 1 1162 0
 1038 008c 1202     		lsls	r2, r2, #8
 1039              	.LVL136:
 1040 008e 92FBF0F0 		sdiv	r0, r2, r0
 1041              	.LVL137:
 1042 0092 00EB0420 		add	r0, r0, r4, lsl #8
 1043              	.LVL138:
1163:Generated_Source\PSoC5/CapSense_CSHL.c **** 
1164:Generated_Source\PSoC5/CapSense_CSHL.c ****         #if(CapSense_TOTAL_RADIAL_SLIDERS_COUNT > 0u)
ARM GAS  C:\Users\HENRYA~1\AppData\Local\Temp\ccxNFFqA.s 			page 40


1165:Generated_Source\PSoC5/CapSense_CSHL.c ****             /* Only required for RADIAL Slider */
1166:Generated_Source\PSoC5/CapSense_CSHL.c ****             if(denominator < 0)
1167:Generated_Source\PSoC5/CapSense_CSHL.c ****             {
1168:Generated_Source\PSoC5/CapSense_CSHL.c ****                 denominator += (int32)((uint16)((uint16) count << 8u));
1169:Generated_Source\PSoC5/CapSense_CSHL.c ****             }
1170:Generated_Source\PSoC5/CapSense_CSHL.c ****         #endif /* (CapSense_TOTAL_RADIAL_SLIDERS_COUNT > 0u) */
1171:Generated_Source\PSoC5/CapSense_CSHL.c **** 
1172:Generated_Source\PSoC5/CapSense_CSHL.c ****         denominator *= (int16)resolution;
 1044              		.loc 1 1172 0
 1045 0096 1BB2     		sxth	r3, r3
 1046 0098 00FB03F0 		mul	r0, r0, r3
 1047              	.LVL139:
1173:Generated_Source\PSoC5/CapSense_CSHL.c **** 
1174:Generated_Source\PSoC5/CapSense_CSHL.c ****         /* Round the relust and put it to uint8 */
1175:Generated_Source\PSoC5/CapSense_CSHL.c ****         position = ((uint8) HI16((uint32)denominator + CapSense_CENTROID_ROUND_VALUE));
 1048              		.loc 1 1175 0
 1049 009c 00F5FE40 		add	r0, r0, #32512
 1050              	.LVL140:
1176:Generated_Source\PSoC5/CapSense_CSHL.c **** 
1177:Generated_Source\PSoC5/CapSense_CSHL.c ****         return (position);
1178:Generated_Source\PSoC5/CapSense_CSHL.c ****     }    
 1051              		.loc 1 1178 0
 1052 00a0 C0F30740 		ubfx	r0, r0, #16, #8
 1053              	.LVL141:
 1054 00a4 F0BD     		pop	{r4, r5, r6, r7, pc}
 1055              	.LVL142:
 1056              	.L94:
 1057 00a6 00BF     		.align	2
 1058              	.L93:
 1059 00a8 00000000 		.word	CapSense_sensorSignal
 1060 00ac 00000000 		.word	.LANCHOR1
 1061              		.cfi_endproc
 1062              	.LFE12:
 1063              		.size	CapSense_CalcCentroid, .-CapSense_CalcCentroid
 1064              		.section	.text.CapSense_GetCentroidPos,"ax",%progbits
 1065              		.align	2
 1066              		.global	CapSense_GetCentroidPos
 1067              		.thumb
 1068              		.thumb_func
 1069              		.type	CapSense_GetCentroidPos, %function
 1070              	CapSense_GetCentroidPos:
 1071              	.LFB13:
1179:Generated_Source\PSoC5/CapSense_CSHL.c **** #endif /* (CapSense_TOTAL_CENTROIDS_COUNT) */
1180:Generated_Source\PSoC5/CapSense_CSHL.c **** 
1181:Generated_Source\PSoC5/CapSense_CSHL.c **** 
1182:Generated_Source\PSoC5/CapSense_CSHL.c **** #if(CapSense_TOTAL_LINEAR_SLIDERS_COUNT > 0u)
1183:Generated_Source\PSoC5/CapSense_CSHL.c ****     /*******************************************************************************
1184:Generated_Source\PSoC5/CapSense_CSHL.c ****     * Function Name: CapSense_GetCentroidPos
1185:Generated_Source\PSoC5/CapSense_CSHL.c ****     ********************************************************************************
1186:Generated_Source\PSoC5/CapSense_CSHL.c ****     *
1187:Generated_Source\PSoC5/CapSense_CSHL.c ****     * Summary:
1188:Generated_Source\PSoC5/CapSense_CSHL.c ****     *  Checks the CapSense_Signal[ ] array for a centroid within
1189:Generated_Source\PSoC5/CapSense_CSHL.c ****     *  slider specified range. The centroid position is calculated to the resolution
1190:Generated_Source\PSoC5/CapSense_CSHL.c ****     *  specified in the CapSense customizer. The position filters are applied to the
1191:Generated_Source\PSoC5/CapSense_CSHL.c ****     *  result if enabled.
1192:Generated_Source\PSoC5/CapSense_CSHL.c ****     *
1193:Generated_Source\PSoC5/CapSense_CSHL.c ****     * Parameters:
ARM GAS  C:\Users\HENRYA~1\AppData\Local\Temp\ccxNFFqA.s 			page 41


1194:Generated_Source\PSoC5/CapSense_CSHL.c ****     *  widget:  Widget number.
1195:Generated_Source\PSoC5/CapSense_CSHL.c ****     *  For every linear slider widget there are defines in this format:
1196:Generated_Source\PSoC5/CapSense_CSHL.c ****     *  #define CapSense_LS__"widget_name"            5
1197:Generated_Source\PSoC5/CapSense_CSHL.c ****     * 
1198:Generated_Source\PSoC5/CapSense_CSHL.c ****     * Return:
1199:Generated_Source\PSoC5/CapSense_CSHL.c ****     *  Returns position value of the linear slider.
1200:Generated_Source\PSoC5/CapSense_CSHL.c ****     *
1201:Generated_Source\PSoC5/CapSense_CSHL.c ****     * Side Effects:
1202:Generated_Source\PSoC5/CapSense_CSHL.c ****     *  If any sensor within the slider widget is active, the function returns values
1203:Generated_Source\PSoC5/CapSense_CSHL.c ****     *  from zero to the API resolution value set in the CapSense customizer. If no
1204:Generated_Source\PSoC5/CapSense_CSHL.c ****     *  sensors are active, the function returns 0xFFFF. If an error occurs during
1205:Generated_Source\PSoC5/CapSense_CSHL.c ****     *  execution of the centroid/diplexing algorithm, the function returns 0xFFFF.
1206:Generated_Source\PSoC5/CapSense_CSHL.c ****     *  There are no checks of widget type argument provided to this function.
1207:Generated_Source\PSoC5/CapSense_CSHL.c ****     *  The unproper widget type provided will cause unexpected position calculations.
1208:Generated_Source\PSoC5/CapSense_CSHL.c ****     *
1209:Generated_Source\PSoC5/CapSense_CSHL.c ****     * Note:
1210:Generated_Source\PSoC5/CapSense_CSHL.c ****     *  If noise counts on the slider segments are greater than the noise
1211:Generated_Source\PSoC5/CapSense_CSHL.c ****     *  threshold, this subroutine may generate a false centroid result. The noise
1212:Generated_Source\PSoC5/CapSense_CSHL.c ****     *  threshold should be set carefully (high enough above the noise level) so
1213:Generated_Source\PSoC5/CapSense_CSHL.c ****     *  that noise will not generate a false centroid.
1214:Generated_Source\PSoC5/CapSense_CSHL.c ****     *
1215:Generated_Source\PSoC5/CapSense_CSHL.c ****     * Reentrant:
1216:Generated_Source\PSoC5/CapSense_CSHL.c ****     *  No.
1217:Generated_Source\PSoC5/CapSense_CSHL.c ****     *
1218:Generated_Source\PSoC5/CapSense_CSHL.c ****     *******************************************************************************/
1219:Generated_Source\PSoC5/CapSense_CSHL.c ****     uint16 CapSense_GetCentroidPos(uint8 widget) 
1220:Generated_Source\PSoC5/CapSense_CSHL.c ****     {
 1072              		.loc 1 1220 0
 1073              		.cfi_startproc
 1074              		@ args = 0, pretend = 0, frame = 0
 1075              		@ frame_needed = 0, uses_anonymous_args = 0
 1076              	.LVL143:
 1077 0000 70B5     		push	{r4, r5, r6, lr}
 1078              		.cfi_def_cfa_offset 16
 1079              		.cfi_offset 4, -16
 1080              		.cfi_offset 5, -12
 1081              		.cfi_offset 6, -8
 1082              		.cfi_offset 14, -4
 1083 0002 82B0     		sub	sp, sp, #8
 1084              		.cfi_def_cfa_offset 24
 1085 0004 0446     		mov	r4, r0
1221:Generated_Source\PSoC5/CapSense_CSHL.c ****         #if (CapSense_IS_DIPLEX_SLIDER)
1222:Generated_Source\PSoC5/CapSense_CSHL.c ****             const uint8 CYCODE *diplex;
1223:Generated_Source\PSoC5/CapSense_CSHL.c ****         #endif /* (CapSense_IS_DIPLEX_SLIDER) */
1224:Generated_Source\PSoC5/CapSense_CSHL.c ****                 
1225:Generated_Source\PSoC5/CapSense_CSHL.c ****         #if (0u != CapSense_LINEAR_SLIDERS_POS_FILTERS_MASK)
1226:Generated_Source\PSoC5/CapSense_CSHL.c ****             uint8 posIndex;
1227:Generated_Source\PSoC5/CapSense_CSHL.c ****             uint8 firstTimeIndex = CapSense_posFiltersData[widget];
1228:Generated_Source\PSoC5/CapSense_CSHL.c ****             uint8 posFiltersMask = CapSense_posFiltersMask[widget];  
1229:Generated_Source\PSoC5/CapSense_CSHL.c ****         #endif /* (0u != CapSense_LINEAR_SLIDERS_POS_FILTERS_MASK) */
1230:Generated_Source\PSoC5/CapSense_CSHL.c **** 
1231:Generated_Source\PSoC5/CapSense_CSHL.c ****         #if ((0u != (CapSense_MEDIAN_FILTER & CapSense_LINEAR_SLIDERS_POS_FILTERS_MASK)) || \
1232:Generated_Source\PSoC5/CapSense_CSHL.c ****              (0u != (CapSense_AVERAGING_FILTER & CapSense_LINEAR_SLIDERS_POS_FILTERS_MASK)))
1233:Generated_Source\PSoC5/CapSense_CSHL.c ****             uint8 tempPos;
1234:Generated_Source\PSoC5/CapSense_CSHL.c ****         #endif /* ((0u != (CapSense_MEDIAN_FILTER & CapSense_LINEAR_SLIDERS_POS_FILTERS_MASK)) || \
1235:Generated_Source\PSoC5/CapSense_CSHL.c ****                *   (0u != (CapSense_AVERAGING_FILTER & CapSense_LINEAR_SLIDERS_POS_FILTERS_MASK)))
1236:Generated_Source\PSoC5/CapSense_CSHL.c ****                */
ARM GAS  C:\Users\HENRYA~1\AppData\Local\Temp\ccxNFFqA.s 			page 42


1237:Generated_Source\PSoC5/CapSense_CSHL.c **** 
1238:Generated_Source\PSoC5/CapSense_CSHL.c ****         uint8 maximum;
1239:Generated_Source\PSoC5/CapSense_CSHL.c ****         uint16 position;
1240:Generated_Source\PSoC5/CapSense_CSHL.c ****         uint8 offset = CapSense_rawDataIndex[widget];
 1086              		.loc 1 1240 0
 1087 0006 0E4B     		ldr	r3, .L99
 1088 0008 1E5C     		ldrb	r6, [r3, r0]	@ zero_extendqisi2
 1089              	.LVL144:
1241:Generated_Source\PSoC5/CapSense_CSHL.c ****         uint8 count = CapSense_numberOfSensors[widget];
 1090              		.loc 1 1241 0
 1091 000a 0344     		add	r3, r3, r0
 1092 000c 1D79     		ldrb	r5, [r3, #4]	@ zero_extendqisi2
 1093              	.LVL145:
1242:Generated_Source\PSoC5/CapSense_CSHL.c ****                         
1243:Generated_Source\PSoC5/CapSense_CSHL.c ****         #if (CapSense_IS_DIPLEX_SLIDER)
1244:Generated_Source\PSoC5/CapSense_CSHL.c ****             if(widget < CapSense_TOTAL_DIPLEXED_SLIDERS_COUNT)
1245:Generated_Source\PSoC5/CapSense_CSHL.c ****             {
1246:Generated_Source\PSoC5/CapSense_CSHL.c ****                 maximum = CapSense_diplexTable[widget];
1247:Generated_Source\PSoC5/CapSense_CSHL.c ****                 diplex = &CapSense_diplexTable[maximum];
1248:Generated_Source\PSoC5/CapSense_CSHL.c ****             }
1249:Generated_Source\PSoC5/CapSense_CSHL.c ****             else
1250:Generated_Source\PSoC5/CapSense_CSHL.c ****             {
1251:Generated_Source\PSoC5/CapSense_CSHL.c ****                 diplex = 0u;
1252:Generated_Source\PSoC5/CapSense_CSHL.c ****             }
1253:Generated_Source\PSoC5/CapSense_CSHL.c ****         #endif /* (CapSense_IS_DIPLEX_SLIDER) */
1254:Generated_Source\PSoC5/CapSense_CSHL.c **** 
1255:Generated_Source\PSoC5/CapSense_CSHL.c ****         /* Find Maximum within centroid */      
1256:Generated_Source\PSoC5/CapSense_CSHL.c ****         #if (CapSense_IS_DIPLEX_SLIDER)        
1257:Generated_Source\PSoC5/CapSense_CSHL.c ****             maximum = CapSense_FindMaximum(offset, count, CapSense_fingerThreshold[widget], diplex)
1258:Generated_Source\PSoC5/CapSense_CSHL.c ****         #else
1259:Generated_Source\PSoC5/CapSense_CSHL.c ****             maximum = CapSense_FindMaximum(offset, count, CapSense_fingerThreshold[widget]);
 1094              		.loc 1 1259 0
 1095 000e 0D4B     		ldr	r3, .L99+4
 1096 0010 0344     		add	r3, r3, r0
 1097 0012 3046     		mov	r0, r6
 1098              	.LVL146:
 1099 0014 2946     		mov	r1, r5
 1100 0016 1A7A     		ldrb	r2, [r3, #8]	@ zero_extendqisi2
 1101 0018 FFF7FEFF 		bl	CapSense_FindMaximum
 1102              	.LVL147:
1260:Generated_Source\PSoC5/CapSense_CSHL.c ****         #endif /* (CapSense_IS_DIPLEX_SLIDER) */
1261:Generated_Source\PSoC5/CapSense_CSHL.c **** 
1262:Generated_Source\PSoC5/CapSense_CSHL.c ****         if (maximum != 0xFFu)
 1103              		.loc 1 1262 0
 1104 001c FF28     		cmp	r0, #255
 1105 001e 0BD0     		beq	.L97
1263:Generated_Source\PSoC5/CapSense_CSHL.c ****         {
1264:Generated_Source\PSoC5/CapSense_CSHL.c ****             /* Calculate centroid */
1265:Generated_Source\PSoC5/CapSense_CSHL.c ****             position = (uint16) CapSense_CalcCentroid(maximum, 
 1106              		.loc 1 1265 0
 1107 0020 084B     		ldr	r3, .L99+4
 1108 0022 1C44     		add	r4, r4, r3
 1109 0024 2379     		ldrb	r3, [r4, #4]	@ zero_extendqisi2
 1110 0026 0093     		str	r3, [sp]
 1111 0028 3146     		mov	r1, r6
 1112 002a 2A46     		mov	r2, r5
 1113 002c 4FF4C853 		mov	r3, #6400
ARM GAS  C:\Users\HENRYA~1\AppData\Local\Temp\ccxNFFqA.s 			page 43


 1114 0030 FFF7FEFF 		bl	CapSense_CalcCentroid
 1115              	.LVL148:
 1116 0034 80B2     		uxth	r0, r0
 1117              	.LVL149:
 1118 0036 01E0     		b	.L96
 1119              	.LVL150:
 1120              	.L97:
1266:Generated_Source\PSoC5/CapSense_CSHL.c ****                          offset, count, CapSense_centroidMult[widget], CapSense_noiseThreshold[widg
1267:Generated_Source\PSoC5/CapSense_CSHL.c **** 
1268:Generated_Source\PSoC5/CapSense_CSHL.c ****             #if (0u != CapSense_LINEAR_SLIDERS_POS_FILTERS_MASK)
1269:Generated_Source\PSoC5/CapSense_CSHL.c ****                 /* Check if this linear slider has enabled filters */
1270:Generated_Source\PSoC5/CapSense_CSHL.c ****                 if (0u != (posFiltersMask & CapSense_ANY_POS_FILTER))
1271:Generated_Source\PSoC5/CapSense_CSHL.c ****                 {
1272:Generated_Source\PSoC5/CapSense_CSHL.c ****                     /* Caluclate position to store filters data */
1273:Generated_Source\PSoC5/CapSense_CSHL.c ****                     posIndex  = firstTimeIndex + 1u;
1274:Generated_Source\PSoC5/CapSense_CSHL.c ****                     
1275:Generated_Source\PSoC5/CapSense_CSHL.c ****                     if (0u == CapSense_posFiltersData[firstTimeIndex])
1276:Generated_Source\PSoC5/CapSense_CSHL.c ****                     {
1277:Generated_Source\PSoC5/CapSense_CSHL.c ****                         /* Init filters */
1278:Generated_Source\PSoC5/CapSense_CSHL.c ****                         CapSense_posFiltersData[posIndex] = (uint8) position;
1279:Generated_Source\PSoC5/CapSense_CSHL.c ****                         #if ((0u != (CapSense_MEDIAN_FILTER & \
1280:Generated_Source\PSoC5/CapSense_CSHL.c ****                                      CapSense_LINEAR_SLIDERS_POS_FILTERS_MASK)) || \
1281:Generated_Source\PSoC5/CapSense_CSHL.c ****                              (0u != (CapSense_AVERAGING_FILTER & \
1282:Generated_Source\PSoC5/CapSense_CSHL.c ****                                      CapSense_LINEAR_SLIDERS_POS_FILTERS_MASK)))
1283:Generated_Source\PSoC5/CapSense_CSHL.c **** 
1284:Generated_Source\PSoC5/CapSense_CSHL.c ****                             if ( (0u != (posFiltersMask & CapSense_MEDIAN_FILTER)) || 
1285:Generated_Source\PSoC5/CapSense_CSHL.c ****                                  (0u != (posFiltersMask & CapSense_AVERAGING_FILTER)) )
1286:Generated_Source\PSoC5/CapSense_CSHL.c ****                             {
1287:Generated_Source\PSoC5/CapSense_CSHL.c ****                                 CapSense_posFiltersData[posIndex + 1u] = (uint8) position;
1288:Generated_Source\PSoC5/CapSense_CSHL.c ****                             }
1289:Generated_Source\PSoC5/CapSense_CSHL.c ****                         #endif /* ((0u != (CapSense_MEDIAN_FILTER & \
1290:Generated_Source\PSoC5/CapSense_CSHL.c ****                                *           CapSense_LINEAR_SLIDERS_POS_FILTERS_MASK)) || \
1291:Generated_Source\PSoC5/CapSense_CSHL.c ****                                *   (0u != (CapSense_AVERAGING_FILTER & \
1292:Generated_Source\PSoC5/CapSense_CSHL.c ****                                *           CapSense_LINEAR_SLIDERS_POS_FILTERS_MASK)))
1293:Generated_Source\PSoC5/CapSense_CSHL.c ****                                */
1294:Generated_Source\PSoC5/CapSense_CSHL.c ****                         
1295:Generated_Source\PSoC5/CapSense_CSHL.c ****                         CapSense_posFiltersData[firstTimeIndex] = 1u;
1296:Generated_Source\PSoC5/CapSense_CSHL.c ****                     }
1297:Generated_Source\PSoC5/CapSense_CSHL.c ****                     else
1298:Generated_Source\PSoC5/CapSense_CSHL.c ****                     {
1299:Generated_Source\PSoC5/CapSense_CSHL.c ****                         /* Do filtering */
1300:Generated_Source\PSoC5/CapSense_CSHL.c ****                         #if (0u != (CapSense_MEDIAN_FILTER & CapSense_LINEAR_SLIDERS_POS_FILTERS_MA
1301:Generated_Source\PSoC5/CapSense_CSHL.c ****                             if (0u != (posFiltersMask & CapSense_MEDIAN_FILTER))
1302:Generated_Source\PSoC5/CapSense_CSHL.c ****                             {
1303:Generated_Source\PSoC5/CapSense_CSHL.c ****                                 tempPos = (uint8) position;
1304:Generated_Source\PSoC5/CapSense_CSHL.c ****                                 position = CapSense_MedianFilter(position,
1305:Generated_Source\PSoC5/CapSense_CSHL.c ****                                                                 (uint16)CapSense_posFiltersData[pos
1306:Generated_Source\PSoC5/CapSense_CSHL.c ****                                                                 (uint16)CapSense_posFiltersData[pos
1307:Generated_Source\PSoC5/CapSense_CSHL.c ****                                 CapSense_posFiltersData[posIndex + 1u] =
1308:Generated_Source\PSoC5/CapSense_CSHL.c ****                                                                              CapSense_posFiltersDat
1309:Generated_Source\PSoC5/CapSense_CSHL.c ****                                 CapSense_posFiltersData[posIndex] = tempPos;
1310:Generated_Source\PSoC5/CapSense_CSHL.c ****                             }
1311:Generated_Source\PSoC5/CapSense_CSHL.c ****                         #endif /*(0u != (CapSense_MEDIAN_FILTER &
1312:Generated_Source\PSoC5/CapSense_CSHL.c ****                                *         CapSense_LINEAR_SLIDERS_POS_FILTERS_MASK))
1313:Generated_Source\PSoC5/CapSense_CSHL.c ****                                */
1314:Generated_Source\PSoC5/CapSense_CSHL.c **** 
1315:Generated_Source\PSoC5/CapSense_CSHL.c ****                         #if(0u!=(CapSense_AVERAGING_FILTER & CapSense_LINEAR_SLIDERS_POS_FILTERS_MA
ARM GAS  C:\Users\HENRYA~1\AppData\Local\Temp\ccxNFFqA.s 			page 44


1316:Generated_Source\PSoC5/CapSense_CSHL.c ****                             if (0u != (posFiltersMask & CapSense_AVERAGING_FILTER)) 
1317:Generated_Source\PSoC5/CapSense_CSHL.c ****                             {
1318:Generated_Source\PSoC5/CapSense_CSHL.c ****                                 tempPos = (uint8) position;
1319:Generated_Source\PSoC5/CapSense_CSHL.c ****                                 position = CapSense_AveragingFilter(position,
1320:Generated_Source\PSoC5/CapSense_CSHL.c ****                                                                 (uint16)CapSense_posFiltersData[pos
1321:Generated_Source\PSoC5/CapSense_CSHL.c ****                                                                 (uint16)CapSense_posFiltersData[pos
1322:Generated_Source\PSoC5/CapSense_CSHL.c ****                                 CapSense_posFiltersData[posIndex+1u]=CapSense_posFiltersData[posInd
1323:Generated_Source\PSoC5/CapSense_CSHL.c ****                                 CapSense_posFiltersData[posIndex] = tempPos;
1324:Generated_Source\PSoC5/CapSense_CSHL.c ****                             }
1325:Generated_Source\PSoC5/CapSense_CSHL.c ****                         #endif /* (0u != (CapSense_AVERAGING_FILTER & \
1326:Generated_Source\PSoC5/CapSense_CSHL.c ****                                *           CapSense_LINEAR_SLIDERS_POS_FILTERS_MASK))
1327:Generated_Source\PSoC5/CapSense_CSHL.c ****                                */
1328:Generated_Source\PSoC5/CapSense_CSHL.c **** 
1329:Generated_Source\PSoC5/CapSense_CSHL.c ****                         #if (0u != (CapSense_IIR2_FILTER & CapSense_LINEAR_SLIDERS_POS_FILTERS_MASK
1330:Generated_Source\PSoC5/CapSense_CSHL.c ****                             if (0u != (posFiltersMask & CapSense_IIR2_FILTER)) 
1331:Generated_Source\PSoC5/CapSense_CSHL.c ****                             {
1332:Generated_Source\PSoC5/CapSense_CSHL.c ****                                 position = CapSense_IIR2Filter(position,
1333:Generated_Source\PSoC5/CapSense_CSHL.c ****                                                                     (uint16)CapSense_posFiltersData
1334:Generated_Source\PSoC5/CapSense_CSHL.c ****                                 CapSense_posFiltersData[posIndex] = (uint8) position;
1335:Generated_Source\PSoC5/CapSense_CSHL.c ****                             }
1336:Generated_Source\PSoC5/CapSense_CSHL.c ****                         #endif /* (0u != (CapSense_IIR2_FILTER & \
1337:Generated_Source\PSoC5/CapSense_CSHL.c ****                                *          CapSense_LINEAR_SLIDERS_POS_FILTERS_MASK))
1338:Generated_Source\PSoC5/CapSense_CSHL.c ****                                */
1339:Generated_Source\PSoC5/CapSense_CSHL.c **** 
1340:Generated_Source\PSoC5/CapSense_CSHL.c ****                         #if (0u != (CapSense_IIR4_FILTER & CapSense_LINEAR_SLIDERS_POS_FILTERS_MASK
1341:Generated_Source\PSoC5/CapSense_CSHL.c ****                             if (0u != (posFiltersMask & CapSense_IIR4_FILTER))
1342:Generated_Source\PSoC5/CapSense_CSHL.c ****                             {
1343:Generated_Source\PSoC5/CapSense_CSHL.c ****                                 position = CapSense_IIR4Filter(position,
1344:Generated_Source\PSoC5/CapSense_CSHL.c ****                                                                     (uint16)CapSense_posFiltersData
1345:Generated_Source\PSoC5/CapSense_CSHL.c ****                                 CapSense_posFiltersData[posIndex] = (uint8) position;
1346:Generated_Source\PSoC5/CapSense_CSHL.c ****                             }                                
1347:Generated_Source\PSoC5/CapSense_CSHL.c ****                         #endif /* (0u != (CapSense_IIR4_FILTER & \
1348:Generated_Source\PSoC5/CapSense_CSHL.c ****                                *          CapSense_LINEAR_SLIDERS_POS_FILTERS_MASK))
1349:Generated_Source\PSoC5/CapSense_CSHL.c ****                                */
1350:Generated_Source\PSoC5/CapSense_CSHL.c **** 
1351:Generated_Source\PSoC5/CapSense_CSHL.c ****                         #if (0u != (CapSense_JITTER_FILTER & CapSense_LINEAR_SLIDERS_POS_FILTERS_MA
1352:Generated_Source\PSoC5/CapSense_CSHL.c ****                             if (0u != (posFiltersMask & CapSense_JITTER_FILTER))
1353:Generated_Source\PSoC5/CapSense_CSHL.c ****                             {
1354:Generated_Source\PSoC5/CapSense_CSHL.c ****                                 position = CapSense_JitterFilter(position,
1355:Generated_Source\PSoC5/CapSense_CSHL.c ****                                                                     (uint16)CapSense_posFiltersData
1356:Generated_Source\PSoC5/CapSense_CSHL.c ****                                 CapSense_posFiltersData[posIndex] = (uint8) position;
1357:Generated_Source\PSoC5/CapSense_CSHL.c ****                             }
1358:Generated_Source\PSoC5/CapSense_CSHL.c ****                         #endif /* (0u != (CapSense_JITTER_FILTER & \
1359:Generated_Source\PSoC5/CapSense_CSHL.c ****                                *           CapSense_LINEAR_SLIDERS_POS_FILTERS_MASK))
1360:Generated_Source\PSoC5/CapSense_CSHL.c ****                                */
1361:Generated_Source\PSoC5/CapSense_CSHL.c ****                     }
1362:Generated_Source\PSoC5/CapSense_CSHL.c ****                 }
1363:Generated_Source\PSoC5/CapSense_CSHL.c ****             #endif /* (0u != CapSense_LINEAR_SLIDERS_POS_FILTERS_MASK) */
1364:Generated_Source\PSoC5/CapSense_CSHL.c **** 
1365:Generated_Source\PSoC5/CapSense_CSHL.c ****         }
1366:Generated_Source\PSoC5/CapSense_CSHL.c ****         else
1367:Generated_Source\PSoC5/CapSense_CSHL.c ****         {
1368:Generated_Source\PSoC5/CapSense_CSHL.c ****             /* The maximum wasn't found */
1369:Generated_Source\PSoC5/CapSense_CSHL.c ****             position = 0xFFFFu;
 1121              		.loc 1 1369 0
 1122 0038 4FF6FF70 		movw	r0, #65535
 1123              	.LVL151:
ARM GAS  C:\Users\HENRYA~1\AppData\Local\Temp\ccxNFFqA.s 			page 45


 1124              	.L96:
1370:Generated_Source\PSoC5/CapSense_CSHL.c **** 
1371:Generated_Source\PSoC5/CapSense_CSHL.c ****             #if(0u != CapSense_LINEAR_SLIDERS_POS_FILTERS_MASK)
1372:Generated_Source\PSoC5/CapSense_CSHL.c ****                 /* Reset the filters */
1373:Generated_Source\PSoC5/CapSense_CSHL.c ****                 if(0u != (posFiltersMask & CapSense_ANY_POS_FILTER))
1374:Generated_Source\PSoC5/CapSense_CSHL.c ****                 {
1375:Generated_Source\PSoC5/CapSense_CSHL.c ****                     CapSense_posFiltersData[firstTimeIndex] = 0u;
1376:Generated_Source\PSoC5/CapSense_CSHL.c ****                 }
1377:Generated_Source\PSoC5/CapSense_CSHL.c ****             #endif /* (0u != CapSense_LINEAR_SLIDERS_POS_FILTERS_MASK) */
1378:Generated_Source\PSoC5/CapSense_CSHL.c ****         }
1379:Generated_Source\PSoC5/CapSense_CSHL.c **** 
1380:Generated_Source\PSoC5/CapSense_CSHL.c ****         
1381:Generated_Source\PSoC5/CapSense_CSHL.c ****         return (position);
1382:Generated_Source\PSoC5/CapSense_CSHL.c ****     }
 1125              		.loc 1 1382 0
 1126 003c 02B0     		add	sp, sp, #8
 1127              		.cfi_def_cfa_offset 16
 1128              		@ sp needed
 1129 003e 70BD     		pop	{r4, r5, r6, pc}
 1130              	.LVL152:
 1131              	.L100:
 1132              		.align	2
 1133              	.L99:
 1134 0040 00000000 		.word	.LANCHOR2
 1135 0044 00000000 		.word	.LANCHOR0
 1136              		.cfi_endproc
 1137              	.LFE13:
 1138              		.size	CapSense_GetCentroidPos, .-CapSense_GetCentroidPos
 1139              		.global	CapSense_centroidMult
 1140              		.global	CapSense_numberOfSensors
 1141              		.global	CapSense_rawDataIndex
 1142              		.global	CapSense_debounceCounter
 1143              		.global	CapSense_debounce
 1144              		.global	CapSense_hysteresis
 1145              		.global	CapSense_noiseThreshold
 1146              		.global	CapSense_fingerThreshold
 1147              		.comm	CapSense_lowBaselineResetCnt,7,4
 1148              		.comm	CapSense_sensorOnMask,1,4
 1149              		.comm	CapSense_sensorSignal,7,4
 1150              		.comm	CapSense_sensorBaselineLow,7,4
 1151              		.comm	CapSense_sensorBaseline,14,4
 1152              		.section	.rodata
 1153              		.align	2
 1154              		.set	.LANCHOR2,. + 0
 1155              		.type	CapSense_rawDataIndex, %object
 1156              		.size	CapSense_rawDataIndex, 3
 1157              	CapSense_rawDataIndex:
 1158 0000 02       		.byte	2
 1159 0001 01       		.byte	1
 1160 0002 00       		.byte	0
 1161 0003 00       		.space	1
 1162              		.type	CapSense_numberOfSensors, %object
 1163              		.size	CapSense_numberOfSensors, 3
 1164              	CapSense_numberOfSensors:
 1165 0004 05       		.byte	5
 1166 0005 01       		.byte	1
 1167 0006 01       		.byte	1
ARM GAS  C:\Users\HENRYA~1\AppData\Local\Temp\ccxNFFqA.s 			page 46


 1168 0007 00       		.space	1
 1169              		.type	CapSense_centroidMult, %object
 1170              		.size	CapSense_centroidMult, 2
 1171              	CapSense_centroidMult:
 1172 0008 0019     		.short	6400
 1173 000a 0000     		.data
 1174              		.align	2
 1175              		.set	.LANCHOR0,. + 0
 1176              		.type	CapSense_debounce, %object
 1177              		.size	CapSense_debounce, 3
 1178              	CapSense_debounce:
 1179 0000 01       		.byte	1
 1180 0001 01       		.byte	1
 1181 0002 01       		.byte	1
 1182 0003 00       		.space	1
 1183              		.type	CapSense_noiseThreshold, %object
 1184              		.size	CapSense_noiseThreshold, 3
 1185              	CapSense_noiseThreshold:
 1186 0004 14       		.byte	20
 1187 0005 28       		.byte	40
 1188 0006 28       		.byte	40
 1189 0007 00       		.space	1
 1190              		.type	CapSense_fingerThreshold, %object
 1191              		.size	CapSense_fingerThreshold, 3
 1192              	CapSense_fingerThreshold:
 1193 0008 28       		.byte	40
 1194 0009 50       		.byte	80
 1195 000a 50       		.byte	80
 1196 000b 00       		.space	1
 1197              		.type	CapSense_hysteresis, %object
 1198              		.size	CapSense_hysteresis, 3
 1199              	CapSense_hysteresis:
 1200 000c 00       		.byte	0
 1201 000d 05       		.byte	5
 1202 000e 05       		.byte	5
 1203 000f 00       		.bss
 1204              		.align	2
 1205              		.set	.LANCHOR1,. + 0
 1206              		.type	CapSense_debounceCounter, %object
 1207              		.size	CapSense_debounceCounter, 3
 1208              	CapSense_debounceCounter:
 1209 0000 000000   		.space	3
 1210 0003 00       		.space	1
 1211              		.type	CapSense_centroid.5131, %object
 1212              		.size	CapSense_centroid.5131, 3
 1213              	CapSense_centroid.5131:
 1214 0004 000000   		.space	3
 1215 0007 00       		.text
 1216              	.Letext0:
 1217              		.file 2 "Generated_Source\\PSoC5\\cytypes.h"
 1218              		.file 3 "Generated_Source\\PSoC5\\CapSense.h"
 1219              		.file 4 "Generated_Source\\PSoC5\\CapSense_CSHL.h"
 1220              		.section	.debug_info,"",%progbits
 1221              	.Ldebug_info0:
 1222 0000 80080000 		.4byte	0x880
 1223 0004 0400     		.2byte	0x4
 1224 0006 00000000 		.4byte	.Ldebug_abbrev0
ARM GAS  C:\Users\HENRYA~1\AppData\Local\Temp\ccxNFFqA.s 			page 47


 1225 000a 04       		.byte	0x4
 1226 000b 01       		.uleb128 0x1
 1227 000c 01050000 		.4byte	.LASF75
 1228 0010 01       		.byte	0x1
 1229 0011 DA040000 		.4byte	.LASF76
 1230 0015 A0030000 		.4byte	.LASF77
 1231 0019 00000000 		.4byte	.Ldebug_ranges0+0
 1232 001d 00000000 		.4byte	0
 1233 0021 00000000 		.4byte	.Ldebug_line0
 1234 0025 02       		.uleb128 0x2
 1235 0026 01       		.byte	0x1
 1236 0027 06       		.byte	0x6
 1237 0028 DE000000 		.4byte	.LASF0
 1238 002c 02       		.uleb128 0x2
 1239 002d 01       		.byte	0x1
 1240 002e 08       		.byte	0x8
 1241 002f F2030000 		.4byte	.LASF1
 1242 0033 02       		.uleb128 0x2
 1243 0034 02       		.byte	0x2
 1244 0035 05       		.byte	0x5
 1245 0036 2F040000 		.4byte	.LASF2
 1246 003a 02       		.uleb128 0x2
 1247 003b 02       		.byte	0x2
 1248 003c 07       		.byte	0x7
 1249 003d 3F020000 		.4byte	.LASF3
 1250 0041 02       		.uleb128 0x2
 1251 0042 04       		.byte	0x4
 1252 0043 05       		.byte	0x5
 1253 0044 26010000 		.4byte	.LASF4
 1254 0048 02       		.uleb128 0x2
 1255 0049 04       		.byte	0x4
 1256 004a 07       		.byte	0x7
 1257 004b FC010000 		.4byte	.LASF5
 1258 004f 02       		.uleb128 0x2
 1259 0050 08       		.byte	0x8
 1260 0051 05       		.byte	0x5
 1261 0052 D0000000 		.4byte	.LASF6
 1262 0056 02       		.uleb128 0x2
 1263 0057 08       		.byte	0x8
 1264 0058 07       		.byte	0x7
 1265 0059 5F000000 		.4byte	.LASF7
 1266 005d 03       		.uleb128 0x3
 1267 005e 04       		.byte	0x4
 1268 005f 05       		.byte	0x5
 1269 0060 696E7400 		.ascii	"int\000"
 1270 0064 02       		.uleb128 0x2
 1271 0065 04       		.byte	0x4
 1272 0066 07       		.byte	0x7
 1273 0067 E6010000 		.4byte	.LASF8
 1274 006b 04       		.uleb128 0x4
 1275 006c 82010000 		.4byte	.LASF9
 1276 0070 02       		.byte	0x2
 1277 0071 9201     		.2byte	0x192
 1278 0073 2C000000 		.4byte	0x2c
 1279 0077 04       		.uleb128 0x4
 1280 0078 06000000 		.4byte	.LASF10
 1281 007c 02       		.byte	0x2
ARM GAS  C:\Users\HENRYA~1\AppData\Local\Temp\ccxNFFqA.s 			page 48


 1282 007d 9301     		.2byte	0x193
 1283 007f 3A000000 		.4byte	0x3a
 1284 0083 04       		.uleb128 0x4
 1285 0084 A5010000 		.4byte	.LASF11
 1286 0088 02       		.byte	0x2
 1287 0089 9401     		.2byte	0x194
 1288 008b 48000000 		.4byte	0x48
 1289 008f 04       		.uleb128 0x4
 1290 0090 8F050000 		.4byte	.LASF12
 1291 0094 02       		.byte	0x2
 1292 0095 9601     		.2byte	0x196
 1293 0097 33000000 		.4byte	0x33
 1294 009b 04       		.uleb128 0x4
 1295 009c 1A010000 		.4byte	.LASF13
 1296 00a0 02       		.byte	0x2
 1297 00a1 9701     		.2byte	0x197
 1298 00a3 41000000 		.4byte	0x41
 1299 00a7 02       		.uleb128 0x2
 1300 00a8 04       		.byte	0x4
 1301 00a9 04       		.byte	0x4
 1302 00aa 9A030000 		.4byte	.LASF14
 1303 00ae 02       		.uleb128 0x2
 1304 00af 08       		.byte	0x8
 1305 00b0 04       		.byte	0x4
 1306 00b1 88010000 		.4byte	.LASF15
 1307 00b5 02       		.uleb128 0x2
 1308 00b6 01       		.byte	0x1
 1309 00b7 08       		.byte	0x8
 1310 00b8 AE040000 		.4byte	.LASF16
 1311 00bc 02       		.uleb128 0x2
 1312 00bd 04       		.byte	0x4
 1313 00be 07       		.byte	0x7
 1314 00bf EE020000 		.4byte	.LASF17
 1315 00c3 05       		.uleb128 0x5
 1316 00c4 4F040000 		.4byte	.LASF18
 1317 00c8 01       		.byte	0x1
 1318 00c9 81       		.byte	0x81
 1319 00ca 00000000 		.4byte	.LFB0
 1320 00ce 44000000 		.4byte	.LFE0-.LFB0
 1321 00d2 01       		.uleb128 0x1
 1322 00d3 9C       		.byte	0x9c
 1323 00d4 F5000000 		.4byte	0xf5
 1324 00d8 06       		.uleb128 0x6
 1325 00d9 52020000 		.4byte	.LASF20
 1326 00dd 01       		.byte	0x1
 1327 00de 81       		.byte	0x81
 1328 00df 6B000000 		.4byte	0x6b
 1329 00e3 01       		.uleb128 0x1
 1330 00e4 50       		.byte	0x50
 1331 00e5 07       		.uleb128 0x7
 1332 00e6 39040000 		.4byte	.LASF22
 1333 00ea 01       		.byte	0x1
 1334 00eb 85       		.byte	0x85
 1335 00ec 6B000000 		.4byte	0x6b
 1336 00f0 00000000 		.4byte	.LLST0
 1337 00f4 00       		.byte	0
 1338 00f5 05       		.uleb128 0x5
ARM GAS  C:\Users\HENRYA~1\AppData\Local\Temp\ccxNFFqA.s 			page 49


 1339 00f6 0D030000 		.4byte	.LASF19
 1340 00fa 01       		.byte	0x1
 1341 00fb CD       		.byte	0xcd
 1342 00fc 00000000 		.4byte	.LFB1
 1343 0100 18000000 		.4byte	.LFE1-.LFB1
 1344 0104 01       		.uleb128 0x1
 1345 0105 9C       		.byte	0x9c
 1346 0106 47010000 		.4byte	0x147
 1347 010a 08       		.uleb128 0x8
 1348 010b 52020000 		.4byte	.LASF20
 1349 010f 01       		.byte	0x1
 1350 0110 CD       		.byte	0xcd
 1351 0111 6B000000 		.4byte	0x6b
 1352 0115 20000000 		.4byte	.LLST1
 1353 0119 09       		.uleb128 0x9
 1354 011a 08000000 		.4byte	.LVL5
 1355 011e 53080000 		.4byte	0x853
 1356 0122 2D010000 		.4byte	0x12d
 1357 0126 0A       		.uleb128 0xa
 1358 0127 01       		.uleb128 0x1
 1359 0128 50       		.byte	0x50
 1360 0129 02       		.uleb128 0x2
 1361 012a 74       		.byte	0x74
 1362 012b 00       		.sleb128 0
 1363 012c 00       		.byte	0
 1364 012d 0B       		.uleb128 0xb
 1365 012e 0C000000 		.4byte	.LVL6
 1366 0132 64080000 		.4byte	0x864
 1367 0136 0C       		.uleb128 0xc
 1368 0137 16000000 		.4byte	.LVL7
 1369 013b C3000000 		.4byte	0xc3
 1370 013f 0A       		.uleb128 0xa
 1371 0140 01       		.uleb128 0x1
 1372 0141 50       		.byte	0x50
 1373 0142 02       		.uleb128 0x2
 1374 0143 74       		.byte	0x74
 1375 0144 00       		.sleb128 0
 1376 0145 00       		.byte	0
 1377 0146 00       		.byte	0
 1378 0147 0D       		.uleb128 0xd
 1379 0148 00040000 		.4byte	.LASF21
 1380 014c 01       		.byte	0x1
 1381 014d 0101     		.2byte	0x101
 1382 014f 00000000 		.4byte	.LFB2
 1383 0153 16000000 		.4byte	.LFE2-.LFB2
 1384 0157 01       		.uleb128 0x1
 1385 0158 9C       		.byte	0x9c
 1386 0159 7C010000 		.4byte	0x17c
 1387 015d 0E       		.uleb128 0xe
 1388 015e 6900     		.ascii	"i\000"
 1389 0160 01       		.byte	0x1
 1390 0161 0401     		.2byte	0x104
 1391 0163 6B000000 		.4byte	0x6b
 1392 0167 41000000 		.4byte	.LLST2
 1393 016b 0C       		.uleb128 0xc
 1394 016c 0C000000 		.4byte	.LVL10
 1395 0170 F5000000 		.4byte	0xf5
ARM GAS  C:\Users\HENRYA~1\AppData\Local\Temp\ccxNFFqA.s 			page 50


 1396 0174 0A       		.uleb128 0xa
 1397 0175 01       		.uleb128 0x1
 1398 0176 50       		.byte	0x50
 1399 0177 02       		.uleb128 0x2
 1400 0178 74       		.byte	0x74
 1401 0179 00       		.sleb128 0
 1402 017a 00       		.byte	0
 1403 017b 00       		.byte	0
 1404 017c 0D       		.uleb128 0xd
 1405 017d 8C000000 		.4byte	.LASF23
 1406 0181 01       		.byte	0x1
 1407 0182 2201     		.2byte	0x122
 1408 0184 00000000 		.4byte	.LFB3
 1409 0188 44000000 		.4byte	.LFE3-.LFB3
 1410 018c 01       		.uleb128 0x1
 1411 018d 9C       		.byte	0x9c
 1412 018e E1010000 		.4byte	0x1e1
 1413 0192 0E       		.uleb128 0xe
 1414 0193 6900     		.ascii	"i\000"
 1415 0195 01       		.byte	0x1
 1416 0196 2501     		.2byte	0x125
 1417 0198 6B000000 		.4byte	0x6b
 1418 019c 6B000000 		.4byte	.LLST3
 1419 01a0 0F       		.uleb128 0xf
 1420 01a1 706F7300 		.ascii	"pos\000"
 1421 01a5 01       		.byte	0x1
 1422 01a6 2601     		.2byte	0x126
 1423 01a8 6B000000 		.4byte	0x6b
 1424 01ac 01       		.uleb128 0x1
 1425 01ad 52       		.byte	0x52
 1426 01ae 10       		.uleb128 0x10
 1427 01af 4C030000 		.4byte	.LASF24
 1428 01b3 01       		.byte	0x1
 1429 01b4 2701     		.2byte	0x127
 1430 01b6 6B000000 		.4byte	0x6b
 1431 01ba 89000000 		.4byte	.LLST4
 1432 01be 0B       		.uleb128 0xb
 1433 01bf 06000000 		.4byte	.LVL13
 1434 01c3 6F080000 		.4byte	0x86f
 1435 01c7 0B       		.uleb128 0xb
 1436 01c8 0A000000 		.4byte	.LVL14
 1437 01cc 64080000 		.4byte	0x864
 1438 01d0 0C       		.uleb128 0xc
 1439 01d1 32000000 		.4byte	.LVL18
 1440 01d5 C3000000 		.4byte	0xc3
 1441 01d9 0A       		.uleb128 0xa
 1442 01da 01       		.uleb128 0x1
 1443 01db 50       		.byte	0x50
 1444 01dc 02       		.uleb128 0x2
 1445 01dd 74       		.byte	0x74
 1446 01de 00       		.sleb128 0
 1447 01df 00       		.byte	0
 1448 01e0 00       		.byte	0
 1449 01e1 0D       		.uleb128 0xd
 1450 01e2 88020000 		.4byte	.LASF25
 1451 01e6 01       		.byte	0x1
 1452 01e7 6501     		.2byte	0x165
ARM GAS  C:\Users\HENRYA~1\AppData\Local\Temp\ccxNFFqA.s 			page 51


 1453 01e9 00000000 		.4byte	.LFB4
 1454 01ed C8000000 		.4byte	.LFE4-.LFB4
 1455 01f1 01       		.uleb128 0x1
 1456 01f2 9C       		.byte	0x9c
 1457 01f3 7C020000 		.4byte	0x27c
 1458 01f7 11       		.uleb128 0x11
 1459 01f8 52020000 		.4byte	.LASF20
 1460 01fc 01       		.byte	0x1
 1461 01fd 6501     		.2byte	0x165
 1462 01ff 6B000000 		.4byte	0x6b
 1463 0203 BE000000 		.4byte	.LLST5
 1464 0207 10       		.uleb128 0x10
 1465 0208 A6020000 		.4byte	.LASF26
 1466 020c 01       		.byte	0x1
 1467 020d 6801     		.2byte	0x168
 1468 020f 83000000 		.4byte	0x83
 1469 0213 DF000000 		.4byte	.LLST6
 1470 0217 10       		.uleb128 0x10
 1471 0218 F3050000 		.4byte	.LASF27
 1472 021c 01       		.byte	0x1
 1473 021d 6901     		.2byte	0x169
 1474 021f 77000000 		.4byte	0x77
 1475 0223 01010000 		.4byte	.LLST7
 1476 0227 10       		.uleb128 0x10
 1477 0228 0D000000 		.4byte	.LASF28
 1478 022c 01       		.byte	0x1
 1479 022d 6A01     		.2byte	0x16a
 1480 022f 77000000 		.4byte	0x77
 1481 0233 1F010000 		.4byte	.LLST8
 1482 0237 10       		.uleb128 0x10
 1483 0238 39040000 		.4byte	.LASF22
 1484 023c 01       		.byte	0x1
 1485 023d 6B01     		.2byte	0x16b
 1486 023f 6B000000 		.4byte	0x6b
 1487 0243 32010000 		.4byte	.LLST9
 1488 0247 10       		.uleb128 0x10
 1489 0248 20040000 		.4byte	.LASF29
 1490 024c 01       		.byte	0x1
 1491 024d 6C01     		.2byte	0x16c
 1492 024f 6B000000 		.4byte	0x6b
 1493 0253 7B010000 		.4byte	.LLST10
 1494 0257 09       		.uleb128 0x9
 1495 0258 1A000000 		.4byte	.LVL28
 1496 025c 76080000 		.4byte	0x876
 1497 0260 6B020000 		.4byte	0x26b
 1498 0264 0A       		.uleb128 0xa
 1499 0265 01       		.uleb128 0x1
 1500 0266 50       		.byte	0x50
 1501 0267 02       		.uleb128 0x2
 1502 0268 74       		.byte	0x74
 1503 0269 00       		.sleb128 0
 1504 026a 00       		.byte	0
 1505 026b 0C       		.uleb128 0xc
 1506 026c 4A000000 		.4byte	.LVL33
 1507 0270 C3000000 		.4byte	0xc3
 1508 0274 0A       		.uleb128 0xa
 1509 0275 01       		.uleb128 0x1
ARM GAS  C:\Users\HENRYA~1\AppData\Local\Temp\ccxNFFqA.s 			page 52


 1510 0276 50       		.byte	0x50
 1511 0277 02       		.uleb128 0x2
 1512 0278 74       		.byte	0x74
 1513 0279 00       		.sleb128 0
 1514 027a 00       		.byte	0
 1515 027b 00       		.byte	0
 1516 027c 0D       		.uleb128 0xd
 1517 027d B0000000 		.4byte	.LASF30
 1518 0281 01       		.byte	0x1
 1519 0282 1202     		.2byte	0x212
 1520 0284 00000000 		.4byte	.LFB5
 1521 0288 2C000000 		.4byte	.LFE5-.LFB5
 1522 028c 01       		.uleb128 0x1
 1523 028d 9C       		.byte	0x9c
 1524 028e CF020000 		.4byte	0x2cf
 1525 0292 0E       		.uleb128 0xe
 1526 0293 6900     		.ascii	"i\000"
 1527 0295 01       		.byte	0x1
 1528 0296 1502     		.2byte	0x215
 1529 0298 6B000000 		.4byte	0x6b
 1530 029c 8E010000 		.4byte	.LLST11
 1531 02a0 0F       		.uleb128 0xf
 1532 02a1 706F7300 		.ascii	"pos\000"
 1533 02a5 01       		.byte	0x1
 1534 02a6 1602     		.2byte	0x216
 1535 02a8 6B000000 		.4byte	0x6b
 1536 02ac 01       		.uleb128 0x1
 1537 02ad 52       		.byte	0x52
 1538 02ae 10       		.uleb128 0x10
 1539 02af 4C030000 		.4byte	.LASF24
 1540 02b3 01       		.byte	0x1
 1541 02b4 1702     		.2byte	0x217
 1542 02b6 6B000000 		.4byte	0x6b
 1543 02ba B8010000 		.4byte	.LLST12
 1544 02be 0C       		.uleb128 0xc
 1545 02bf 1E000000 		.4byte	.LVL46
 1546 02c3 E1010000 		.4byte	0x1e1
 1547 02c7 0A       		.uleb128 0xa
 1548 02c8 01       		.uleb128 0x1
 1549 02c9 50       		.byte	0x50
 1550 02ca 02       		.uleb128 0x2
 1551 02cb 74       		.byte	0x74
 1552 02cc 00       		.sleb128 0
 1553 02cd 00       		.byte	0
 1554 02ce 00       		.byte	0
 1555 02cf 12       		.uleb128 0x12
 1556 02d0 2F030000 		.4byte	.LASF36
 1557 02d4 01       		.byte	0x1
 1558 02d5 4C02     		.2byte	0x24c
 1559 02d7 6B000000 		.4byte	0x6b
 1560 02db 00000000 		.4byte	.LFB6
 1561 02df 9C000000 		.4byte	.LFE6-.LFB6
 1562 02e3 01       		.uleb128 0x1
 1563 02e4 9C       		.byte	0x9c
 1564 02e5 68030000 		.4byte	0x368
 1565 02e9 11       		.uleb128 0x11
 1566 02ea 52020000 		.4byte	.LASF20
ARM GAS  C:\Users\HENRYA~1\AppData\Local\Temp\ccxNFFqA.s 			page 53


 1567 02ee 01       		.byte	0x1
 1568 02ef 4C02     		.2byte	0x24c
 1569 02f1 6B000000 		.4byte	0x6b
 1570 02f5 ED010000 		.4byte	.LLST13
 1571 02f9 10       		.uleb128 0x10
 1572 02fa CC040000 		.4byte	.LASF31
 1573 02fe 01       		.byte	0x1
 1574 02ff 4F02     		.2byte	0x24f
 1575 0301 6B000000 		.4byte	0x6b
 1576 0305 27020000 		.4byte	.LLST14
 1577 0309 0E       		.uleb128 0xe
 1578 030a 706F7300 		.ascii	"pos\000"
 1579 030e 01       		.byte	0x1
 1580 030f 5102     		.2byte	0x251
 1581 0311 6B000000 		.4byte	0x6b
 1582 0315 51020000 		.4byte	.LLST15
 1583 0319 13       		.uleb128 0x13
 1584 031a 40040000 		.4byte	.LASF32
 1585 031e 01       		.byte	0x1
 1586 031f 5202     		.2byte	0x252
 1587 0321 6B000000 		.4byte	0x6b
 1588 0325 01       		.uleb128 0x1
 1589 0326 53       		.byte	0x53
 1590 0327 10       		.uleb128 0x10
 1591 0328 39040000 		.4byte	.LASF22
 1592 032c 01       		.byte	0x1
 1593 032d 5402     		.2byte	0x254
 1594 032f 6B000000 		.4byte	0x6b
 1595 0333 64020000 		.4byte	.LLST16
 1596 0337 10       		.uleb128 0x10
 1597 0338 47000000 		.4byte	.LASF33
 1598 033c 01       		.byte	0x1
 1599 033d 5502     		.2byte	0x255
 1600 033f 6B000000 		.4byte	0x6b
 1601 0343 8F020000 		.4byte	.LLST17
 1602 0347 10       		.uleb128 0x10
 1603 0348 AC010000 		.4byte	.LASF34
 1604 034c 01       		.byte	0x1
 1605 034d 5602     		.2byte	0x256
 1606 034f 6B000000 		.4byte	0x6b
 1607 0353 A2020000 		.4byte	.LLST18
 1608 0357 10       		.uleb128 0x10
 1609 0358 E5020000 		.4byte	.LASF35
 1610 035c 01       		.byte	0x1
 1611 035d 5702     		.2byte	0x257
 1612 035f 6B000000 		.4byte	0x6b
 1613 0363 C0020000 		.4byte	.LLST19
 1614 0367 00       		.byte	0
 1615 0368 12       		.uleb128 0x12
 1616 0369 65010000 		.4byte	.LASF37
 1617 036d 01       		.byte	0x1
 1618 036e 9C02     		.2byte	0x29c
 1619 0370 6B000000 		.4byte	0x6b
 1620 0374 00000000 		.4byte	.LFB7
 1621 0378 2C000000 		.4byte	.LFE7-.LFB7
 1622 037c 01       		.uleb128 0x1
 1623 037d 9C       		.byte	0x9c
ARM GAS  C:\Users\HENRYA~1\AppData\Local\Temp\ccxNFFqA.s 			page 54


 1624 037e D3030000 		.4byte	0x3d3
 1625 0382 11       		.uleb128 0x11
 1626 0383 39040000 		.4byte	.LASF22
 1627 0387 01       		.byte	0x1
 1628 0388 9C02     		.2byte	0x29c
 1629 038a 6B000000 		.4byte	0x6b
 1630 038e D3020000 		.4byte	.LLST20
 1631 0392 10       		.uleb128 0x10
 1632 0393 01010000 		.4byte	.LASF38
 1633 0397 01       		.byte	0x1
 1634 0398 9F02     		.2byte	0x29f
 1635 039a 6B000000 		.4byte	0x6b
 1636 039e F4020000 		.4byte	.LLST21
 1637 03a2 10       		.uleb128 0x10
 1638 03a3 0A010000 		.4byte	.LASF39
 1639 03a7 01       		.byte	0x1
 1640 03a8 A002     		.2byte	0x2a0
 1641 03aa 6B000000 		.4byte	0x6b
 1642 03ae 12030000 		.4byte	.LLST22
 1643 03b2 10       		.uleb128 0x10
 1644 03b3 20010000 		.4byte	.LASF40
 1645 03b7 01       		.byte	0x1
 1646 03b8 A102     		.2byte	0x2a1
 1647 03ba 6B000000 		.4byte	0x6b
 1648 03be 25030000 		.4byte	.LLST23
 1649 03c2 0C       		.uleb128 0xc
 1650 03c3 16000000 		.4byte	.LVL76
 1651 03c7 CF020000 		.4byte	0x2cf
 1652 03cb 0A       		.uleb128 0xa
 1653 03cc 01       		.uleb128 0x1
 1654 03cd 50       		.byte	0x50
 1655 03ce 02       		.uleb128 0x2
 1656 03cf 74       		.byte	0x74
 1657 03d0 00       		.sleb128 0
 1658 03d1 00       		.byte	0
 1659 03d2 00       		.byte	0
 1660 03d3 12       		.uleb128 0x12
 1661 03d4 39010000 		.4byte	.LASF41
 1662 03d8 01       		.byte	0x1
 1663 03d9 C802     		.2byte	0x2c8
 1664 03db 6B000000 		.4byte	0x6b
 1665 03df 00000000 		.4byte	.LFB8
 1666 03e3 1E000000 		.4byte	.LFE8-.LFB8
 1667 03e7 01       		.uleb128 0x1
 1668 03e8 9C       		.byte	0x9c
 1669 03e9 1C040000 		.4byte	0x41c
 1670 03ed 0E       		.uleb128 0xe
 1671 03ee 6900     		.ascii	"i\000"
 1672 03f0 01       		.byte	0x1
 1673 03f1 CB02     		.2byte	0x2cb
 1674 03f3 6B000000 		.4byte	0x6b
 1675 03f7 44030000 		.4byte	.LLST24
 1676 03fb 10       		.uleb128 0x10
 1677 03fc 20010000 		.4byte	.LASF40
 1678 0400 01       		.byte	0x1
 1679 0401 CC02     		.2byte	0x2cc
 1680 0403 6B000000 		.4byte	0x6b
ARM GAS  C:\Users\HENRYA~1\AppData\Local\Temp\ccxNFFqA.s 			page 55


 1681 0407 6E030000 		.4byte	.LLST25
 1682 040b 0C       		.uleb128 0xc
 1683 040c 0E000000 		.4byte	.LVL83
 1684 0410 68030000 		.4byte	0x368
 1685 0414 0A       		.uleb128 0xa
 1686 0415 01       		.uleb128 0x1
 1687 0416 50       		.byte	0x50
 1688 0417 02       		.uleb128 0x2
 1689 0418 74       		.byte	0x74
 1690 0419 00       		.sleb128 0
 1691 041a 00       		.byte	0
 1692 041b 00       		.byte	0
 1693 041c 0D       		.uleb128 0xd
 1694 041d F7020000 		.4byte	.LASF42
 1695 0421 01       		.byte	0x1
 1696 0422 F602     		.2byte	0x2f6
 1697 0424 00000000 		.4byte	.LFB9
 1698 0428 34000000 		.4byte	.LFE9-.LFB9
 1699 042c 01       		.uleb128 0x1
 1700 042d 9C       		.byte	0x9c
 1701 042e 81040000 		.4byte	0x481
 1702 0432 11       		.uleb128 0x11
 1703 0433 39040000 		.4byte	.LASF22
 1704 0437 01       		.byte	0x1
 1705 0438 F602     		.2byte	0x2f6
 1706 043a 6B000000 		.4byte	0x6b
 1707 043e 8D030000 		.4byte	.LLST26
 1708 0442 0F       		.uleb128 0xf
 1709 0443 706F7300 		.ascii	"pos\000"
 1710 0447 01       		.byte	0x1
 1711 0448 F902     		.2byte	0x2f9
 1712 044a 6B000000 		.4byte	0x6b
 1713 044e 01       		.uleb128 0x1
 1714 044f 50       		.byte	0x50
 1715 0450 10       		.uleb128 0x10
 1716 0451 4C030000 		.4byte	.LASF24
 1717 0455 01       		.byte	0x1
 1718 0456 FA02     		.2byte	0x2fa
 1719 0458 6B000000 		.4byte	0x6b
 1720 045c AE030000 		.4byte	.LLST27
 1721 0460 10       		.uleb128 0x10
 1722 0461 01010000 		.4byte	.LASF38
 1723 0465 01       		.byte	0x1
 1724 0466 FB02     		.2byte	0x2fb
 1725 0468 6B000000 		.4byte	0x6b
 1726 046c E3030000 		.4byte	.LLST28
 1727 0470 10       		.uleb128 0x10
 1728 0471 0A010000 		.4byte	.LASF39
 1729 0475 01       		.byte	0x1
 1730 0476 FC02     		.2byte	0x2fc
 1731 0478 6B000000 		.4byte	0x6b
 1732 047c 01040000 		.4byte	.LLST29
 1733 0480 00       		.byte	0
 1734 0481 0D       		.uleb128 0xd
 1735 0482 EA000000 		.4byte	.LASF43
 1736 0486 01       		.byte	0x1
 1737 0487 2803     		.2byte	0x328
ARM GAS  C:\Users\HENRYA~1\AppData\Local\Temp\ccxNFFqA.s 			page 56


 1738 0489 00000000 		.4byte	.LFB10
 1739 048d 38000000 		.4byte	.LFE10-.LFB10
 1740 0491 01       		.uleb128 0x1
 1741 0492 9C       		.byte	0x9c
 1742 0493 E6040000 		.4byte	0x4e6
 1743 0497 11       		.uleb128 0x11
 1744 0498 39040000 		.4byte	.LASF22
 1745 049c 01       		.byte	0x1
 1746 049d 2803     		.2byte	0x328
 1747 049f 6B000000 		.4byte	0x6b
 1748 04a3 14040000 		.4byte	.LLST30
 1749 04a7 0F       		.uleb128 0xf
 1750 04a8 706F7300 		.ascii	"pos\000"
 1751 04ac 01       		.byte	0x1
 1752 04ad 2B03     		.2byte	0x32b
 1753 04af 6B000000 		.4byte	0x6b
 1754 04b3 01       		.uleb128 0x1
 1755 04b4 50       		.byte	0x50
 1756 04b5 10       		.uleb128 0x10
 1757 04b6 4C030000 		.4byte	.LASF24
 1758 04ba 01       		.byte	0x1
 1759 04bb 2C03     		.2byte	0x32c
 1760 04bd 6B000000 		.4byte	0x6b
 1761 04c1 35040000 		.4byte	.LLST31
 1762 04c5 10       		.uleb128 0x10
 1763 04c6 01010000 		.4byte	.LASF38
 1764 04ca 01       		.byte	0x1
 1765 04cb 2D03     		.2byte	0x32d
 1766 04cd 6B000000 		.4byte	0x6b
 1767 04d1 6A040000 		.4byte	.LLST32
 1768 04d5 10       		.uleb128 0x10
 1769 04d6 0A010000 		.4byte	.LASF39
 1770 04da 01       		.byte	0x1
 1771 04db 2E03     		.2byte	0x32e
 1772 04dd 6B000000 		.4byte	0x6b
 1773 04e1 88040000 		.4byte	.LLST33
 1774 04e5 00       		.byte	0
 1775 04e6 12       		.uleb128 0x12
 1776 04e7 73020000 		.4byte	.LASF44
 1777 04eb 01       		.byte	0x1
 1778 04ec 5A03     		.2byte	0x35a
 1779 04ee 6B000000 		.4byte	0x6b
 1780 04f2 00000000 		.4byte	.LFB11
 1781 04f6 2C000000 		.4byte	.LFE11-.LFB11
 1782 04fa 01       		.uleb128 0x1
 1783 04fb 9C       		.byte	0x9c
 1784 04fc 6B050000 		.4byte	0x56b
 1785 0500 11       		.uleb128 0x11
 1786 0501 C5040000 		.4byte	.LASF45
 1787 0505 01       		.byte	0x1
 1788 0506 5A03     		.2byte	0x35a
 1789 0508 6B000000 		.4byte	0x6b
 1790 050c 9B040000 		.4byte	.LLST34
 1791 0510 14       		.uleb128 0x14
 1792 0511 00000000 		.4byte	.LASF46
 1793 0515 01       		.byte	0x1
 1794 0516 5A03     		.2byte	0x35a
ARM GAS  C:\Users\HENRYA~1\AppData\Local\Temp\ccxNFFqA.s 			page 57


 1795 0518 6B000000 		.4byte	0x6b
 1796 051c 01       		.uleb128 0x1
 1797 051d 51       		.byte	0x51
 1798 051e 14       		.uleb128 0x14
 1799 051f 47000000 		.4byte	.LASF33
 1800 0523 01       		.byte	0x1
 1801 0524 5A03     		.2byte	0x35a
 1802 0526 6B000000 		.4byte	0x6b
 1803 052a 01       		.uleb128 0x1
 1804 052b 52       		.byte	0x52
 1805 052c 0E       		.uleb128 0xe
 1806 052d 6900     		.ascii	"i\000"
 1807 052f 01       		.byte	0x1
 1808 0530 5E03     		.2byte	0x35e
 1809 0532 6B000000 		.4byte	0x6b
 1810 0536 BC040000 		.4byte	.LLST35
 1811 053a 10       		.uleb128 0x10
 1812 053b 47040000 		.4byte	.LASF47
 1813 053f 01       		.byte	0x1
 1814 0540 6803     		.2byte	0x368
 1815 0542 6B000000 		.4byte	0x6b
 1816 0546 E6040000 		.4byte	.LLST36
 1817 054a 10       		.uleb128 0x10
 1818 054b CD010000 		.4byte	.LASF48
 1819 054f 01       		.byte	0x1
 1820 0550 6903     		.2byte	0x369
 1821 0552 6B000000 		.4byte	0x6b
 1822 0556 06050000 		.4byte	.LLST37
 1823 055a 10       		.uleb128 0x10
 1824 055b BF010000 		.4byte	.LASF49
 1825 055f 01       		.byte	0x1
 1826 0560 6A03     		.2byte	0x36a
 1827 0562 6B050000 		.4byte	0x56b
 1828 0566 30050000 		.4byte	.LLST38
 1829 056a 00       		.byte	0
 1830 056b 15       		.uleb128 0x15
 1831 056c 04       		.byte	0x4
 1832 056d 6B000000 		.4byte	0x6b
 1833 0571 12       		.uleb128 0x12
 1834 0572 A8050000 		.4byte	.LASF50
 1835 0576 01       		.byte	0x1
 1836 0577 F603     		.2byte	0x3f6
 1837 0579 6B000000 		.4byte	0x6b
 1838 057d 00000000 		.4byte	.LFB12
 1839 0581 B0000000 		.4byte	.LFE12-.LFB12
 1840 0585 01       		.uleb128 0x1
 1841 0586 9C       		.byte	0x9c
 1842 0587 4C060000 		.4byte	0x64c
 1843 058b 11       		.uleb128 0x11
 1844 058c 47040000 		.4byte	.LASF47
 1845 0590 01       		.byte	0x1
 1846 0591 F603     		.2byte	0x3f6
 1847 0593 6B000000 		.4byte	0x6b
 1848 0597 43050000 		.4byte	.LLST39
 1849 059b 11       		.uleb128 0x11
 1850 059c C5040000 		.4byte	.LASF45
 1851 05a0 01       		.byte	0x1
ARM GAS  C:\Users\HENRYA~1\AppData\Local\Temp\ccxNFFqA.s 			page 58


 1852 05a1 F603     		.2byte	0x3f6
 1853 05a3 6B000000 		.4byte	0x6b
 1854 05a7 64050000 		.4byte	.LLST40
 1855 05ab 11       		.uleb128 0x11
 1856 05ac 00000000 		.4byte	.LASF46
 1857 05b0 01       		.byte	0x1
 1858 05b1 F703     		.2byte	0x3f7
 1859 05b3 6B000000 		.4byte	0x6b
 1860 05b7 85050000 		.4byte	.LLST41
 1861 05bb 14       		.uleb128 0x14
 1862 05bc 61040000 		.4byte	.LASF51
 1863 05c0 01       		.byte	0x1
 1864 05c1 F703     		.2byte	0x3f7
 1865 05c3 77000000 		.4byte	0x77
 1866 05c7 01       		.uleb128 0x1
 1867 05c8 53       		.byte	0x53
 1868 05c9 11       		.uleb128 0x11
 1869 05ca 20040000 		.4byte	.LASF29
 1870 05ce 01       		.byte	0x1
 1871 05cf F703     		.2byte	0x3f7
 1872 05d1 6B000000 		.4byte	0x6b
 1873 05d5 A6050000 		.4byte	.LLST42
 1874 05d9 10       		.uleb128 0x10
 1875 05da 57000000 		.4byte	.LASF52
 1876 05de 01       		.byte	0x1
 1877 05df FB03     		.2byte	0x3fb
 1878 05e1 6B000000 		.4byte	0x6b
 1879 05e5 C6050000 		.4byte	.LLST43
 1880 05e9 10       		.uleb128 0x10
 1881 05ea B7010000 		.4byte	.LASF53
 1882 05ee 01       		.byte	0x1
 1883 05ef FC03     		.2byte	0x3fc
 1884 05f1 6B000000 		.4byte	0x6b
 1885 05f5 07060000 		.4byte	.LLST44
 1886 05f9 13       		.uleb128 0x13
 1887 05fa B3040000 		.4byte	.LASF54
 1888 05fe 01       		.byte	0x1
 1889 05ff 0404     		.2byte	0x404
 1890 0601 4C060000 		.4byte	0x64c
 1891 0605 05       		.uleb128 0x5
 1892 0606 03       		.byte	0x3
 1893 0607 04000000 		.4byte	CapSense_centroid.5131
 1894 060b 10       		.uleb128 0x10
 1895 060c F3010000 		.4byte	.LASF55
 1896 0610 01       		.byte	0x1
 1897 0611 0604     		.2byte	0x406
 1898 0613 6B000000 		.4byte	0x6b
 1899 0617 33060000 		.4byte	.LLST45
 1900 061b 10       		.uleb128 0x10
 1901 061c 2F010000 		.4byte	.LASF56
 1902 0620 01       		.byte	0x1
 1903 0621 0704     		.2byte	0x407
 1904 0623 83000000 		.4byte	0x83
 1905 0627 7B060000 		.4byte	.LLST46
 1906 062b 10       		.uleb128 0x10
 1907 062c 59010000 		.4byte	.LASF57
 1908 0630 01       		.byte	0x1
ARM GAS  C:\Users\HENRYA~1\AppData\Local\Temp\ccxNFFqA.s 			page 59


 1909 0631 0804     		.2byte	0x408
 1910 0633 9B000000 		.4byte	0x9b
 1911 0637 C6060000 		.4byte	.LLST47
 1912 063b 10       		.uleb128 0x10
 1913 063c BF010000 		.4byte	.LASF49
 1914 0640 01       		.byte	0x1
 1915 0641 0904     		.2byte	0x409
 1916 0643 6B050000 		.4byte	0x56b
 1917 0647 2E070000 		.4byte	.LLST48
 1918 064b 00       		.byte	0
 1919 064c 16       		.uleb128 0x16
 1920 064d 6B000000 		.4byte	0x6b
 1921 0651 5C060000 		.4byte	0x65c
 1922 0655 17       		.uleb128 0x17
 1923 0656 BC000000 		.4byte	0xbc
 1924 065a 02       		.byte	0x2
 1925 065b 00       		.byte	0
 1926 065c 12       		.uleb128 0x12
 1927 065d 96040000 		.4byte	.LASF58
 1928 0661 01       		.byte	0x1
 1929 0662 C304     		.2byte	0x4c3
 1930 0664 77000000 		.4byte	0x77
 1931 0668 00000000 		.4byte	.LFB13
 1932 066c 48000000 		.4byte	.LFE13-.LFB13
 1933 0670 01       		.uleb128 0x1
 1934 0671 9C       		.byte	0x9c
 1935 0672 FE060000 		.4byte	0x6fe
 1936 0676 11       		.uleb128 0x11
 1937 0677 39040000 		.4byte	.LASF22
 1938 067b 01       		.byte	0x1
 1939 067c C304     		.2byte	0x4c3
 1940 067e 6B000000 		.4byte	0x6b
 1941 0682 57070000 		.4byte	.LLST49
 1942 0686 10       		.uleb128 0x10
 1943 0687 47040000 		.4byte	.LASF47
 1944 068b 01       		.byte	0x1
 1945 068c D604     		.2byte	0x4d6
 1946 068e 6B000000 		.4byte	0x6b
 1947 0692 78070000 		.4byte	.LLST50
 1948 0696 10       		.uleb128 0x10
 1949 0697 F3010000 		.4byte	.LASF55
 1950 069b 01       		.byte	0x1
 1951 069c D704     		.2byte	0x4d7
 1952 069e 77000000 		.4byte	0x77
 1953 06a2 96070000 		.4byte	.LLST51
 1954 06a6 10       		.uleb128 0x10
 1955 06a7 C5040000 		.4byte	.LASF45
 1956 06ab 01       		.byte	0x1
 1957 06ac D804     		.2byte	0x4d8
 1958 06ae 6B000000 		.4byte	0x6b
 1959 06b2 B4070000 		.4byte	.LLST52
 1960 06b6 10       		.uleb128 0x10
 1961 06b7 00000000 		.4byte	.LASF46
 1962 06bb 01       		.byte	0x1
 1963 06bc D904     		.2byte	0x4d9
 1964 06be 6B000000 		.4byte	0x6b
 1965 06c2 C7070000 		.4byte	.LLST53
ARM GAS  C:\Users\HENRYA~1\AppData\Local\Temp\ccxNFFqA.s 			page 60


 1966 06c6 09       		.uleb128 0x9
 1967 06c7 1C000000 		.4byte	.LVL147
 1968 06cb E6040000 		.4byte	0x4e6
 1969 06cf E0060000 		.4byte	0x6e0
 1970 06d3 0A       		.uleb128 0xa
 1971 06d4 01       		.uleb128 0x1
 1972 06d5 51       		.byte	0x51
 1973 06d6 02       		.uleb128 0x2
 1974 06d7 75       		.byte	0x75
 1975 06d8 00       		.sleb128 0
 1976 06d9 0A       		.uleb128 0xa
 1977 06da 01       		.uleb128 0x1
 1978 06db 50       		.byte	0x50
 1979 06dc 02       		.uleb128 0x2
 1980 06dd 76       		.byte	0x76
 1981 06de 00       		.sleb128 0
 1982 06df 00       		.byte	0
 1983 06e0 0C       		.uleb128 0xc
 1984 06e1 34000000 		.4byte	.LVL148
 1985 06e5 71050000 		.4byte	0x571
 1986 06e9 0A       		.uleb128 0xa
 1987 06ea 01       		.uleb128 0x1
 1988 06eb 53       		.byte	0x53
 1989 06ec 03       		.uleb128 0x3
 1990 06ed 0A       		.byte	0xa
 1991 06ee 0019     		.2byte	0x1900
 1992 06f0 0A       		.uleb128 0xa
 1993 06f1 01       		.uleb128 0x1
 1994 06f2 52       		.byte	0x52
 1995 06f3 02       		.uleb128 0x2
 1996 06f4 75       		.byte	0x75
 1997 06f5 00       		.sleb128 0
 1998 06f6 0A       		.uleb128 0xa
 1999 06f7 01       		.uleb128 0x1
 2000 06f8 51       		.byte	0x51
 2001 06f9 02       		.uleb128 0x2
 2002 06fa 76       		.byte	0x76
 2003 06fb 00       		.sleb128 0
 2004 06fc 00       		.byte	0
 2005 06fd 00       		.byte	0
 2006 06fe 16       		.uleb128 0x16
 2007 06ff 77000000 		.4byte	0x77
 2008 0703 0E070000 		.4byte	0x70e
 2009 0707 17       		.uleb128 0x17
 2010 0708 BC000000 		.4byte	0xbc
 2011 070c 06       		.byte	0x6
 2012 070d 00       		.byte	0
 2013 070e 18       		.uleb128 0x18
 2014 070f 95050000 		.4byte	.LASF59
 2015 0713 03       		.byte	0x3
 2016 0714 BF02     		.2byte	0x2bf
 2017 0716 FE060000 		.4byte	0x6fe
 2018 071a 16       		.uleb128 0x16
 2019 071b 6B000000 		.4byte	0x6b
 2020 071f 2A070000 		.4byte	0x72a
 2021 0723 17       		.uleb128 0x17
 2022 0724 BC000000 		.4byte	0xbc
ARM GAS  C:\Users\HENRYA~1\AppData\Local\Temp\ccxNFFqA.s 			page 61


 2023 0728 00       		.byte	0
 2024 0729 00       		.byte	0
 2025 072a 18       		.uleb128 0x18
 2026 072b 59020000 		.4byte	.LASF60
 2027 072f 04       		.byte	0x4
 2028 0730 0501     		.2byte	0x105
 2029 0732 1A070000 		.4byte	0x71a
 2030 0736 16       		.uleb128 0x16
 2031 0737 6B000000 		.4byte	0x6b
 2032 073b 46070000 		.4byte	0x746
 2033 073f 17       		.uleb128 0x17
 2034 0740 BC000000 		.4byte	0xbc
 2035 0744 06       		.byte	0x6
 2036 0745 00       		.byte	0
 2037 0746 18       		.uleb128 0x18
 2038 0747 8F010000 		.4byte	.LASF61
 2039 074b 04       		.byte	0x4
 2040 074c 0601     		.2byte	0x106
 2041 074e 52070000 		.4byte	0x752
 2042 0752 19       		.uleb128 0x19
 2043 0753 36070000 		.4byte	0x736
 2044 0757 1A       		.uleb128 0x1a
 2045 0758 7E040000 		.4byte	.LASF62
 2046 075c 01       		.byte	0x1
 2047 075d 29       		.byte	0x29
 2048 075e FE060000 		.4byte	0x6fe
 2049 0762 05       		.uleb128 0x5
 2050 0763 03       		.byte	0x3
 2051 0764 00000000 		.4byte	CapSense_sensorBaseline
 2052 0768 1A       		.uleb128 0x1a
 2053 0769 0E020000 		.4byte	.LASF63
 2054 076d 01       		.byte	0x1
 2055 076e 2A       		.byte	0x2a
 2056 076f 36070000 		.4byte	0x736
 2057 0773 05       		.uleb128 0x5
 2058 0774 03       		.byte	0x3
 2059 0775 00000000 		.4byte	CapSense_sensorBaselineLow
 2060 0779 1A       		.uleb128 0x1a
 2061 077a 76000000 		.4byte	.LASF64
 2062 077e 01       		.byte	0x1
 2063 077f 2B       		.byte	0x2b
 2064 0780 36070000 		.4byte	0x736
 2065 0784 05       		.uleb128 0x5
 2066 0785 03       		.byte	0x3
 2067 0786 00000000 		.4byte	CapSense_sensorSignal
 2068 078a 1A       		.uleb128 0x1a
 2069 078b 31000000 		.4byte	.LASF65
 2070 078f 01       		.byte	0x1
 2071 0790 2C       		.byte	0x2c
 2072 0791 1A070000 		.4byte	0x71a
 2073 0795 05       		.uleb128 0x5
 2074 0796 03       		.byte	0x3
 2075 0797 00000000 		.4byte	CapSense_sensorOnMask
 2076 079b 1A       		.uleb128 0x1a
 2077 079c C8020000 		.4byte	.LASF66
 2078 07a0 01       		.byte	0x1
 2079 07a1 2E       		.byte	0x2e
ARM GAS  C:\Users\HENRYA~1\AppData\Local\Temp\ccxNFFqA.s 			page 62


 2080 07a2 36070000 		.4byte	0x736
 2081 07a6 05       		.uleb128 0x5
 2082 07a7 03       		.byte	0x3
 2083 07a8 00000000 		.4byte	CapSense_lowBaselineResetCnt
 2084 07ac 1A       		.uleb128 0x1a
 2085 07ad 6B030000 		.4byte	.LASF67
 2086 07b1 01       		.byte	0x1
 2087 07b2 30       		.byte	0x30
 2088 07b3 4C060000 		.4byte	0x64c
 2089 07b7 05       		.uleb128 0x5
 2090 07b8 03       		.byte	0x3
 2091 07b9 00000000 		.4byte	CapSense_fingerThreshold
 2092 07bd 1A       		.uleb128 0x1a
 2093 07be 53030000 		.4byte	.LASF68
 2094 07c2 01       		.byte	0x1
 2095 07c3 34       		.byte	0x34
 2096 07c4 4C060000 		.4byte	0x64c
 2097 07c8 05       		.uleb128 0x5
 2098 07c9 03       		.byte	0x3
 2099 07ca 00000000 		.4byte	CapSense_noiseThreshold
 2100 07ce 1A       		.uleb128 0x1a
 2101 07cf 1D000000 		.4byte	.LASF69
 2102 07d3 01       		.byte	0x1
 2103 07d4 38       		.byte	0x38
 2104 07d5 4C060000 		.4byte	0x64c
 2105 07d9 05       		.uleb128 0x5
 2106 07da 03       		.byte	0x3
 2107 07db 00000000 		.4byte	CapSense_hysteresis
 2108 07df 1A       		.uleb128 0x1a
 2109 07e0 6C040000 		.4byte	.LASF70
 2110 07e4 01       		.byte	0x1
 2111 07e5 3C       		.byte	0x3c
 2112 07e6 4C060000 		.4byte	0x64c
 2113 07ea 05       		.uleb128 0x5
 2114 07eb 03       		.byte	0x3
 2115 07ec 00000000 		.4byte	CapSense_debounce
 2116 07f0 1A       		.uleb128 0x1a
 2117 07f1 DA050000 		.4byte	.LASF71
 2118 07f5 01       		.byte	0x1
 2119 07f6 40       		.byte	0x40
 2120 07f7 4C060000 		.4byte	0x64c
 2121 07fb 05       		.uleb128 0x5
 2122 07fc 03       		.byte	0x3
 2123 07fd 00000000 		.4byte	CapSense_debounceCounter
 2124 0801 1A       		.uleb128 0x1a
 2125 0802 29020000 		.4byte	.LASF72
 2126 0806 01       		.byte	0x1
 2127 0807 44       		.byte	0x44
 2128 0808 12080000 		.4byte	0x812
 2129 080c 05       		.uleb128 0x5
 2130 080d 03       		.byte	0x3
 2131 080e 00000000 		.4byte	CapSense_rawDataIndex
 2132 0812 19       		.uleb128 0x19
 2133 0813 4C060000 		.4byte	0x64c
 2134 0817 1A       		.uleb128 0x1a
 2135 0818 0B060000 		.4byte	.LASF73
 2136 081c 01       		.byte	0x1
ARM GAS  C:\Users\HENRYA~1\AppData\Local\Temp\ccxNFFqA.s 			page 63


 2137 081d 4B       		.byte	0x4b
 2138 081e 28080000 		.4byte	0x828
 2139 0822 05       		.uleb128 0x5
 2140 0823 03       		.byte	0x3
 2141 0824 00000000 		.4byte	CapSense_numberOfSensors
 2142 0828 19       		.uleb128 0x19
 2143 0829 4C060000 		.4byte	0x64c
 2144 082d 16       		.uleb128 0x16
 2145 082e 77000000 		.4byte	0x77
 2146 0832 3D080000 		.4byte	0x83d
 2147 0836 17       		.uleb128 0x17
 2148 0837 BC000000 		.4byte	0xbc
 2149 083b 00       		.byte	0
 2150 083c 00       		.byte	0
 2151 083d 1A       		.uleb128 0x1a
 2152 083e 84030000 		.4byte	.LASF74
 2153 0842 01       		.byte	0x1
 2154 0843 52       		.byte	0x52
 2155 0844 4E080000 		.4byte	0x84e
 2156 0848 05       		.uleb128 0x5
 2157 0849 03       		.byte	0x3
 2158 084a 00000000 		.4byte	CapSense_centroidMult
 2159 084e 19       		.uleb128 0x19
 2160 084f 2D080000 		.4byte	0x82d
 2161 0853 1B       		.uleb128 0x1b
 2162 0854 D2010000 		.4byte	.LASF78
 2163 0858 03       		.byte	0x3
 2164 0859 9A       		.byte	0x9a
 2165 085a 64080000 		.4byte	0x864
 2166 085e 1C       		.uleb128 0x1c
 2167 085f 6B000000 		.4byte	0x6b
 2168 0863 00       		.byte	0
 2169 0864 1D       		.uleb128 0x1d
 2170 0865 FB050000 		.4byte	.LASF79
 2171 0869 03       		.byte	0x3
 2172 086a 99       		.byte	0x99
 2173 086b 6B000000 		.4byte	0x6b
 2174 086f 1E       		.uleb128 0x1e
 2175 0870 BE050000 		.4byte	.LASF80
 2176 0874 03       		.byte	0x3
 2177 0875 9B       		.byte	0x9b
 2178 0876 1F       		.uleb128 0x1f
 2179 0877 AB020000 		.4byte	.LASF81
 2180 087b 04       		.byte	0x4
 2181 087c C2       		.byte	0xc2
 2182 087d 1C       		.uleb128 0x1c
 2183 087e 6B000000 		.4byte	0x6b
 2184 0882 00       		.byte	0
 2185 0883 00       		.byte	0
 2186              		.section	.debug_abbrev,"",%progbits
 2187              	.Ldebug_abbrev0:
 2188 0000 01       		.uleb128 0x1
 2189 0001 11       		.uleb128 0x11
 2190 0002 01       		.byte	0x1
 2191 0003 25       		.uleb128 0x25
 2192 0004 0E       		.uleb128 0xe
 2193 0005 13       		.uleb128 0x13
ARM GAS  C:\Users\HENRYA~1\AppData\Local\Temp\ccxNFFqA.s 			page 64


 2194 0006 0B       		.uleb128 0xb
 2195 0007 03       		.uleb128 0x3
 2196 0008 0E       		.uleb128 0xe
 2197 0009 1B       		.uleb128 0x1b
 2198 000a 0E       		.uleb128 0xe
 2199 000b 55       		.uleb128 0x55
 2200 000c 17       		.uleb128 0x17
 2201 000d 11       		.uleb128 0x11
 2202 000e 01       		.uleb128 0x1
 2203 000f 10       		.uleb128 0x10
 2204 0010 17       		.uleb128 0x17
 2205 0011 00       		.byte	0
 2206 0012 00       		.byte	0
 2207 0013 02       		.uleb128 0x2
 2208 0014 24       		.uleb128 0x24
 2209 0015 00       		.byte	0
 2210 0016 0B       		.uleb128 0xb
 2211 0017 0B       		.uleb128 0xb
 2212 0018 3E       		.uleb128 0x3e
 2213 0019 0B       		.uleb128 0xb
 2214 001a 03       		.uleb128 0x3
 2215 001b 0E       		.uleb128 0xe
 2216 001c 00       		.byte	0
 2217 001d 00       		.byte	0
 2218 001e 03       		.uleb128 0x3
 2219 001f 24       		.uleb128 0x24
 2220 0020 00       		.byte	0
 2221 0021 0B       		.uleb128 0xb
 2222 0022 0B       		.uleb128 0xb
 2223 0023 3E       		.uleb128 0x3e
 2224 0024 0B       		.uleb128 0xb
 2225 0025 03       		.uleb128 0x3
 2226 0026 08       		.uleb128 0x8
 2227 0027 00       		.byte	0
 2228 0028 00       		.byte	0
 2229 0029 04       		.uleb128 0x4
 2230 002a 16       		.uleb128 0x16
 2231 002b 00       		.byte	0
 2232 002c 03       		.uleb128 0x3
 2233 002d 0E       		.uleb128 0xe
 2234 002e 3A       		.uleb128 0x3a
 2235 002f 0B       		.uleb128 0xb
 2236 0030 3B       		.uleb128 0x3b
 2237 0031 05       		.uleb128 0x5
 2238 0032 49       		.uleb128 0x49
 2239 0033 13       		.uleb128 0x13
 2240 0034 00       		.byte	0
 2241 0035 00       		.byte	0
 2242 0036 05       		.uleb128 0x5
 2243 0037 2E       		.uleb128 0x2e
 2244 0038 01       		.byte	0x1
 2245 0039 3F       		.uleb128 0x3f
 2246 003a 19       		.uleb128 0x19
 2247 003b 03       		.uleb128 0x3
 2248 003c 0E       		.uleb128 0xe
 2249 003d 3A       		.uleb128 0x3a
 2250 003e 0B       		.uleb128 0xb
ARM GAS  C:\Users\HENRYA~1\AppData\Local\Temp\ccxNFFqA.s 			page 65


 2251 003f 3B       		.uleb128 0x3b
 2252 0040 0B       		.uleb128 0xb
 2253 0041 27       		.uleb128 0x27
 2254 0042 19       		.uleb128 0x19
 2255 0043 11       		.uleb128 0x11
 2256 0044 01       		.uleb128 0x1
 2257 0045 12       		.uleb128 0x12
 2258 0046 06       		.uleb128 0x6
 2259 0047 40       		.uleb128 0x40
 2260 0048 18       		.uleb128 0x18
 2261 0049 9742     		.uleb128 0x2117
 2262 004b 19       		.uleb128 0x19
 2263 004c 01       		.uleb128 0x1
 2264 004d 13       		.uleb128 0x13
 2265 004e 00       		.byte	0
 2266 004f 00       		.byte	0
 2267 0050 06       		.uleb128 0x6
 2268 0051 05       		.uleb128 0x5
 2269 0052 00       		.byte	0
 2270 0053 03       		.uleb128 0x3
 2271 0054 0E       		.uleb128 0xe
 2272 0055 3A       		.uleb128 0x3a
 2273 0056 0B       		.uleb128 0xb
 2274 0057 3B       		.uleb128 0x3b
 2275 0058 0B       		.uleb128 0xb
 2276 0059 49       		.uleb128 0x49
 2277 005a 13       		.uleb128 0x13
 2278 005b 02       		.uleb128 0x2
 2279 005c 18       		.uleb128 0x18
 2280 005d 00       		.byte	0
 2281 005e 00       		.byte	0
 2282 005f 07       		.uleb128 0x7
 2283 0060 34       		.uleb128 0x34
 2284 0061 00       		.byte	0
 2285 0062 03       		.uleb128 0x3
 2286 0063 0E       		.uleb128 0xe
 2287 0064 3A       		.uleb128 0x3a
 2288 0065 0B       		.uleb128 0xb
 2289 0066 3B       		.uleb128 0x3b
 2290 0067 0B       		.uleb128 0xb
 2291 0068 49       		.uleb128 0x49
 2292 0069 13       		.uleb128 0x13
 2293 006a 02       		.uleb128 0x2
 2294 006b 17       		.uleb128 0x17
 2295 006c 00       		.byte	0
 2296 006d 00       		.byte	0
 2297 006e 08       		.uleb128 0x8
 2298 006f 05       		.uleb128 0x5
 2299 0070 00       		.byte	0
 2300 0071 03       		.uleb128 0x3
 2301 0072 0E       		.uleb128 0xe
 2302 0073 3A       		.uleb128 0x3a
 2303 0074 0B       		.uleb128 0xb
 2304 0075 3B       		.uleb128 0x3b
 2305 0076 0B       		.uleb128 0xb
 2306 0077 49       		.uleb128 0x49
 2307 0078 13       		.uleb128 0x13
ARM GAS  C:\Users\HENRYA~1\AppData\Local\Temp\ccxNFFqA.s 			page 66


 2308 0079 02       		.uleb128 0x2
 2309 007a 17       		.uleb128 0x17
 2310 007b 00       		.byte	0
 2311 007c 00       		.byte	0
 2312 007d 09       		.uleb128 0x9
 2313 007e 898201   		.uleb128 0x4109
 2314 0081 01       		.byte	0x1
 2315 0082 11       		.uleb128 0x11
 2316 0083 01       		.uleb128 0x1
 2317 0084 31       		.uleb128 0x31
 2318 0085 13       		.uleb128 0x13
 2319 0086 01       		.uleb128 0x1
 2320 0087 13       		.uleb128 0x13
 2321 0088 00       		.byte	0
 2322 0089 00       		.byte	0
 2323 008a 0A       		.uleb128 0xa
 2324 008b 8A8201   		.uleb128 0x410a
 2325 008e 00       		.byte	0
 2326 008f 02       		.uleb128 0x2
 2327 0090 18       		.uleb128 0x18
 2328 0091 9142     		.uleb128 0x2111
 2329 0093 18       		.uleb128 0x18
 2330 0094 00       		.byte	0
 2331 0095 00       		.byte	0
 2332 0096 0B       		.uleb128 0xb
 2333 0097 898201   		.uleb128 0x4109
 2334 009a 00       		.byte	0
 2335 009b 11       		.uleb128 0x11
 2336 009c 01       		.uleb128 0x1
 2337 009d 31       		.uleb128 0x31
 2338 009e 13       		.uleb128 0x13
 2339 009f 00       		.byte	0
 2340 00a0 00       		.byte	0
 2341 00a1 0C       		.uleb128 0xc
 2342 00a2 898201   		.uleb128 0x4109
 2343 00a5 01       		.byte	0x1
 2344 00a6 11       		.uleb128 0x11
 2345 00a7 01       		.uleb128 0x1
 2346 00a8 31       		.uleb128 0x31
 2347 00a9 13       		.uleb128 0x13
 2348 00aa 00       		.byte	0
 2349 00ab 00       		.byte	0
 2350 00ac 0D       		.uleb128 0xd
 2351 00ad 2E       		.uleb128 0x2e
 2352 00ae 01       		.byte	0x1
 2353 00af 3F       		.uleb128 0x3f
 2354 00b0 19       		.uleb128 0x19
 2355 00b1 03       		.uleb128 0x3
 2356 00b2 0E       		.uleb128 0xe
 2357 00b3 3A       		.uleb128 0x3a
 2358 00b4 0B       		.uleb128 0xb
 2359 00b5 3B       		.uleb128 0x3b
 2360 00b6 05       		.uleb128 0x5
 2361 00b7 27       		.uleb128 0x27
 2362 00b8 19       		.uleb128 0x19
 2363 00b9 11       		.uleb128 0x11
 2364 00ba 01       		.uleb128 0x1
ARM GAS  C:\Users\HENRYA~1\AppData\Local\Temp\ccxNFFqA.s 			page 67


 2365 00bb 12       		.uleb128 0x12
 2366 00bc 06       		.uleb128 0x6
 2367 00bd 40       		.uleb128 0x40
 2368 00be 18       		.uleb128 0x18
 2369 00bf 9742     		.uleb128 0x2117
 2370 00c1 19       		.uleb128 0x19
 2371 00c2 01       		.uleb128 0x1
 2372 00c3 13       		.uleb128 0x13
 2373 00c4 00       		.byte	0
 2374 00c5 00       		.byte	0
 2375 00c6 0E       		.uleb128 0xe
 2376 00c7 34       		.uleb128 0x34
 2377 00c8 00       		.byte	0
 2378 00c9 03       		.uleb128 0x3
 2379 00ca 08       		.uleb128 0x8
 2380 00cb 3A       		.uleb128 0x3a
 2381 00cc 0B       		.uleb128 0xb
 2382 00cd 3B       		.uleb128 0x3b
 2383 00ce 05       		.uleb128 0x5
 2384 00cf 49       		.uleb128 0x49
 2385 00d0 13       		.uleb128 0x13
 2386 00d1 02       		.uleb128 0x2
 2387 00d2 17       		.uleb128 0x17
 2388 00d3 00       		.byte	0
 2389 00d4 00       		.byte	0
 2390 00d5 0F       		.uleb128 0xf
 2391 00d6 34       		.uleb128 0x34
 2392 00d7 00       		.byte	0
 2393 00d8 03       		.uleb128 0x3
 2394 00d9 08       		.uleb128 0x8
 2395 00da 3A       		.uleb128 0x3a
 2396 00db 0B       		.uleb128 0xb
 2397 00dc 3B       		.uleb128 0x3b
 2398 00dd 05       		.uleb128 0x5
 2399 00de 49       		.uleb128 0x49
 2400 00df 13       		.uleb128 0x13
 2401 00e0 02       		.uleb128 0x2
 2402 00e1 18       		.uleb128 0x18
 2403 00e2 00       		.byte	0
 2404 00e3 00       		.byte	0
 2405 00e4 10       		.uleb128 0x10
 2406 00e5 34       		.uleb128 0x34
 2407 00e6 00       		.byte	0
 2408 00e7 03       		.uleb128 0x3
 2409 00e8 0E       		.uleb128 0xe
 2410 00e9 3A       		.uleb128 0x3a
 2411 00ea 0B       		.uleb128 0xb
 2412 00eb 3B       		.uleb128 0x3b
 2413 00ec 05       		.uleb128 0x5
 2414 00ed 49       		.uleb128 0x49
 2415 00ee 13       		.uleb128 0x13
 2416 00ef 02       		.uleb128 0x2
 2417 00f0 17       		.uleb128 0x17
 2418 00f1 00       		.byte	0
 2419 00f2 00       		.byte	0
 2420 00f3 11       		.uleb128 0x11
 2421 00f4 05       		.uleb128 0x5
ARM GAS  C:\Users\HENRYA~1\AppData\Local\Temp\ccxNFFqA.s 			page 68


 2422 00f5 00       		.byte	0
 2423 00f6 03       		.uleb128 0x3
 2424 00f7 0E       		.uleb128 0xe
 2425 00f8 3A       		.uleb128 0x3a
 2426 00f9 0B       		.uleb128 0xb
 2427 00fa 3B       		.uleb128 0x3b
 2428 00fb 05       		.uleb128 0x5
 2429 00fc 49       		.uleb128 0x49
 2430 00fd 13       		.uleb128 0x13
 2431 00fe 02       		.uleb128 0x2
 2432 00ff 17       		.uleb128 0x17
 2433 0100 00       		.byte	0
 2434 0101 00       		.byte	0
 2435 0102 12       		.uleb128 0x12
 2436 0103 2E       		.uleb128 0x2e
 2437 0104 01       		.byte	0x1
 2438 0105 3F       		.uleb128 0x3f
 2439 0106 19       		.uleb128 0x19
 2440 0107 03       		.uleb128 0x3
 2441 0108 0E       		.uleb128 0xe
 2442 0109 3A       		.uleb128 0x3a
 2443 010a 0B       		.uleb128 0xb
 2444 010b 3B       		.uleb128 0x3b
 2445 010c 05       		.uleb128 0x5
 2446 010d 27       		.uleb128 0x27
 2447 010e 19       		.uleb128 0x19
 2448 010f 49       		.uleb128 0x49
 2449 0110 13       		.uleb128 0x13
 2450 0111 11       		.uleb128 0x11
 2451 0112 01       		.uleb128 0x1
 2452 0113 12       		.uleb128 0x12
 2453 0114 06       		.uleb128 0x6
 2454 0115 40       		.uleb128 0x40
 2455 0116 18       		.uleb128 0x18
 2456 0117 9742     		.uleb128 0x2117
 2457 0119 19       		.uleb128 0x19
 2458 011a 01       		.uleb128 0x1
 2459 011b 13       		.uleb128 0x13
 2460 011c 00       		.byte	0
 2461 011d 00       		.byte	0
 2462 011e 13       		.uleb128 0x13
 2463 011f 34       		.uleb128 0x34
 2464 0120 00       		.byte	0
 2465 0121 03       		.uleb128 0x3
 2466 0122 0E       		.uleb128 0xe
 2467 0123 3A       		.uleb128 0x3a
 2468 0124 0B       		.uleb128 0xb
 2469 0125 3B       		.uleb128 0x3b
 2470 0126 05       		.uleb128 0x5
 2471 0127 49       		.uleb128 0x49
 2472 0128 13       		.uleb128 0x13
 2473 0129 02       		.uleb128 0x2
 2474 012a 18       		.uleb128 0x18
 2475 012b 00       		.byte	0
 2476 012c 00       		.byte	0
 2477 012d 14       		.uleb128 0x14
 2478 012e 05       		.uleb128 0x5
ARM GAS  C:\Users\HENRYA~1\AppData\Local\Temp\ccxNFFqA.s 			page 69


 2479 012f 00       		.byte	0
 2480 0130 03       		.uleb128 0x3
 2481 0131 0E       		.uleb128 0xe
 2482 0132 3A       		.uleb128 0x3a
 2483 0133 0B       		.uleb128 0xb
 2484 0134 3B       		.uleb128 0x3b
 2485 0135 05       		.uleb128 0x5
 2486 0136 49       		.uleb128 0x49
 2487 0137 13       		.uleb128 0x13
 2488 0138 02       		.uleb128 0x2
 2489 0139 18       		.uleb128 0x18
 2490 013a 00       		.byte	0
 2491 013b 00       		.byte	0
 2492 013c 15       		.uleb128 0x15
 2493 013d 0F       		.uleb128 0xf
 2494 013e 00       		.byte	0
 2495 013f 0B       		.uleb128 0xb
 2496 0140 0B       		.uleb128 0xb
 2497 0141 49       		.uleb128 0x49
 2498 0142 13       		.uleb128 0x13
 2499 0143 00       		.byte	0
 2500 0144 00       		.byte	0
 2501 0145 16       		.uleb128 0x16
 2502 0146 01       		.uleb128 0x1
 2503 0147 01       		.byte	0x1
 2504 0148 49       		.uleb128 0x49
 2505 0149 13       		.uleb128 0x13
 2506 014a 01       		.uleb128 0x1
 2507 014b 13       		.uleb128 0x13
 2508 014c 00       		.byte	0
 2509 014d 00       		.byte	0
 2510 014e 17       		.uleb128 0x17
 2511 014f 21       		.uleb128 0x21
 2512 0150 00       		.byte	0
 2513 0151 49       		.uleb128 0x49
 2514 0152 13       		.uleb128 0x13
 2515 0153 2F       		.uleb128 0x2f
 2516 0154 0B       		.uleb128 0xb
 2517 0155 00       		.byte	0
 2518 0156 00       		.byte	0
 2519 0157 18       		.uleb128 0x18
 2520 0158 34       		.uleb128 0x34
 2521 0159 00       		.byte	0
 2522 015a 03       		.uleb128 0x3
 2523 015b 0E       		.uleb128 0xe
 2524 015c 3A       		.uleb128 0x3a
 2525 015d 0B       		.uleb128 0xb
 2526 015e 3B       		.uleb128 0x3b
 2527 015f 05       		.uleb128 0x5
 2528 0160 49       		.uleb128 0x49
 2529 0161 13       		.uleb128 0x13
 2530 0162 3F       		.uleb128 0x3f
 2531 0163 19       		.uleb128 0x19
 2532 0164 3C       		.uleb128 0x3c
 2533 0165 19       		.uleb128 0x19
 2534 0166 00       		.byte	0
 2535 0167 00       		.byte	0
ARM GAS  C:\Users\HENRYA~1\AppData\Local\Temp\ccxNFFqA.s 			page 70


 2536 0168 19       		.uleb128 0x19
 2537 0169 26       		.uleb128 0x26
 2538 016a 00       		.byte	0
 2539 016b 49       		.uleb128 0x49
 2540 016c 13       		.uleb128 0x13
 2541 016d 00       		.byte	0
 2542 016e 00       		.byte	0
 2543 016f 1A       		.uleb128 0x1a
 2544 0170 34       		.uleb128 0x34
 2545 0171 00       		.byte	0
 2546 0172 03       		.uleb128 0x3
 2547 0173 0E       		.uleb128 0xe
 2548 0174 3A       		.uleb128 0x3a
 2549 0175 0B       		.uleb128 0xb
 2550 0176 3B       		.uleb128 0x3b
 2551 0177 0B       		.uleb128 0xb
 2552 0178 49       		.uleb128 0x49
 2553 0179 13       		.uleb128 0x13
 2554 017a 3F       		.uleb128 0x3f
 2555 017b 19       		.uleb128 0x19
 2556 017c 02       		.uleb128 0x2
 2557 017d 18       		.uleb128 0x18
 2558 017e 00       		.byte	0
 2559 017f 00       		.byte	0
 2560 0180 1B       		.uleb128 0x1b
 2561 0181 2E       		.uleb128 0x2e
 2562 0182 01       		.byte	0x1
 2563 0183 3F       		.uleb128 0x3f
 2564 0184 19       		.uleb128 0x19
 2565 0185 03       		.uleb128 0x3
 2566 0186 0E       		.uleb128 0xe
 2567 0187 3A       		.uleb128 0x3a
 2568 0188 0B       		.uleb128 0xb
 2569 0189 3B       		.uleb128 0x3b
 2570 018a 0B       		.uleb128 0xb
 2571 018b 27       		.uleb128 0x27
 2572 018c 19       		.uleb128 0x19
 2573 018d 3C       		.uleb128 0x3c
 2574 018e 19       		.uleb128 0x19
 2575 018f 01       		.uleb128 0x1
 2576 0190 13       		.uleb128 0x13
 2577 0191 00       		.byte	0
 2578 0192 00       		.byte	0
 2579 0193 1C       		.uleb128 0x1c
 2580 0194 05       		.uleb128 0x5
 2581 0195 00       		.byte	0
 2582 0196 49       		.uleb128 0x49
 2583 0197 13       		.uleb128 0x13
 2584 0198 00       		.byte	0
 2585 0199 00       		.byte	0
 2586 019a 1D       		.uleb128 0x1d
 2587 019b 2E       		.uleb128 0x2e
 2588 019c 00       		.byte	0
 2589 019d 3F       		.uleb128 0x3f
 2590 019e 19       		.uleb128 0x19
 2591 019f 03       		.uleb128 0x3
 2592 01a0 0E       		.uleb128 0xe
ARM GAS  C:\Users\HENRYA~1\AppData\Local\Temp\ccxNFFqA.s 			page 71


 2593 01a1 3A       		.uleb128 0x3a
 2594 01a2 0B       		.uleb128 0xb
 2595 01a3 3B       		.uleb128 0x3b
 2596 01a4 0B       		.uleb128 0xb
 2597 01a5 27       		.uleb128 0x27
 2598 01a6 19       		.uleb128 0x19
 2599 01a7 49       		.uleb128 0x49
 2600 01a8 13       		.uleb128 0x13
 2601 01a9 3C       		.uleb128 0x3c
 2602 01aa 19       		.uleb128 0x19
 2603 01ab 00       		.byte	0
 2604 01ac 00       		.byte	0
 2605 01ad 1E       		.uleb128 0x1e
 2606 01ae 2E       		.uleb128 0x2e
 2607 01af 00       		.byte	0
 2608 01b0 3F       		.uleb128 0x3f
 2609 01b1 19       		.uleb128 0x19
 2610 01b2 03       		.uleb128 0x3
 2611 01b3 0E       		.uleb128 0xe
 2612 01b4 3A       		.uleb128 0x3a
 2613 01b5 0B       		.uleb128 0xb
 2614 01b6 3B       		.uleb128 0x3b
 2615 01b7 0B       		.uleb128 0xb
 2616 01b8 27       		.uleb128 0x27
 2617 01b9 19       		.uleb128 0x19
 2618 01ba 3C       		.uleb128 0x3c
 2619 01bb 19       		.uleb128 0x19
 2620 01bc 00       		.byte	0
 2621 01bd 00       		.byte	0
 2622 01be 1F       		.uleb128 0x1f
 2623 01bf 2E       		.uleb128 0x2e
 2624 01c0 01       		.byte	0x1
 2625 01c1 3F       		.uleb128 0x3f
 2626 01c2 19       		.uleb128 0x19
 2627 01c3 03       		.uleb128 0x3
 2628 01c4 0E       		.uleb128 0xe
 2629 01c5 3A       		.uleb128 0x3a
 2630 01c6 0B       		.uleb128 0xb
 2631 01c7 3B       		.uleb128 0x3b
 2632 01c8 0B       		.uleb128 0xb
 2633 01c9 27       		.uleb128 0x27
 2634 01ca 19       		.uleb128 0x19
 2635 01cb 3C       		.uleb128 0x3c
 2636 01cc 19       		.uleb128 0x19
 2637 01cd 00       		.byte	0
 2638 01ce 00       		.byte	0
 2639 01cf 00       		.byte	0
 2640              		.section	.debug_loc,"",%progbits
 2641              	.Ldebug_loc0:
 2642              	.LLST0:
 2643 0000 04000000 		.4byte	.LVL1
 2644 0004 24000000 		.4byte	.LVL2
 2645 0008 0100     		.2byte	0x1
 2646 000a 53       		.byte	0x53
 2647 000b 24000000 		.4byte	.LVL2
 2648 000f 26000000 		.4byte	.LVL3
 2649 0013 0300     		.2byte	0x3
ARM GAS  C:\Users\HENRYA~1\AppData\Local\Temp\ccxNFFqA.s 			page 72


 2650 0015 72       		.byte	0x72
 2651 0016 01       		.sleb128 1
 2652 0017 9F       		.byte	0x9f
 2653 0018 00000000 		.4byte	0
 2654 001c 00000000 		.4byte	0
 2655              	.LLST1:
 2656 0020 00000000 		.4byte	.LVL4
 2657 0024 07000000 		.4byte	.LVL5-1
 2658 0028 0100     		.2byte	0x1
 2659 002a 50       		.byte	0x50
 2660 002b 07000000 		.4byte	.LVL5-1
 2661 002f 18000000 		.4byte	.LFE1
 2662 0033 0400     		.2byte	0x4
 2663 0035 F3       		.byte	0xf3
 2664 0036 01       		.uleb128 0x1
 2665 0037 50       		.byte	0x50
 2666 0038 9F       		.byte	0x9f
 2667 0039 00000000 		.4byte	0
 2668 003d 00000000 		.4byte	0
 2669              	.LLST2:
 2670 0041 02000000 		.4byte	.LVL8
 2671 0045 06000000 		.4byte	.LVL9
 2672 0049 0200     		.2byte	0x2
 2673 004b 30       		.byte	0x30
 2674 004c 9F       		.byte	0x9f
 2675 004d 06000000 		.4byte	.LVL9
 2676 0051 0E000000 		.4byte	.LVL11
 2677 0055 0100     		.2byte	0x1
 2678 0057 54       		.byte	0x54
 2679 0058 10000000 		.4byte	.LVL12
 2680 005c 16000000 		.4byte	.LFE2
 2681 0060 0100     		.2byte	0x1
 2682 0062 54       		.byte	0x54
 2683 0063 00000000 		.4byte	0
 2684 0067 00000000 		.4byte	0
 2685              	.LLST3:
 2686 006b 12000000 		.4byte	.LVL15
 2687 006f 34000000 		.4byte	.LVL19
 2688 0073 0100     		.2byte	0x1
 2689 0075 54       		.byte	0x54
 2690 0076 36000000 		.4byte	.LVL20
 2691 007a 3C000000 		.4byte	.LVL21
 2692 007e 0100     		.2byte	0x1
 2693 0080 54       		.byte	0x54
 2694 0081 00000000 		.4byte	0
 2695 0085 00000000 		.4byte	0
 2696              	.LLST4:
 2697 0089 1C000000 		.4byte	.LVL16
 2698 008d 28000000 		.4byte	.LVL17
 2699 0091 0100     		.2byte	0x1
 2700 0093 53       		.byte	0x53
 2701 0094 28000000 		.4byte	.LVL17
 2702 0098 34000000 		.4byte	.LVL19
 2703 009c 0700     		.2byte	0x7
 2704 009e 31       		.byte	0x31
 2705 009f 74       		.byte	0x74
 2706 00a0 00       		.sleb128 0
ARM GAS  C:\Users\HENRYA~1\AppData\Local\Temp\ccxNFFqA.s 			page 73


 2707 00a1 37       		.byte	0x37
 2708 00a2 1A       		.byte	0x1a
 2709 00a3 24       		.byte	0x24
 2710 00a4 9F       		.byte	0x9f
 2711 00a5 34000000 		.4byte	.LVL19
 2712 00a9 36000000 		.4byte	.LVL20
 2713 00ad 0700     		.2byte	0x7
 2714 00af 31       		.byte	0x31
 2715 00b0 74       		.byte	0x74
 2716 00b1 7F       		.sleb128 -1
 2717 00b2 37       		.byte	0x37
 2718 00b3 1A       		.byte	0x1a
 2719 00b4 24       		.byte	0x24
 2720 00b5 9F       		.byte	0x9f
 2721 00b6 00000000 		.4byte	0
 2722 00ba 00000000 		.4byte	0
 2723              	.LLST5:
 2724 00be 00000000 		.4byte	.LVL22
 2725 00c2 19000000 		.4byte	.LVL28-1
 2726 00c6 0100     		.2byte	0x1
 2727 00c8 50       		.byte	0x50
 2728 00c9 19000000 		.4byte	.LVL28-1
 2729 00cd C8000000 		.4byte	.LFE4
 2730 00d1 0400     		.2byte	0x4
 2731 00d3 F3       		.byte	0xf3
 2732 00d4 01       		.uleb128 0x1
 2733 00d5 50       		.byte	0x50
 2734 00d6 9F       		.byte	0x9f
 2735 00d7 00000000 		.4byte	0
 2736 00db 00000000 		.4byte	0
 2737              	.LLST6:
 2738 00df 66000000 		.4byte	.LVL34
 2739 00e3 6E000000 		.4byte	.LVL35
 2740 00e7 0500     		.2byte	0x5
 2741 00e9 72       		.byte	0x72
 2742 00ea 00       		.sleb128 0
 2743 00eb 38       		.byte	0x38
 2744 00ec 24       		.byte	0x24
 2745 00ed 9F       		.byte	0x9f
 2746 00ee 6E000000 		.4byte	.LVL35
 2747 00f2 82000000 		.4byte	.LVL38
 2748 00f6 0100     		.2byte	0x1
 2749 00f8 53       		.byte	0x53
 2750 00f9 00000000 		.4byte	0
 2751 00fd 00000000 		.4byte	0
 2752              	.LLST7:
 2753 0101 2A000000 		.4byte	.LVL29
 2754 0105 2E000000 		.4byte	.LVL30
 2755 0109 0100     		.2byte	0x1
 2756 010b 55       		.byte	0x55
 2757 010c 34000000 		.4byte	.LVL31
 2758 0110 AC000000 		.4byte	.LVL42
 2759 0114 0100     		.2byte	0x1
 2760 0116 55       		.byte	0x55
 2761 0117 00000000 		.4byte	0
 2762 011b 00000000 		.4byte	0
 2763              	.LLST8:
ARM GAS  C:\Users\HENRYA~1\AppData\Local\Temp\ccxNFFqA.s 			page 74


 2764 011f 16000000 		.4byte	.LVL27
 2765 0123 AC000000 		.4byte	.LVL42
 2766 0127 0100     		.2byte	0x1
 2767 0129 58       		.byte	0x58
 2768 012a 00000000 		.4byte	0
 2769 012e 00000000 		.4byte	0
 2770              	.LLST9:
 2771 0132 0A000000 		.4byte	.LVL23
 2772 0136 0E000000 		.4byte	.LVL24
 2773 013a 0100     		.2byte	0x1
 2774 013c 53       		.byte	0x53
 2775 013d 0E000000 		.4byte	.LVL24
 2776 0141 12000000 		.4byte	.LVL26
 2777 0145 0900     		.2byte	0x9
 2778 0147 73       		.byte	0x73
 2779 0148 00       		.sleb128 0
 2780 0149 03       		.byte	0x3
 2781 014a 00000000 		.4byte	.LANCHOR0
 2782 014e 1C       		.byte	0x1c
 2783 014f 9F       		.byte	0x9f
 2784 0150 2A000000 		.4byte	.LVL29
 2785 0154 2E000000 		.4byte	.LVL30
 2786 0158 0200     		.2byte	0x2
 2787 015a 31       		.byte	0x31
 2788 015b 9F       		.byte	0x9f
 2789 015c 34000000 		.4byte	.LVL31
 2790 0160 36000000 		.4byte	.LVL32
 2791 0164 0200     		.2byte	0x2
 2792 0166 30       		.byte	0x30
 2793 0167 9F       		.byte	0x9f
 2794 0168 36000000 		.4byte	.LVL32
 2795 016c AC000000 		.4byte	.LVL42
 2796 0170 0100     		.2byte	0x1
 2797 0172 57       		.byte	0x57
 2798 0173 00000000 		.4byte	0
 2799 0177 00000000 		.4byte	0
 2800              	.LLST10:
 2801 017b 10000000 		.4byte	.LVL25
 2802 017f 86000000 		.4byte	.LVL39
 2803 0183 0100     		.2byte	0x1
 2804 0185 56       		.byte	0x56
 2805 0186 00000000 		.4byte	0
 2806 018a 00000000 		.4byte	0
 2807              	.LLST11:
 2808 018e 02000000 		.4byte	.LVL43
 2809 0192 06000000 		.4byte	.LVL44
 2810 0196 0200     		.2byte	0x2
 2811 0198 30       		.byte	0x30
 2812 0199 9F       		.byte	0x9f
 2813 019a 06000000 		.4byte	.LVL44
 2814 019e 20000000 		.4byte	.LVL47
 2815 01a2 0100     		.2byte	0x1
 2816 01a4 54       		.byte	0x54
 2817 01a5 22000000 		.4byte	.LVL48
 2818 01a9 28000000 		.4byte	.LVL49
 2819 01ad 0100     		.2byte	0x1
 2820 01af 54       		.byte	0x54
ARM GAS  C:\Users\HENRYA~1\AppData\Local\Temp\ccxNFFqA.s 			page 75


 2821 01b0 00000000 		.4byte	0
 2822 01b4 00000000 		.4byte	0
 2823              	.LLST12:
 2824 01b8 10000000 		.4byte	.LVL45
 2825 01bc 1D000000 		.4byte	.LVL46-1
 2826 01c0 0100     		.2byte	0x1
 2827 01c2 53       		.byte	0x53
 2828 01c3 1D000000 		.4byte	.LVL46-1
 2829 01c7 20000000 		.4byte	.LVL47
 2830 01cb 0700     		.2byte	0x7
 2831 01cd 31       		.byte	0x31
 2832 01ce 74       		.byte	0x74
 2833 01cf 00       		.sleb128 0
 2834 01d0 37       		.byte	0x37
 2835 01d1 1A       		.byte	0x1a
 2836 01d2 24       		.byte	0x24
 2837 01d3 9F       		.byte	0x9f
 2838 01d4 20000000 		.4byte	.LVL47
 2839 01d8 22000000 		.4byte	.LVL48
 2840 01dc 0700     		.2byte	0x7
 2841 01de 31       		.byte	0x31
 2842 01df 74       		.byte	0x74
 2843 01e0 7F       		.sleb128 -1
 2844 01e1 37       		.byte	0x37
 2845 01e2 1A       		.byte	0x1a
 2846 01e3 24       		.byte	0x24
 2847 01e4 9F       		.byte	0x9f
 2848 01e5 00000000 		.4byte	0
 2849 01e9 00000000 		.4byte	0
 2850              	.LLST13:
 2851 01ed 00000000 		.4byte	.LVL50
 2852 01f1 3C000000 		.4byte	.LVL62
 2853 01f5 0100     		.2byte	0x1
 2854 01f7 50       		.byte	0x50
 2855 01f8 3C000000 		.4byte	.LVL62
 2856 01fc 50000000 		.4byte	.LVL64
 2857 0200 0400     		.2byte	0x4
 2858 0202 F3       		.byte	0xf3
 2859 0203 01       		.uleb128 0x1
 2860 0204 50       		.byte	0x50
 2861 0205 9F       		.byte	0x9f
 2862 0206 50000000 		.4byte	.LVL64
 2863 020a 58000000 		.4byte	.LVL65
 2864 020e 0100     		.2byte	0x1
 2865 0210 50       		.byte	0x50
 2866 0211 58000000 		.4byte	.LVL65
 2867 0215 9C000000 		.4byte	.LFE6
 2868 0219 0400     		.2byte	0x4
 2869 021b F3       		.byte	0xf3
 2870 021c 01       		.uleb128 0x1
 2871 021d 50       		.byte	0x50
 2872 021e 9F       		.byte	0x9f
 2873 021f 00000000 		.4byte	0
 2874 0223 00000000 		.4byte	0
 2875              	.LLST14:
 2876 0227 1E000000 		.4byte	.LVL57
 2877 022b 28000000 		.4byte	.LVL59
ARM GAS  C:\Users\HENRYA~1\AppData\Local\Temp\ccxNFFqA.s 			page 76


 2878 022f 0200     		.2byte	0x2
 2879 0231 32       		.byte	0x32
 2880 0232 9F       		.byte	0x9f
 2881 0233 2C000000 		.4byte	.LVL61
 2882 0237 64000000 		.4byte	.LVL67
 2883 023b 0100     		.2byte	0x1
 2884 023d 52       		.byte	0x52
 2885 023e 76000000 		.4byte	.LVL68
 2886 0242 7A000000 		.4byte	.LVL69
 2887 0246 0100     		.2byte	0x1
 2888 0248 52       		.byte	0x52
 2889 0249 00000000 		.4byte	0
 2890 024d 00000000 		.4byte	0
 2891              	.LLST15:
 2892 0251 04000000 		.4byte	.LVL51
 2893 0255 86000000 		.4byte	.LVL70
 2894 0259 0100     		.2byte	0x1
 2895 025b 54       		.byte	0x54
 2896 025c 00000000 		.4byte	0
 2897 0260 00000000 		.4byte	0
 2898              	.LLST16:
 2899 0264 12000000 		.4byte	.LVL53
 2900 0268 22000000 		.4byte	.LVL58
 2901 026c 0100     		.2byte	0x1
 2902 026e 52       		.byte	0x52
 2903 026f 28000000 		.4byte	.LVL59
 2904 0273 2A000000 		.4byte	.LVL60
 2905 0277 0100     		.2byte	0x1
 2906 0279 52       		.byte	0x52
 2907 027a 2A000000 		.4byte	.LVL60
 2908 027e 2C000000 		.4byte	.LVL61
 2909 0282 0300     		.2byte	0x3
 2910 0284 72       		.byte	0x72
 2911 0285 01       		.sleb128 1
 2912 0286 9F       		.byte	0x9f
 2913 0287 00000000 		.4byte	0
 2914 028b 00000000 		.4byte	0
 2915              	.LLST17:
 2916 028f 18000000 		.4byte	.LVL54
 2917 0293 86000000 		.4byte	.LVL70
 2918 0297 0100     		.2byte	0x1
 2919 0299 57       		.byte	0x57
 2920 029a 00000000 		.4byte	0
 2921 029e 00000000 		.4byte	0
 2922              	.LLST18:
 2923 02a2 1A000000 		.4byte	.LVL55
 2924 02a6 3E000000 		.4byte	.LVL63
 2925 02aa 0100     		.2byte	0x1
 2926 02ac 51       		.byte	0x51
 2927 02ad 50000000 		.4byte	.LVL64
 2928 02b1 5A000000 		.4byte	.LVL66
 2929 02b5 0100     		.2byte	0x1
 2930 02b7 51       		.byte	0x51
 2931 02b8 00000000 		.4byte	0
 2932 02bc 00000000 		.4byte	0
 2933              	.LLST19:
 2934 02c0 1C000000 		.4byte	.LVL56
ARM GAS  C:\Users\HENRYA~1\AppData\Local\Temp\ccxNFFqA.s 			page 77


 2935 02c4 86000000 		.4byte	.LVL70
 2936 02c8 0100     		.2byte	0x1
 2937 02ca 56       		.byte	0x56
 2938 02cb 00000000 		.4byte	0
 2939 02cf 00000000 		.4byte	0
 2940              	.LLST20:
 2941 02d3 00000000 		.4byte	.LVL71
 2942 02d7 08000000 		.4byte	.LVL73
 2943 02db 0100     		.2byte	0x1
 2944 02dd 50       		.byte	0x50
 2945 02de 08000000 		.4byte	.LVL73
 2946 02e2 2C000000 		.4byte	.LFE7
 2947 02e6 0400     		.2byte	0x4
 2948 02e8 F3       		.byte	0xf3
 2949 02e9 01       		.uleb128 0x1
 2950 02ea 50       		.byte	0x50
 2951 02eb 9F       		.byte	0x9f
 2952 02ec 00000000 		.4byte	0
 2953 02f0 00000000 		.4byte	0
 2954              	.LLST21:
 2955 02f4 06000000 		.4byte	.LVL72
 2956 02f8 1C000000 		.4byte	.LVL78
 2957 02fc 0100     		.2byte	0x1
 2958 02fe 54       		.byte	0x54
 2959 02ff 1E000000 		.4byte	.LVL79
 2960 0303 26000000 		.4byte	.LVL80
 2961 0307 0100     		.2byte	0x1
 2962 0309 54       		.byte	0x54
 2963 030a 00000000 		.4byte	0
 2964 030e 00000000 		.4byte	0
 2965              	.LLST22:
 2966 0312 0E000000 		.4byte	.LVL74
 2967 0316 26000000 		.4byte	.LVL80
 2968 031a 0100     		.2byte	0x1
 2969 031c 55       		.byte	0x55
 2970 031d 00000000 		.4byte	0
 2971 0321 00000000 		.4byte	0
 2972              	.LLST23:
 2973 0325 0E000000 		.4byte	.LVL74
 2974 0329 10000000 		.4byte	.LVL75
 2975 032d 0200     		.2byte	0x2
 2976 032f 30       		.byte	0x30
 2977 0330 9F       		.byte	0x9f
 2978 0331 10000000 		.4byte	.LVL75
 2979 0335 26000000 		.4byte	.LVL80
 2980 0339 0100     		.2byte	0x1
 2981 033b 56       		.byte	0x56
 2982 033c 00000000 		.4byte	0
 2983 0340 00000000 		.4byte	0
 2984              	.LLST24:
 2985 0344 02000000 		.4byte	.LVL81
 2986 0348 08000000 		.4byte	.LVL82
 2987 034c 0200     		.2byte	0x2
 2988 034e 30       		.byte	0x30
 2989 034f 9F       		.byte	0x9f
 2990 0350 08000000 		.4byte	.LVL82
 2991 0354 14000000 		.4byte	.LVL85
ARM GAS  C:\Users\HENRYA~1\AppData\Local\Temp\ccxNFFqA.s 			page 78


 2992 0358 0100     		.2byte	0x1
 2993 035a 54       		.byte	0x54
 2994 035b 16000000 		.4byte	.LVL86
 2995 035f 1E000000 		.4byte	.LFE8
 2996 0363 0100     		.2byte	0x1
 2997 0365 54       		.byte	0x54
 2998 0366 00000000 		.4byte	0
 2999 036a 00000000 		.4byte	0
 3000              	.LLST25:
 3001 036e 02000000 		.4byte	.LVL81
 3002 0372 08000000 		.4byte	.LVL82
 3003 0376 0200     		.2byte	0x2
 3004 0378 30       		.byte	0x30
 3005 0379 9F       		.byte	0x9f
 3006 037a 08000000 		.4byte	.LVL82
 3007 037e 1E000000 		.4byte	.LFE8
 3008 0382 0100     		.2byte	0x1
 3009 0384 55       		.byte	0x55
 3010 0385 00000000 		.4byte	0
 3011 0389 00000000 		.4byte	0
 3012              	.LLST26:
 3013 038d 00000000 		.4byte	.LVL87
 3014 0391 08000000 		.4byte	.LVL89
 3015 0395 0100     		.2byte	0x1
 3016 0397 50       		.byte	0x50
 3017 0398 08000000 		.4byte	.LVL89
 3018 039c 34000000 		.4byte	.LFE9
 3019 03a0 0400     		.2byte	0x4
 3020 03a2 F3       		.byte	0xf3
 3021 03a3 01       		.uleb128 0x1
 3022 03a4 50       		.byte	0x50
 3023 03a5 9F       		.byte	0x9f
 3024 03a6 00000000 		.4byte	0
 3025 03aa 00000000 		.4byte	0
 3026              	.LLST27:
 3027 03ae 18000000 		.4byte	.LVL92
 3028 03b2 1E000000 		.4byte	.LVL93
 3029 03b6 0100     		.2byte	0x1
 3030 03b8 52       		.byte	0x52
 3031 03b9 1E000000 		.4byte	.LVL93
 3032 03bd 22000000 		.4byte	.LVL94
 3033 03c1 0700     		.2byte	0x7
 3034 03c3 31       		.byte	0x31
 3035 03c4 73       		.byte	0x73
 3036 03c5 00       		.sleb128 0
 3037 03c6 37       		.byte	0x37
 3038 03c7 1A       		.byte	0x1a
 3039 03c8 24       		.byte	0x24
 3040 03c9 9F       		.byte	0x9f
 3041 03ca 22000000 		.4byte	.LVL94
 3042 03ce 24000000 		.4byte	.LVL95
 3043 03d2 0700     		.2byte	0x7
 3044 03d4 31       		.byte	0x31
 3045 03d5 73       		.byte	0x73
 3046 03d6 7F       		.sleb128 -1
 3047 03d7 37       		.byte	0x37
 3048 03d8 1A       		.byte	0x1a
ARM GAS  C:\Users\HENRYA~1\AppData\Local\Temp\ccxNFFqA.s 			page 79


 3049 03d9 24       		.byte	0x24
 3050 03da 9F       		.byte	0x9f
 3051 03db 00000000 		.4byte	0
 3052 03df 00000000 		.4byte	0
 3053              	.LLST28:
 3054 03e3 06000000 		.4byte	.LVL88
 3055 03e7 22000000 		.4byte	.LVL94
 3056 03eb 0100     		.2byte	0x1
 3057 03ed 53       		.byte	0x53
 3058 03ee 24000000 		.4byte	.LVL95
 3059 03f2 34000000 		.4byte	.LFE9
 3060 03f6 0100     		.2byte	0x1
 3061 03f8 53       		.byte	0x53
 3062 03f9 00000000 		.4byte	0
 3063 03fd 00000000 		.4byte	0
 3064              	.LLST29:
 3065 0401 0E000000 		.4byte	.LVL90
 3066 0405 2A000000 		.4byte	.LVL96
 3067 0409 0100     		.2byte	0x1
 3068 040b 55       		.byte	0x55
 3069 040c 00000000 		.4byte	0
 3070 0410 00000000 		.4byte	0
 3071              	.LLST30:
 3072 0414 00000000 		.4byte	.LVL97
 3073 0418 08000000 		.4byte	.LVL99
 3074 041c 0100     		.2byte	0x1
 3075 041e 50       		.byte	0x50
 3076 041f 08000000 		.4byte	.LVL99
 3077 0423 38000000 		.4byte	.LFE10
 3078 0427 0400     		.2byte	0x4
 3079 0429 F3       		.byte	0xf3
 3080 042a 01       		.uleb128 0x1
 3081 042b 50       		.byte	0x50
 3082 042c 9F       		.byte	0x9f
 3083 042d 00000000 		.4byte	0
 3084 0431 00000000 		.4byte	0
 3085              	.LLST31:
 3086 0435 18000000 		.4byte	.LVL102
 3087 0439 20000000 		.4byte	.LVL103
 3088 043d 0100     		.2byte	0x1
 3089 043f 52       		.byte	0x52
 3090 0440 20000000 		.4byte	.LVL103
 3091 0444 24000000 		.4byte	.LVL104
 3092 0448 0700     		.2byte	0x7
 3093 044a 31       		.byte	0x31
 3094 044b 73       		.byte	0x73
 3095 044c 00       		.sleb128 0
 3096 044d 37       		.byte	0x37
 3097 044e 1A       		.byte	0x1a
 3098 044f 24       		.byte	0x24
 3099 0450 9F       		.byte	0x9f
 3100 0451 24000000 		.4byte	.LVL104
 3101 0455 26000000 		.4byte	.LVL105
 3102 0459 0700     		.2byte	0x7
 3103 045b 31       		.byte	0x31
 3104 045c 73       		.byte	0x73
 3105 045d 7F       		.sleb128 -1
ARM GAS  C:\Users\HENRYA~1\AppData\Local\Temp\ccxNFFqA.s 			page 80


 3106 045e 37       		.byte	0x37
 3107 045f 1A       		.byte	0x1a
 3108 0460 24       		.byte	0x24
 3109 0461 9F       		.byte	0x9f
 3110 0462 00000000 		.4byte	0
 3111 0466 00000000 		.4byte	0
 3112              	.LLST32:
 3113 046a 06000000 		.4byte	.LVL98
 3114 046e 24000000 		.4byte	.LVL104
 3115 0472 0100     		.2byte	0x1
 3116 0474 53       		.byte	0x53
 3117 0475 26000000 		.4byte	.LVL105
 3118 0479 38000000 		.4byte	.LFE10
 3119 047d 0100     		.2byte	0x1
 3120 047f 53       		.byte	0x53
 3121 0480 00000000 		.4byte	0
 3122 0484 00000000 		.4byte	0
 3123              	.LLST33:
 3124 0488 0E000000 		.4byte	.LVL100
 3125 048c 2C000000 		.4byte	.LVL106
 3126 0490 0100     		.2byte	0x1
 3127 0492 55       		.byte	0x55
 3128 0493 00000000 		.4byte	0
 3129 0497 00000000 		.4byte	0
 3130              	.LLST34:
 3131 049b 00000000 		.4byte	.LVL107
 3132 049f 0A000000 		.4byte	.LVL110
 3133 04a3 0100     		.2byte	0x1
 3134 04a5 50       		.byte	0x50
 3135 04a6 0A000000 		.4byte	.LVL110
 3136 04aa 2C000000 		.4byte	.LFE11
 3137 04ae 0400     		.2byte	0x4
 3138 04b0 F3       		.byte	0xf3
 3139 04b1 01       		.uleb128 0x1
 3140 04b2 50       		.byte	0x50
 3141 04b3 9F       		.byte	0x9f
 3142 04b4 00000000 		.4byte	0
 3143 04b8 00000000 		.4byte	0
 3144              	.LLST35:
 3145 04bc 06000000 		.4byte	.LVL109
 3146 04c0 0E000000 		.4byte	.LVL111
 3147 04c4 0200     		.2byte	0x2
 3148 04c6 30       		.byte	0x30
 3149 04c7 9F       		.byte	0x9f
 3150 04c8 0E000000 		.4byte	.LVL111
 3151 04cc 1E000000 		.4byte	.LVL114
 3152 04d0 0100     		.2byte	0x1
 3153 04d2 53       		.byte	0x53
 3154 04d3 20000000 		.4byte	.LVL115
 3155 04d7 2C000000 		.4byte	.LFE11
 3156 04db 0100     		.2byte	0x1
 3157 04dd 53       		.byte	0x53
 3158 04de 00000000 		.4byte	0
 3159 04e2 00000000 		.4byte	0
 3160              	.LLST36:
 3161 04e6 02000000 		.4byte	.LVL108
 3162 04ea 0E000000 		.4byte	.LVL111
ARM GAS  C:\Users\HENRYA~1\AppData\Local\Temp\ccxNFFqA.s 			page 81


 3163 04ee 0300     		.2byte	0x3
 3164 04f0 09       		.byte	0x9
 3165 04f1 FF       		.byte	0xff
 3166 04f2 9F       		.byte	0x9f
 3167 04f3 0E000000 		.4byte	.LVL111
 3168 04f7 2C000000 		.4byte	.LFE11
 3169 04fb 0100     		.2byte	0x1
 3170 04fd 50       		.byte	0x50
 3171 04fe 00000000 		.4byte	0
 3172 0502 00000000 		.4byte	0
 3173              	.LLST37:
 3174 0506 02000000 		.4byte	.LVL108
 3175 050a 0E000000 		.4byte	.LVL111
 3176 050e 0200     		.2byte	0x2
 3177 0510 30       		.byte	0x30
 3178 0511 9F       		.byte	0x9f
 3179 0512 0E000000 		.4byte	.LVL111
 3180 0516 1A000000 		.4byte	.LVL112
 3181 051a 0100     		.2byte	0x1
 3182 051c 56       		.byte	0x56
 3183 051d 1C000000 		.4byte	.LVL113
 3184 0521 26000000 		.4byte	.LVL116
 3185 0525 0100     		.2byte	0x1
 3186 0527 56       		.byte	0x56
 3187 0528 00000000 		.4byte	0
 3188 052c 00000000 		.4byte	0
 3189              	.LLST38:
 3190 0530 06000000 		.4byte	.LVL109
 3191 0534 26000000 		.4byte	.LVL116
 3192 0538 0100     		.2byte	0x1
 3193 053a 55       		.byte	0x55
 3194 053b 00000000 		.4byte	0
 3195 053f 00000000 		.4byte	0
 3196              	.LLST39:
 3197 0543 00000000 		.4byte	.LVL117
 3198 0547 18000000 		.4byte	.LVL123
 3199 054b 0100     		.2byte	0x1
 3200 054d 50       		.byte	0x50
 3201 054e 18000000 		.4byte	.LVL123
 3202 0552 B0000000 		.4byte	.LFE12
 3203 0556 0400     		.2byte	0x4
 3204 0558 F3       		.byte	0xf3
 3205 0559 01       		.uleb128 0x1
 3206 055a 50       		.byte	0x50
 3207 055b 9F       		.byte	0x9f
 3208 055c 00000000 		.4byte	0
 3209 0560 00000000 		.4byte	0
 3210              	.LLST40:
 3211 0564 00000000 		.4byte	.LVL117
 3212 0568 0A000000 		.4byte	.LVL119
 3213 056c 0100     		.2byte	0x1
 3214 056e 51       		.byte	0x51
 3215 056f 0A000000 		.4byte	.LVL119
 3216 0573 B0000000 		.4byte	.LFE12
 3217 0577 0400     		.2byte	0x4
 3218 0579 F3       		.byte	0xf3
 3219 057a 01       		.uleb128 0x1
ARM GAS  C:\Users\HENRYA~1\AppData\Local\Temp\ccxNFFqA.s 			page 82


 3220 057b 51       		.byte	0x51
 3221 057c 9F       		.byte	0x9f
 3222 057d 00000000 		.4byte	0
 3223 0581 00000000 		.4byte	0
 3224              	.LLST41:
 3225 0585 00000000 		.4byte	.LVL117
 3226 0589 32000000 		.4byte	.LVL128
 3227 058d 0100     		.2byte	0x1
 3228 058f 52       		.byte	0x52
 3229 0590 32000000 		.4byte	.LVL128
 3230 0594 B0000000 		.4byte	.LFE12
 3231 0598 0400     		.2byte	0x4
 3232 059a F3       		.byte	0xf3
 3233 059b 01       		.uleb128 0x1
 3234 059c 52       		.byte	0x52
 3235 059d 9F       		.byte	0x9f
 3236 059e 00000000 		.4byte	0
 3237 05a2 00000000 		.4byte	0
 3238              	.LLST42:
 3239 05a6 00000000 		.4byte	.LVL117
 3240 05aa A6000000 		.4byte	.LVL142
 3241 05ae 0200     		.2byte	0x2
 3242 05b0 91       		.byte	0x91
 3243 05b1 00       		.sleb128 0
 3244 05b2 A6000000 		.4byte	.LVL142
 3245 05b6 B0000000 		.4byte	.LFE12
 3246 05ba 0200     		.2byte	0x2
 3247 05bc 7D       		.byte	0x7d
 3248 05bd 00       		.sleb128 0
 3249 05be 00000000 		.4byte	0
 3250 05c2 00000000 		.4byte	0
 3251              	.LLST43:
 3252 05c6 06000000 		.4byte	.LVL118
 3253 05ca 12000000 		.4byte	.LVL120
 3254 05ce 0200     		.2byte	0x2
 3255 05d0 30       		.byte	0x30
 3256 05d1 9F       		.byte	0x9f
 3257 05d2 12000000 		.4byte	.LVL120
 3258 05d6 14000000 		.4byte	.LVL121
 3259 05da 0100     		.2byte	0x1
 3260 05dc 56       		.byte	0x56
 3261 05dd 14000000 		.4byte	.LVL121
 3262 05e1 16000000 		.4byte	.LVL122
 3263 05e5 0200     		.2byte	0x2
 3264 05e7 30       		.byte	0x30
 3265 05e8 9F       		.byte	0x9f
 3266 05e9 16000000 		.4byte	.LVL122
 3267 05ed 28000000 		.4byte	.LVL125
 3268 05f1 0100     		.2byte	0x1
 3269 05f3 56       		.byte	0x56
 3270 05f4 30000000 		.4byte	.LVL127
 3271 05f8 44000000 		.4byte	.LVL131
 3272 05fc 0100     		.2byte	0x1
 3273 05fe 56       		.byte	0x56
 3274 05ff 00000000 		.4byte	0
 3275 0603 00000000 		.4byte	0
 3276              	.LLST44:
ARM GAS  C:\Users\HENRYA~1\AppData\Local\Temp\ccxNFFqA.s 			page 83


 3277 0607 06000000 		.4byte	.LVL118
 3278 060b 1A000000 		.4byte	.LVL124
 3279 060f 0200     		.2byte	0x2
 3280 0611 30       		.byte	0x30
 3281 0612 9F       		.byte	0x9f
 3282 0613 1A000000 		.4byte	.LVL124
 3283 0617 7C000000 		.4byte	.LVL133
 3284 061b 0100     		.2byte	0x1
 3285 061d 50       		.byte	0x50
 3286 061e 7C000000 		.4byte	.LVL133
 3287 0622 A6000000 		.4byte	.LVL142
 3288 0626 0300     		.2byte	0x3
 3289 0628 74       		.byte	0x74
 3290 0629 01       		.sleb128 1
 3291 062a 9F       		.byte	0x9f
 3292 062b 00000000 		.4byte	0
 3293 062f 00000000 		.4byte	0
 3294              	.LLST45:
 3295 0633 A0000000 		.4byte	.LVL140
 3296 0637 A4000000 		.4byte	.LVL141
 3297 063b 0900     		.2byte	0x9
 3298 063d 70       		.byte	0x70
 3299 063e 00       		.sleb128 0
 3300 063f 09       		.byte	0x9
 3301 0640 EC       		.byte	0xec
 3302 0641 24       		.byte	0x24
 3303 0642 09       		.byte	0x9
 3304 0643 FC       		.byte	0xfc
 3305 0644 25       		.byte	0x25
 3306 0645 9F       		.byte	0x9f
 3307 0646 A4000000 		.4byte	.LVL141
 3308 064a A6000000 		.4byte	.LVL142
 3309 064e 2300     		.2byte	0x23
 3310 0650 74       		.byte	0x74
 3311 0651 00       		.sleb128 0
 3312 0652 38       		.byte	0x38
 3313 0653 24       		.byte	0x24
 3314 0654 72       		.byte	0x72
 3315 0655 00       		.sleb128 0
 3316 0656 03       		.byte	0x3
 3317 0657 06000000 		.4byte	CapSense_centroid.5131+2
 3318 065b 94       		.byte	0x94
 3319 065c 01       		.byte	0x1
 3320 065d 08       		.byte	0x8
 3321 065e FF       		.byte	0xff
 3322 065f 1A       		.byte	0x1a
 3323 0660 71       		.byte	0x71
 3324 0661 00       		.sleb128 0
 3325 0662 22       		.byte	0x22
 3326 0663 1B       		.byte	0x1b
 3327 0664 22       		.byte	0x22
 3328 0665 73       		.byte	0x73
 3329 0666 00       		.sleb128 0
 3330 0667 1E       		.byte	0x1e
 3331 0668 23       		.byte	0x23
 3332 0669 80FE01   		.uleb128 0x7f00
 3333 066c 09       		.byte	0x9
ARM GAS  C:\Users\HENRYA~1\AppData\Local\Temp\ccxNFFqA.s 			page 84


 3334 066d EC       		.byte	0xec
 3335 066e 24       		.byte	0x24
 3336 066f 09       		.byte	0x9
 3337 0670 FC       		.byte	0xfc
 3338 0671 25       		.byte	0x25
 3339 0672 9F       		.byte	0x9f
 3340 0673 00000000 		.4byte	0
 3341 0677 00000000 		.4byte	0
 3342              	.LLST46:
 3343 067b 88000000 		.4byte	.LVL134
 3344 067f 8E000000 		.4byte	.LVL136
 3345 0683 0100     		.2byte	0x1
 3346 0685 52       		.byte	0x52
 3347 0686 8E000000 		.4byte	.LVL136
 3348 068a A6000000 		.4byte	.LVL142
 3349 068e 0E00     		.2byte	0xe
 3350 0690 03       		.byte	0x3
 3351 0691 06000000 		.4byte	CapSense_centroid.5131+2
 3352 0695 94       		.byte	0x94
 3353 0696 01       		.byte	0x1
 3354 0697 08       		.byte	0x8
 3355 0698 FF       		.byte	0xff
 3356 0699 1A       		.byte	0x1a
 3357 069a 75       		.byte	0x75
 3358 069b 00       		.sleb128 0
 3359 069c 1C       		.byte	0x1c
 3360 069d 9F       		.byte	0x9f
 3361 069e A6000000 		.4byte	.LVL142
 3362 06a2 B0000000 		.4byte	.LFE12
 3363 06a6 1600     		.2byte	0x16
 3364 06a8 03       		.byte	0x3
 3365 06a9 06000000 		.4byte	CapSense_centroid.5131+2
 3366 06ad 94       		.byte	0x94
 3367 06ae 01       		.byte	0x1
 3368 06af 08       		.byte	0x8
 3369 06b0 FF       		.byte	0xff
 3370 06b1 1A       		.byte	0x1a
 3371 06b2 03       		.byte	0x3
 3372 06b3 04000000 		.4byte	CapSense_centroid.5131
 3373 06b7 94       		.byte	0x94
 3374 06b8 01       		.byte	0x1
 3375 06b9 08       		.byte	0x8
 3376 06ba FF       		.byte	0xff
 3377 06bb 1A       		.byte	0x1a
 3378 06bc 1C       		.byte	0x1c
 3379 06bd 9F       		.byte	0x9f
 3380 06be 00000000 		.4byte	0
 3381 06c2 00000000 		.4byte	0
 3382              	.LLST47:
 3383 06c6 8C000000 		.4byte	.LVL135
 3384 06ca 92000000 		.4byte	.LVL137
 3385 06ce 0100     		.2byte	0x1
 3386 06d0 50       		.byte	0x50
 3387 06d1 92000000 		.4byte	.LVL137
 3388 06d5 96000000 		.4byte	.LVL138
 3389 06d9 0E00     		.2byte	0xe
 3390 06db 03       		.byte	0x3
ARM GAS  C:\Users\HENRYA~1\AppData\Local\Temp\ccxNFFqA.s 			page 85


 3391 06dc 06000000 		.4byte	CapSense_centroid.5131+2
 3392 06e0 94       		.byte	0x94
 3393 06e1 01       		.byte	0x1
 3394 06e2 08       		.byte	0x8
 3395 06e3 FF       		.byte	0xff
 3396 06e4 1A       		.byte	0x1a
 3397 06e5 71       		.byte	0x71
 3398 06e6 00       		.sleb128 0
 3399 06e7 22       		.byte	0x22
 3400 06e8 9F       		.byte	0x9f
 3401 06e9 96000000 		.4byte	.LVL138
 3402 06ed A0000000 		.4byte	.LVL140
 3403 06f1 0100     		.2byte	0x1
 3404 06f3 50       		.byte	0x50
 3405 06f4 A0000000 		.4byte	.LVL140
 3406 06f8 A4000000 		.4byte	.LVL141
 3407 06fc 0500     		.2byte	0x5
 3408 06fe 70       		.byte	0x70
 3409 06ff 80827E   		.sleb128 -32512
 3410 0702 9F       		.byte	0x9f
 3411 0703 A4000000 		.4byte	.LVL141
 3412 0707 A6000000 		.4byte	.LVL142
 3413 070b 1900     		.2byte	0x19
 3414 070d 74       		.byte	0x74
 3415 070e 00       		.sleb128 0
 3416 070f 38       		.byte	0x38
 3417 0710 24       		.byte	0x24
 3418 0711 72       		.byte	0x72
 3419 0712 00       		.sleb128 0
 3420 0713 03       		.byte	0x3
 3421 0714 06000000 		.4byte	CapSense_centroid.5131+2
 3422 0718 94       		.byte	0x94
 3423 0719 01       		.byte	0x1
 3424 071a 08       		.byte	0x8
 3425 071b FF       		.byte	0xff
 3426 071c 1A       		.byte	0x1a
 3427 071d 71       		.byte	0x71
 3428 071e 00       		.sleb128 0
 3429 071f 22       		.byte	0x22
 3430 0720 1B       		.byte	0x1b
 3431 0721 22       		.byte	0x22
 3432 0722 73       		.byte	0x73
 3433 0723 00       		.sleb128 0
 3434 0724 1E       		.byte	0x1e
 3435 0725 9F       		.byte	0x9f
 3436 0726 00000000 		.4byte	0
 3437 072a 00000000 		.4byte	0
 3438              	.LLST48:
 3439 072e 0A000000 		.4byte	.LVL119
 3440 0732 2C000000 		.4byte	.LVL126
 3441 0736 0100     		.2byte	0x1
 3442 0738 51       		.byte	0x51
 3443 0739 30000000 		.4byte	.LVL127
 3444 073d 38000000 		.4byte	.LVL129
 3445 0741 0100     		.2byte	0x1
 3446 0743 51       		.byte	0x51
 3447 0744 42000000 		.4byte	.LVL130
ARM GAS  C:\Users\HENRYA~1\AppData\Local\Temp\ccxNFFqA.s 			page 86


 3448 0748 4A000000 		.4byte	.LVL132
 3449 074c 0100     		.2byte	0x1
 3450 074e 51       		.byte	0x51
 3451 074f 00000000 		.4byte	0
 3452 0753 00000000 		.4byte	0
 3453              	.LLST49:
 3454 0757 00000000 		.4byte	.LVL143
 3455 075b 14000000 		.4byte	.LVL146
 3456 075f 0100     		.2byte	0x1
 3457 0761 50       		.byte	0x50
 3458 0762 14000000 		.4byte	.LVL146
 3459 0766 48000000 		.4byte	.LFE13
 3460 076a 0400     		.2byte	0x4
 3461 076c F3       		.byte	0xf3
 3462 076d 01       		.uleb128 0x1
 3463 076e 50       		.byte	0x50
 3464 076f 9F       		.byte	0x9f
 3465 0770 00000000 		.4byte	0
 3466 0774 00000000 		.4byte	0
 3467              	.LLST50:
 3468 0778 1C000000 		.4byte	.LVL147
 3469 077c 33000000 		.4byte	.LVL148-1
 3470 0780 0100     		.2byte	0x1
 3471 0782 50       		.byte	0x50
 3472 0783 38000000 		.4byte	.LVL150
 3473 0787 3C000000 		.4byte	.LVL151
 3474 078b 0100     		.2byte	0x1
 3475 078d 50       		.byte	0x50
 3476 078e 00000000 		.4byte	0
 3477 0792 00000000 		.4byte	0
 3478              	.LLST51:
 3479 0796 36000000 		.4byte	.LVL149
 3480 079a 38000000 		.4byte	.LVL150
 3481 079e 0100     		.2byte	0x1
 3482 07a0 50       		.byte	0x50
 3483 07a1 3C000000 		.4byte	.LVL151
 3484 07a5 48000000 		.4byte	.LFE13
 3485 07a9 0100     		.2byte	0x1
 3486 07ab 50       		.byte	0x50
 3487 07ac 00000000 		.4byte	0
 3488 07b0 00000000 		.4byte	0
 3489              	.LLST52:
 3490 07b4 0A000000 		.4byte	.LVL144
 3491 07b8 40000000 		.4byte	.LVL152
 3492 07bc 0100     		.2byte	0x1
 3493 07be 56       		.byte	0x56
 3494 07bf 00000000 		.4byte	0
 3495 07c3 00000000 		.4byte	0
 3496              	.LLST53:
 3497 07c7 0E000000 		.4byte	.LVL145
 3498 07cb 40000000 		.4byte	.LVL152
 3499 07cf 0100     		.2byte	0x1
 3500 07d1 55       		.byte	0x55
 3501 07d2 00000000 		.4byte	0
 3502 07d6 00000000 		.4byte	0
 3503              		.section	.debug_aranges,"",%progbits
 3504 0000 84000000 		.4byte	0x84
ARM GAS  C:\Users\HENRYA~1\AppData\Local\Temp\ccxNFFqA.s 			page 87


 3505 0004 0200     		.2byte	0x2
 3506 0006 00000000 		.4byte	.Ldebug_info0
 3507 000a 04       		.byte	0x4
 3508 000b 00       		.byte	0
 3509 000c 0000     		.2byte	0
 3510 000e 0000     		.2byte	0
 3511 0010 00000000 		.4byte	.LFB0
 3512 0014 44000000 		.4byte	.LFE0-.LFB0
 3513 0018 00000000 		.4byte	.LFB1
 3514 001c 18000000 		.4byte	.LFE1-.LFB1
 3515 0020 00000000 		.4byte	.LFB2
 3516 0024 16000000 		.4byte	.LFE2-.LFB2
 3517 0028 00000000 		.4byte	.LFB3
 3518 002c 44000000 		.4byte	.LFE3-.LFB3
 3519 0030 00000000 		.4byte	.LFB4
 3520 0034 C8000000 		.4byte	.LFE4-.LFB4
 3521 0038 00000000 		.4byte	.LFB5
 3522 003c 2C000000 		.4byte	.LFE5-.LFB5
 3523 0040 00000000 		.4byte	.LFB6
 3524 0044 9C000000 		.4byte	.LFE6-.LFB6
 3525 0048 00000000 		.4byte	.LFB7
 3526 004c 2C000000 		.4byte	.LFE7-.LFB7
 3527 0050 00000000 		.4byte	.LFB8
 3528 0054 1E000000 		.4byte	.LFE8-.LFB8
 3529 0058 00000000 		.4byte	.LFB9
 3530 005c 34000000 		.4byte	.LFE9-.LFB9
 3531 0060 00000000 		.4byte	.LFB10
 3532 0064 38000000 		.4byte	.LFE10-.LFB10
 3533 0068 00000000 		.4byte	.LFB11
 3534 006c 2C000000 		.4byte	.LFE11-.LFB11
 3535 0070 00000000 		.4byte	.LFB12
 3536 0074 B0000000 		.4byte	.LFE12-.LFB12
 3537 0078 00000000 		.4byte	.LFB13
 3538 007c 48000000 		.4byte	.LFE13-.LFB13
 3539 0080 00000000 		.4byte	0
 3540 0084 00000000 		.4byte	0
 3541              		.section	.debug_ranges,"",%progbits
 3542              	.Ldebug_ranges0:
 3543 0000 00000000 		.4byte	.LFB0
 3544 0004 44000000 		.4byte	.LFE0
 3545 0008 00000000 		.4byte	.LFB1
 3546 000c 18000000 		.4byte	.LFE1
 3547 0010 00000000 		.4byte	.LFB2
 3548 0014 16000000 		.4byte	.LFE2
 3549 0018 00000000 		.4byte	.LFB3
 3550 001c 44000000 		.4byte	.LFE3
 3551 0020 00000000 		.4byte	.LFB4
 3552 0024 C8000000 		.4byte	.LFE4
 3553 0028 00000000 		.4byte	.LFB5
 3554 002c 2C000000 		.4byte	.LFE5
 3555 0030 00000000 		.4byte	.LFB6
 3556 0034 9C000000 		.4byte	.LFE6
 3557 0038 00000000 		.4byte	.LFB7
 3558 003c 2C000000 		.4byte	.LFE7
 3559 0040 00000000 		.4byte	.LFB8
 3560 0044 1E000000 		.4byte	.LFE8
 3561 0048 00000000 		.4byte	.LFB9
ARM GAS  C:\Users\HENRYA~1\AppData\Local\Temp\ccxNFFqA.s 			page 88


 3562 004c 34000000 		.4byte	.LFE9
 3563 0050 00000000 		.4byte	.LFB10
 3564 0054 38000000 		.4byte	.LFE10
 3565 0058 00000000 		.4byte	.LFB11
 3566 005c 2C000000 		.4byte	.LFE11
 3567 0060 00000000 		.4byte	.LFB12
 3568 0064 B0000000 		.4byte	.LFE12
 3569 0068 00000000 		.4byte	.LFB13
 3570 006c 48000000 		.4byte	.LFE13
 3571 0070 00000000 		.4byte	0
 3572 0074 00000000 		.4byte	0
 3573              		.section	.debug_line,"",%progbits
 3574              	.Ldebug_line0:
 3575 0000 A2020000 		.section	.debug_str,"MS",%progbits,1
 3575      02006B00 
 3575      00000201 
 3575      FB0E0D00 
 3575      01010101 
 3576              	.LASF46:
 3577 0000 636F756E 		.ascii	"count\000"
 3577      7400
 3578              	.LASF10:
 3579 0006 75696E74 		.ascii	"uint16\000"
 3579      313600
 3580              	.LASF28:
 3581 000d 66696C74 		.ascii	"filteredRawData\000"
 3581      65726564 
 3581      52617744 
 3581      61746100 
 3582              	.LASF69:
 3583 001d 43617053 		.ascii	"CapSense_hysteresis\000"
 3583      656E7365 
 3583      5F687973 
 3583      74657265 
 3583      73697300 
 3584              	.LASF65:
 3585 0031 43617053 		.ascii	"CapSense_sensorOnMask\000"
 3585      656E7365 
 3585      5F73656E 
 3585      736F724F 
 3585      6E4D6173 
 3586              	.LASF33:
 3587 0047 66696E67 		.ascii	"fingerThreshold\000"
 3587      65725468 
 3587      72657368 
 3587      6F6C6400 
 3588              	.LASF52:
 3589 0057 706F7350 		.ascii	"posPrev\000"
 3589      72657600 
 3590              	.LASF7:
 3591 005f 6C6F6E67 		.ascii	"long long unsigned int\000"
 3591      206C6F6E 
 3591      6720756E 
 3591      7369676E 
 3591      65642069 
 3592              	.LASF64:
 3593 0076 43617053 		.ascii	"CapSense_sensorSignal\000"
ARM GAS  C:\Users\HENRYA~1\AppData\Local\Temp\ccxNFFqA.s 			page 89


 3593      656E7365 
 3593      5F73656E 
 3593      736F7253 
 3593      69676E61 
 3594              	.LASF23:
 3595 008c 43617053 		.ascii	"CapSense_InitializeEnabledBaselines\000"
 3595      656E7365 
 3595      5F496E69 
 3595      7469616C 
 3595      697A6545 
 3596              	.LASF30:
 3597 00b0 43617053 		.ascii	"CapSense_UpdateEnabledBaselines\000"
 3597      656E7365 
 3597      5F557064 
 3597      61746545 
 3597      6E61626C 
 3598              	.LASF6:
 3599 00d0 6C6F6E67 		.ascii	"long long int\000"
 3599      206C6F6E 
 3599      6720696E 
 3599      7400
 3600              	.LASF0:
 3601 00de 7369676E 		.ascii	"signed char\000"
 3601      65642063 
 3601      68617200 
 3602              	.LASF43:
 3603 00ea 43617053 		.ascii	"CapSense_DisableWidget\000"
 3603      656E7365 
 3603      5F446973 
 3603      61626C65 
 3603      57696467 
 3604              	.LASF38:
 3605 0101 72617749 		.ascii	"rawIndex\000"
 3605      6E646578 
 3605      00
 3606              	.LASF39:
 3607 010a 6E756D62 		.ascii	"numberOfSensors\000"
 3607      65724F66 
 3607      53656E73 
 3607      6F727300 
 3608              	.LASF13:
 3609 011a 696E7433 		.ascii	"int32\000"
 3609      3200
 3610              	.LASF40:
 3611 0120 73746174 		.ascii	"state\000"
 3611      6500
 3612              	.LASF4:
 3613 0126 6C6F6E67 		.ascii	"long int\000"
 3613      20696E74 
 3613      00
 3614              	.LASF56:
 3615 012f 6E756D65 		.ascii	"numerator\000"
 3615      7261746F 
 3615      7200
 3616              	.LASF41:
 3617 0139 43617053 		.ascii	"CapSense_CheckIsAnyWidgetActive\000"
 3617      656E7365 
ARM GAS  C:\Users\HENRYA~1\AppData\Local\Temp\ccxNFFqA.s 			page 90


 3617      5F436865 
 3617      636B4973 
 3617      416E7957 
 3618              	.LASF57:
 3619 0159 64656E6F 		.ascii	"denominator\000"
 3619      6D696E61 
 3619      746F7200 
 3620              	.LASF37:
 3621 0165 43617053 		.ascii	"CapSense_CheckIsWidgetActive\000"
 3621      656E7365 
 3621      5F436865 
 3621      636B4973 
 3621      57696467 
 3622              	.LASF9:
 3623 0182 75696E74 		.ascii	"uint8\000"
 3623      3800
 3624              	.LASF15:
 3625 0188 646F7562 		.ascii	"double\000"
 3625      6C6500
 3626              	.LASF61:
 3627 018f 43617053 		.ascii	"CapSense_widgetNumber\000"
 3627      656E7365 
 3627      5F776964 
 3627      6765744E 
 3627      756D6265 
 3628              	.LASF11:
 3629 01a5 75696E74 		.ascii	"uint32\000"
 3629      333200
 3630              	.LASF34:
 3631 01ac 68797374 		.ascii	"hysteresis\000"
 3631      65726573 
 3631      697300
 3632              	.LASF53:
 3633 01b7 706F734E 		.ascii	"posNext\000"
 3633      65787400 
 3634              	.LASF49:
 3635 01bf 73746172 		.ascii	"startOfSlider\000"
 3635      744F6653 
 3635      6C696465 
 3635      7200
 3636              	.LASF48:
 3637 01cd 74656D70 		.ascii	"temp\000"
 3637      00
 3638              	.LASF78:
 3639 01d2 43617053 		.ascii	"CapSense_ScanSensor\000"
 3639      656E7365 
 3639      5F536361 
 3639      6E53656E 
 3639      736F7200 
 3640              	.LASF8:
 3641 01e6 756E7369 		.ascii	"unsigned int\000"
 3641      676E6564 
 3641      20696E74 
 3641      00
 3642              	.LASF55:
 3643 01f3 706F7369 		.ascii	"position\000"
 3643      74696F6E 
ARM GAS  C:\Users\HENRYA~1\AppData\Local\Temp\ccxNFFqA.s 			page 91


 3643      00
 3644              	.LASF5:
 3645 01fc 6C6F6E67 		.ascii	"long unsigned int\000"
 3645      20756E73 
 3645      69676E65 
 3645      6420696E 
 3645      7400
 3646              	.LASF63:
 3647 020e 43617053 		.ascii	"CapSense_sensorBaselineLow\000"
 3647      656E7365 
 3647      5F73656E 
 3647      736F7242 
 3647      6173656C 
 3648              	.LASF72:
 3649 0229 43617053 		.ascii	"CapSense_rawDataIndex\000"
 3649      656E7365 
 3649      5F726177 
 3649      44617461 
 3649      496E6465 
 3650              	.LASF3:
 3651 023f 73686F72 		.ascii	"short unsigned int\000"
 3651      7420756E 
 3651      7369676E 
 3651      65642069 
 3651      6E7400
 3652              	.LASF20:
 3653 0252 73656E73 		.ascii	"sensor\000"
 3653      6F7200
 3654              	.LASF60:
 3655 0259 43617053 		.ascii	"CapSense_sensorEnableMask\000"
 3655      656E7365 
 3655      5F73656E 
 3655      736F7245 
 3655      6E61626C 
 3656              	.LASF44:
 3657 0273 43617053 		.ascii	"CapSense_FindMaximum\000"
 3657      656E7365 
 3657      5F46696E 
 3657      644D6178 
 3657      696D756D 
 3658              	.LASF25:
 3659 0288 43617053 		.ascii	"CapSense_UpdateSensorBaseline\000"
 3659      656E7365 
 3659      5F557064 
 3659      61746553 
 3659      656E736F 
 3660              	.LASF26:
 3661 02a6 63616C63 		.ascii	"calc\000"
 3661      00
 3662              	.LASF81:
 3663 02ab 43617053 		.ascii	"CapSense_CalculateThresholds\000"
 3663      656E7365 
 3663      5F43616C 
 3663      63756C61 
 3663      74655468 
 3664              	.LASF66:
 3665 02c8 43617053 		.ascii	"CapSense_lowBaselineResetCnt\000"
ARM GAS  C:\Users\HENRYA~1\AppData\Local\Temp\ccxNFFqA.s 			page 92


 3665      656E7365 
 3665      5F6C6F77 
 3665      42617365 
 3665      6C696E65 
 3666              	.LASF35:
 3667 02e5 6465626F 		.ascii	"debounce\000"
 3667      756E6365 
 3667      00
 3668              	.LASF17:
 3669 02ee 73697A65 		.ascii	"sizetype\000"
 3669      74797065 
 3669      00
 3670              	.LASF42:
 3671 02f7 43617053 		.ascii	"CapSense_EnableWidget\000"
 3671      656E7365 
 3671      5F456E61 
 3671      626C6557 
 3671      69646765 
 3672              	.LASF19:
 3673 030d 43617053 		.ascii	"CapSense_InitializeSensorBaseline\000"
 3673      656E7365 
 3673      5F496E69 
 3673      7469616C 
 3673      697A6553 
 3674              	.LASF36:
 3675 032f 43617053 		.ascii	"CapSense_CheckIsSensorActive\000"
 3675      656E7365 
 3675      5F436865 
 3675      636B4973 
 3675      53656E73 
 3676              	.LASF24:
 3677 034c 656E4D61 		.ascii	"enMask\000"
 3677      736B00
 3678              	.LASF68:
 3679 0353 43617053 		.ascii	"CapSense_noiseThreshold\000"
 3679      656E7365 
 3679      5F6E6F69 
 3679      73655468 
 3679      72657368 
 3680              	.LASF67:
 3681 036b 43617053 		.ascii	"CapSense_fingerThreshold\000"
 3681      656E7365 
 3681      5F66696E 
 3681      67657254 
 3681      68726573 
 3682              	.LASF74:
 3683 0384 43617053 		.ascii	"CapSense_centroidMult\000"
 3683      656E7365 
 3683      5F63656E 
 3683      74726F69 
 3683      644D756C 
 3684              	.LASF14:
 3685 039a 666C6F61 		.ascii	"float\000"
 3685      7400
 3686              	.LASF77:
 3687 03a0 433A5C55 		.ascii	"C:\\Users\\Henry Alberto\\Documents\\PSoC Creator\\"
 3687      73657273 
ARM GAS  C:\Users\HENRYA~1\AppData\Local\Temp\ccxNFFqA.s 			page 93


 3687      5C48656E 
 3687      72792041 
 3687      6C626572 
 3688 03ce 576F726B 		.ascii	"Workspace01\\Sensor_Capacitivo.cydsn\000"
 3688      73706163 
 3688      6530315C 
 3688      53656E73 
 3688      6F725F43 
 3689              	.LASF1:
 3690 03f2 756E7369 		.ascii	"unsigned char\000"
 3690      676E6564 
 3690      20636861 
 3690      7200
 3691              	.LASF21:
 3692 0400 43617053 		.ascii	"CapSense_InitializeAllBaselines\000"
 3692      656E7365 
 3692      5F496E69 
 3692      7469616C 
 3692      697A6541 
 3693              	.LASF29:
 3694 0420 6E6F6973 		.ascii	"noiseThreshold\000"
 3694      65546872 
 3694      6573686F 
 3694      6C6400
 3695              	.LASF2:
 3696 042f 73686F72 		.ascii	"short int\000"
 3696      7420696E 
 3696      7400
 3697              	.LASF22:
 3698 0439 77696467 		.ascii	"widget\000"
 3698      657400
 3699              	.LASF32:
 3700 0440 6F6E4D61 		.ascii	"onMask\000"
 3700      736B00
 3701              	.LASF47:
 3702 0447 6D617869 		.ascii	"maximum\000"
 3702      6D756D00 
 3703              	.LASF18:
 3704 044f 43617053 		.ascii	"CapSense_BaseInit\000"
 3704      656E7365 
 3704      5F426173 
 3704      65496E69 
 3704      7400
 3705              	.LASF51:
 3706 0461 7265736F 		.ascii	"resolution\000"
 3706      6C757469 
 3706      6F6E00
 3707              	.LASF70:
 3708 046c 43617053 		.ascii	"CapSense_debounce\000"
 3708      656E7365 
 3708      5F646562 
 3708      6F756E63 
 3708      6500
 3709              	.LASF62:
 3710 047e 43617053 		.ascii	"CapSense_sensorBaseline\000"
 3710      656E7365 
 3710      5F73656E 
ARM GAS  C:\Users\HENRYA~1\AppData\Local\Temp\ccxNFFqA.s 			page 94


 3710      736F7242 
 3710      6173656C 
 3711              	.LASF58:
 3712 0496 43617053 		.ascii	"CapSense_GetCentroidPos\000"
 3712      656E7365 
 3712      5F476574 
 3712      43656E74 
 3712      726F6964 
 3713              	.LASF16:
 3714 04ae 63686172 		.ascii	"char\000"
 3714      00
 3715              	.LASF54:
 3716 04b3 43617053 		.ascii	"CapSense_centroid\000"
 3716      656E7365 
 3716      5F63656E 
 3716      74726F69 
 3716      6400
 3717              	.LASF45:
 3718 04c5 6F666673 		.ascii	"offset\000"
 3718      657400
 3719              	.LASF31:
 3720 04cc 6465626F 		.ascii	"debounceIndex\000"
 3720      756E6365 
 3720      496E6465 
 3720      7800
 3721              	.LASF76:
 3722 04da 47656E65 		.ascii	"Generated_Source\\PSoC5\\CapSense_CSHL.c\000"
 3722      72617465 
 3722      645F536F 
 3722      75726365 
 3722      5C50536F 
 3723              	.LASF75:
 3724 0501 474E5520 		.ascii	"GNU C 4.9.3 20150303 (release) [ARM/embedded-4_9-br"
 3724      4320342E 
 3724      392E3320 
 3724      32303135 
 3724      30333033 
 3725 0534 616E6368 		.ascii	"anch revision 221220] -mcpu=cortex-m3 -mthumb -g -O"
 3725      20726576 
 3725      6973696F 
 3725      6E203232 
 3725      31323230 
 3726 0567 67202D66 		.ascii	"g -ffunction-sections -ffat-lto-objects\000"
 3726      66756E63 
 3726      74696F6E 
 3726      2D736563 
 3726      74696F6E 
 3727              	.LASF12:
 3728 058f 696E7431 		.ascii	"int16\000"
 3728      3600
 3729              	.LASF59:
 3730 0595 43617053 		.ascii	"CapSense_sensorRaw\000"
 3730      656E7365 
 3730      5F73656E 
 3730      736F7252 
 3730      617700
 3731              	.LASF50:
ARM GAS  C:\Users\HENRYA~1\AppData\Local\Temp\ccxNFFqA.s 			page 95


 3732 05a8 43617053 		.ascii	"CapSense_CalcCentroid\000"
 3732      656E7365 
 3732      5F43616C 
 3732      6343656E 
 3732      74726F69 
 3733              	.LASF80:
 3734 05be 43617053 		.ascii	"CapSense_ScanEnabledWidgets\000"
 3734      656E7365 
 3734      5F536361 
 3734      6E456E61 
 3734      626C6564 
 3735              	.LASF71:
 3736 05da 43617053 		.ascii	"CapSense_debounceCounter\000"
 3736      656E7365 
 3736      5F646562 
 3736      6F756E63 
 3736      65436F75 
 3737              	.LASF27:
 3738 05f3 74656D70 		.ascii	"tempRaw\000"
 3738      52617700 
 3739              	.LASF79:
 3740 05fb 43617053 		.ascii	"CapSense_IsBusy\000"
 3740      656E7365 
 3740      5F497342 
 3740      75737900 
 3741              	.LASF73:
 3742 060b 43617053 		.ascii	"CapSense_numberOfSensors\000"
 3742      656E7365 
 3742      5F6E756D 
 3742      6265724F 
 3742      6653656E 
 3743              		.ident	"GCC: (GNU Tools for ARM Embedded Processors) 4.9.3 20150303 (release) [ARM/embedded-4_9-br
