ARM GAS  C:\Users\ESTEBAN\AppData\Local\Temp\ccuG9BOe.s 			page 1


   1              		.syntax unified
   2              		.cpu cortex-m3
   3              		.fpu softvfp
   4              		.eabi_attribute 20, 1
   5              		.eabi_attribute 21, 1
   6              		.eabi_attribute 23, 3
   7              		.eabi_attribute 24, 1
   8              		.eabi_attribute 25, 1
   9              		.eabi_attribute 26, 1
  10              		.eabi_attribute 30, 1
  11              		.eabi_attribute 34, 1
  12              		.eabi_attribute 18, 4
  13              		.thumb
  14              		.syntax unified
  15              		.file	"Display0.c"
  16              		.text
  17              	.Ltext0:
  18              		.cfi_sections	.debug_frame
  19              		.section	.text.Display0_WriteControlReg,"ax",%progbits
  20              		.align	2
  21              		.thumb
  22              		.thumb_func
  23              		.type	Display0_WriteControlReg, %function
  24              	Display0_WriteControlReg:
  25              	.LFB16:
  26              		.file 1 "Generated_Source\\PSoC5\\Display0.c"
   1:Generated_Source\PSoC5/Display0.c **** /*******************************************************************************
   2:Generated_Source\PSoC5/Display0.c **** * File Name: Display0.c
   3:Generated_Source\PSoC5/Display0.c **** * Version 3.40
   4:Generated_Source\PSoC5/Display0.c **** *
   5:Generated_Source\PSoC5/Display0.c **** * Description:
   6:Generated_Source\PSoC5/Display0.c **** *  This file provides the API source code for the Segment LCD component.
   7:Generated_Source\PSoC5/Display0.c **** *
   8:Generated_Source\PSoC5/Display0.c **** * Note:
   9:Generated_Source\PSoC5/Display0.c **** *
  10:Generated_Source\PSoC5/Display0.c **** ********************************************************************************
  11:Generated_Source\PSoC5/Display0.c **** * Copyright 2008-2012, Cypress Semiconductor Corporation.  All rights reserved.
  12:Generated_Source\PSoC5/Display0.c **** * You may use this file only in accordance with the license, terms, conditions,
  13:Generated_Source\PSoC5/Display0.c **** * disclaimers, and limitations in the end user license agreement accompanying
  14:Generated_Source\PSoC5/Display0.c **** * the software package with which this file was provided.
  15:Generated_Source\PSoC5/Display0.c **** *******************************************************************************/
  16:Generated_Source\PSoC5/Display0.c **** 
  17:Generated_Source\PSoC5/Display0.c **** #include "Display0.h"
  18:Generated_Source\PSoC5/Display0.c **** #include <Display0_Int_Clock.h>
  19:Generated_Source\PSoC5/Display0.c **** #include <Display0_Lcd_Dma_dma.h>
  20:Generated_Source\PSoC5/Display0.c **** #include <Display0_Frame_Dma_dma.h>
  21:Generated_Source\PSoC5/Display0.c **** 
  22:Generated_Source\PSoC5/Display0.c **** 
  23:Generated_Source\PSoC5/Display0.c **** /* Internal functions */
  24:Generated_Source\PSoC5/Display0.c **** static uint8   Display0_DmaConfigure(void) CYREENTRANT;
  25:Generated_Source\PSoC5/Display0.c **** static void    Display0_DmaDispose(void) CYREENTRANT;
  26:Generated_Source\PSoC5/Display0.c **** static void    Display0_WriteControlReg(uint8 value, uint8 mask) CYREENTRANT;
  27:Generated_Source\PSoC5/Display0.c **** 
  28:Generated_Source\PSoC5/Display0.c **** /* This section contains look-up tables for
  29:Generated_Source\PSoC5/Display0.c **** * different kinds of displays.
  30:Generated_Source\PSoC5/Display0.c **** */
  31:Generated_Source\PSoC5/Display0.c **** #ifdef Display0_7SEG
ARM GAS  C:\Users\ESTEBAN\AppData\Local\Temp\ccuG9BOe.s 			page 2


  32:Generated_Source\PSoC5/Display0.c **** 
  33:Generated_Source\PSoC5/Display0.c ****   static const uint8 CYCODE Display0_7SegDigits[] = \
  34:Generated_Source\PSoC5/Display0.c ****     /*    '0'    '1'    '2'    '3'    '4'    '5'    '6'    '7' */
  35:Generated_Source\PSoC5/Display0.c ****         {0x3fu, 0x06u, 0x5bu, 0x4fu, 0x66u, 0x6du, 0x7du, 0x07u, \
  36:Generated_Source\PSoC5/Display0.c ****     /*    '8'    '9'    'A'    'B'    'C'    'D'    'E'    'F'   null */
  37:Generated_Source\PSoC5/Display0.c ****         0x7fu, 0x6fu, 0x77u, 0x7cu, 0x39u, 0x5eu, 0x79u, 0x71u, 0x00u};
  38:Generated_Source\PSoC5/Display0.c **** 
  39:Generated_Source\PSoC5/Display0.c **** #endif /* Display0_7SEG */
  40:Generated_Source\PSoC5/Display0.c **** 
  41:Generated_Source\PSoC5/Display0.c **** #ifdef ALPHANUMERIC
  42:Generated_Source\PSoC5/Display0.c **** 
  43:Generated_Source\PSoC5/Display0.c ****     #ifdef Display0_14SEG
  44:Generated_Source\PSoC5/Display0.c **** 
  45:Generated_Source\PSoC5/Display0.c ****         static const uint16 CYCODE Display0_14SegChars[] = {
  46:Generated_Source\PSoC5/Display0.c ****         /*------------------------------------------------------------*/
  47:Generated_Source\PSoC5/Display0.c ****         /*                           Blank                            */
  48:Generated_Source\PSoC5/Display0.c ****         /*------------------------------------------------------------*/
  49:Generated_Source\PSoC5/Display0.c ****         0x0000u,0x0000u,0x0000u,0x0000u,0x0000u,0x0000u,0x0000u,0x0000u,
  50:Generated_Source\PSoC5/Display0.c ****         0x0000u,0x0000u,0x0000u,0x0000u,0x0000u,0x0000u,0x0000u,0x0000u,
  51:Generated_Source\PSoC5/Display0.c ****         0x0000u,0x0000u,0x0000u,0x0000u,0x0000u,0x0000u,0x0000u,0x0000u,
  52:Generated_Source\PSoC5/Display0.c ****         0x0000u,0x0000u,0x0000u,0x0000u,0x0000u,0x0000u,0x0000u,0x0000u,
  53:Generated_Source\PSoC5/Display0.c ****         /*------------------------------------------------------------*/
  54:Generated_Source\PSoC5/Display0.c ****         /*         !       "       #       $       %       &       '  */
  55:Generated_Source\PSoC5/Display0.c ****         /*------------------------------------------------------------*/
  56:Generated_Source\PSoC5/Display0.c ****         0x0000u,0x0006u,0x0120u,0x3fffu,0x156du,0x2ee4u,0x2a8du,0x0200u,
  57:Generated_Source\PSoC5/Display0.c ****         /*------------------------------------------------------------*/
  58:Generated_Source\PSoC5/Display0.c ****         /* (       )       *       +       ,       -       .       /  */
  59:Generated_Source\PSoC5/Display0.c ****         /*------------------------------------------------------------*/
  60:Generated_Source\PSoC5/Display0.c ****         0x0a00u,0x2080u,0x3fc0u,0x1540u,0x2000u,0x0440u,0x1058u,0x2200u,
  61:Generated_Source\PSoC5/Display0.c ****         /*------------------------------------------------------------*/
  62:Generated_Source\PSoC5/Display0.c ****         /* 0       1       2       3       4       5       6       7  */
  63:Generated_Source\PSoC5/Display0.c ****         /*------------------------------------------------------------*/
  64:Generated_Source\PSoC5/Display0.c ****         0x223fu,0x0206u,0x045bu,0x040fu,0x0466u,0x0869u,0x047du,0x1201u,
  65:Generated_Source\PSoC5/Display0.c ****         /*------------------------------------------------------------*/
  66:Generated_Source\PSoC5/Display0.c ****         /* 8       9       :       ;       <       =       >       ?  */
  67:Generated_Source\PSoC5/Display0.c ****         /*------------------------------------------------------------*/
  68:Generated_Source\PSoC5/Display0.c ****         0x047fu,0x046fu,0x1100u,0x2100u,0x0a00u,0x0448u,0x2080u,0x1423u,
  69:Generated_Source\PSoC5/Display0.c ****         /*------------------------------------------------------------*/
  70:Generated_Source\PSoC5/Display0.c ****         /* @       A       B       C       D       E       F       G  */
  71:Generated_Source\PSoC5/Display0.c ****         /*------------------------------------------------------------*/
  72:Generated_Source\PSoC5/Display0.c ****         0x053bu,0x0477u,0x150fu,0x0039u,0x110Fu,0x0079u,0x0071u,0x043du,
  73:Generated_Source\PSoC5/Display0.c ****         /*------------------------------------------------------------*/
  74:Generated_Source\PSoC5/Display0.c ****         /* H       I       J       K       L       M       N       O  */
  75:Generated_Source\PSoC5/Display0.c ****         /*------------------------------------------------------------*/
  76:Generated_Source\PSoC5/Display0.c ****         0x0476u,0x1100u,0x001eu,0x0a70u,0x0038u,0x02b6u,0x08b6u,0x003fu,
  77:Generated_Source\PSoC5/Display0.c ****         /*------------------------------------------------------------*/
  78:Generated_Source\PSoC5/Display0.c ****         /* P       Q       R       S       T       U       V       W  */
  79:Generated_Source\PSoC5/Display0.c ****         /*------------------------------------------------------------*/
  80:Generated_Source\PSoC5/Display0.c ****         0x0473u,0x083fu,0x0C73u,0x046du,0x1101u,0x003eu,0x2230u,0x2836u,
  81:Generated_Source\PSoC5/Display0.c ****         /*------------------------------------------------------------*/
  82:Generated_Source\PSoC5/Display0.c ****         /* X       Y       Z       [       \       ]       ^       _  */
  83:Generated_Source\PSoC5/Display0.c ****         /*------------------------------------------------------------*/
  84:Generated_Source\PSoC5/Display0.c ****         0x2a80u,0x1462u,0x2209u,0x0039u,0x0880u,0x000fu,0x0003u,0x0008u,
  85:Generated_Source\PSoC5/Display0.c ****         /*------------------------------------------------------------*/
  86:Generated_Source\PSoC5/Display0.c ****         /* @       a       b       c       d       e       f       g  */
  87:Generated_Source\PSoC5/Display0.c ****         /*------------------------------------------------------------*/
  88:Generated_Source\PSoC5/Display0.c ****         0x053bu,0x0477u,0x150fu,0x0039u,0x110Fu,0x0079u,0x0071u,0x043du,
ARM GAS  C:\Users\ESTEBAN\AppData\Local\Temp\ccuG9BOe.s 			page 3


  89:Generated_Source\PSoC5/Display0.c ****         /*------------------------------------------------------------*/
  90:Generated_Source\PSoC5/Display0.c ****         /* h       i       j       k       l       m       n       o  */
  91:Generated_Source\PSoC5/Display0.c ****         /*------------------------------------------------------------*/
  92:Generated_Source\PSoC5/Display0.c ****         0x0476u,0x1100u,0x001eu,0x0a70u,0x0038u,0x02b6u,0x08b6u,0x003fu,
  93:Generated_Source\PSoC5/Display0.c ****         /*------------------------------------------------------------*/
  94:Generated_Source\PSoC5/Display0.c ****         /* p       q       r       s       t       u       v       w  */
  95:Generated_Source\PSoC5/Display0.c ****         /*------------------------------------------------------------*/
  96:Generated_Source\PSoC5/Display0.c ****         0x0473u,0x083fu,0x0C73u,0x046du,0x1101u,0x003eu,0x2230u,0x2836u,
  97:Generated_Source\PSoC5/Display0.c ****         /*------------------------------------------------------------*/
  98:Generated_Source\PSoC5/Display0.c ****         /* x       y       z       {       |       }        ~      O  */
  99:Generated_Source\PSoC5/Display0.c ****         /*------------------------------------------------------------*/
 100:Generated_Source\PSoC5/Display0.c ****         0x2a80u,0x1280u,0x2209u,0x0e00u,0x1100u,0x20C0u,0x0452u,0x003fu};
 101:Generated_Source\PSoC5/Display0.c **** 
 102:Generated_Source\PSoC5/Display0.c ****     #endif /* Display0_14SEG */
 103:Generated_Source\PSoC5/Display0.c **** 
 104:Generated_Source\PSoC5/Display0.c ****     #ifdef Display0_16SEG
 105:Generated_Source\PSoC5/Display0.c **** 
 106:Generated_Source\PSoC5/Display0.c ****         static const uint16 CYCODE Display0_16SegChars[] = {
 107:Generated_Source\PSoC5/Display0.c ****         /*------------------------------------------------------------*/
 108:Generated_Source\PSoC5/Display0.c ****         /*                           Blank                            */
 109:Generated_Source\PSoC5/Display0.c ****         /*------------------------------------------------------------*/
 110:Generated_Source\PSoC5/Display0.c ****         0x0000u,0x0000u,0x0000u,0x0000u,0x0000u,0x0000u,0x0000u,0x0000u,
 111:Generated_Source\PSoC5/Display0.c ****         0x0000u,0x0000u,0x0000u,0x0000u,0x0000u,0x0000u,0x0000u,0x0000u,
 112:Generated_Source\PSoC5/Display0.c ****         0x0000u,0x0000u,0x0000u,0x0000u,0x0000u,0x0000u,0x0000u,0x0000u,
 113:Generated_Source\PSoC5/Display0.c ****         0x0000u,0x0000u,0x0000u,0x0000u,0x0000u,0x0000u,0x0000u,0x0000u,
 114:Generated_Source\PSoC5/Display0.c ****         /*------------------------------------------------------------*/
 115:Generated_Source\PSoC5/Display0.c ****         /*         !       "       #       $       %       &       '  */
 116:Generated_Source\PSoC5/Display0.c ****         /*------------------------------------------------------------*/
 117:Generated_Source\PSoC5/Display0.c ****         0x0000u,0x000cu,0x0480u,0xffffu,0x55bbu,0xdd99u,0xaa3bu,0x0800u,
 118:Generated_Source\PSoC5/Display0.c ****         /*------------------------------------------------------------*/
 119:Generated_Source\PSoC5/Display0.c ****         /* (       )       *       +       ,       -       .       /  */
 120:Generated_Source\PSoC5/Display0.c ****         /*------------------------------------------------------------*/
 121:Generated_Source\PSoC5/Display0.c ****         0x2800u,0x8200u,0xff00u,0x5500u,0x8000u,0x1100u,0x4160u,0x8800u,
 122:Generated_Source\PSoC5/Display0.c ****         /*------------------------------------------------------------*/
 123:Generated_Source\PSoC5/Display0.c ****         /* 0       1       2       3       4       5       6       7  */
 124:Generated_Source\PSoC5/Display0.c ****         /*------------------------------------------------------------*/
 125:Generated_Source\PSoC5/Display0.c ****         0x88ffu,0x000cu,0x1177u,0x103fu,0x118cu,0x21b3u,0x11fbu,0x4803u,
 126:Generated_Source\PSoC5/Display0.c ****         /*------------------------------------------------------------*/
 127:Generated_Source\PSoC5/Display0.c ****         /* 8       9       :       ;       <       =       >       ?  */
 128:Generated_Source\PSoC5/Display0.c ****         /*------------------------------------------------------------*/
 129:Generated_Source\PSoC5/Display0.c ****         0x11ffu,0x11bfu,0x4400u,0x8400u,0x2800u,0x1130u,0x8200u,0x5087u,
 130:Generated_Source\PSoC5/Display0.c ****         /*------------------------------------------------------------*/
 131:Generated_Source\PSoC5/Display0.c ****         /* @       A       B       C       D       E       F       G  */
 132:Generated_Source\PSoC5/Display0.c ****         /*------------------------------------------------------------*/
 133:Generated_Source\PSoC5/Display0.c ****         0x14f7u,0x11cfu,0x543fu,0x00f3u,0x443fu,0x01f3u,0x01c3u,0x10fbu,
 134:Generated_Source\PSoC5/Display0.c ****         /*------------------------------------------------------------*/
 135:Generated_Source\PSoC5/Display0.c ****         /* H       I       J       K       L       M       N       O  */
 136:Generated_Source\PSoC5/Display0.c ****         /*------------------------------------------------------------*/
 137:Generated_Source\PSoC5/Display0.c ****         0x11ccu,0x4400u,0x007eu,0x29c0u,0x00f0u,0x0accu,0x22ccu,0x00ffu,
 138:Generated_Source\PSoC5/Display0.c ****         /*------------------------------------------------------------*/
 139:Generated_Source\PSoC5/Display0.c ****         /* P       Q       R       S       T       U       V       W  */
 140:Generated_Source\PSoC5/Display0.c ****         /*------------------------------------------------------------*/
 141:Generated_Source\PSoC5/Display0.c ****         0x11c7u,0x20ffu,0x31c7u,0x11bbu,0x4403u,0x00fcu,0x88c0u,0xa0ccu,
 142:Generated_Source\PSoC5/Display0.c ****         /*------------------------------------------------------------*/
 143:Generated_Source\PSoC5/Display0.c ****         /* X       Y       Z       [       \       ]       ^       _  */
 144:Generated_Source\PSoC5/Display0.c ****         /*------------------------------------------------------------*/
 145:Generated_Source\PSoC5/Display0.c ****         0xaa00u,0x5184u,0x8833u,0x4412u,0x2200u,0x4421u,0x0006u,0x0030u,
ARM GAS  C:\Users\ESTEBAN\AppData\Local\Temp\ccuG9BOe.s 			page 4


 146:Generated_Source\PSoC5/Display0.c ****         /*------------------------------------------------------------*/
 147:Generated_Source\PSoC5/Display0.c ****         /* @       a       b       c       d       e       f       g  */
 148:Generated_Source\PSoC5/Display0.c ****         /*------------------------------------------------------------*/
 149:Generated_Source\PSoC5/Display0.c ****         0x14f7u,0x11cfu,0x543fu,0x00f3u,0x443fu,0x01f3u,0x01c3u,0x10fbu,
 150:Generated_Source\PSoC5/Display0.c ****         /*------------------------------------------------------------*/
 151:Generated_Source\PSoC5/Display0.c ****         /* h       i       j       k       l       m       n       o  */
 152:Generated_Source\PSoC5/Display0.c ****         /*------------------------------------------------------------*/
 153:Generated_Source\PSoC5/Display0.c ****         0x11ccu,0x4400u,0x007eu,0x29c0u,0x00f0u,0x0accu,0x22ccu,0x00ffu,
 154:Generated_Source\PSoC5/Display0.c ****         /*------------------------------------------------------------*/
 155:Generated_Source\PSoC5/Display0.c ****         /* p       q       r       s       t       u       v       w  */
 156:Generated_Source\PSoC5/Display0.c ****         /*------------------------------------------------------------*/
 157:Generated_Source\PSoC5/Display0.c ****         0x11c7u,0x20ffu,0x31c7u,0x11bbu,0x4403u,0x00fcu,0x88c0u,0xa0ccu,
 158:Generated_Source\PSoC5/Display0.c ****         /*------------------------------------------------------------*/
 159:Generated_Source\PSoC5/Display0.c ****         /* x       y       z       {       |       }        ~         */
 160:Generated_Source\PSoC5/Display0.c ****         /*------------------------------------------------------------*/
 161:Generated_Source\PSoC5/Display0.c ****         0xaa00u,0x4A00u,0x8833u,0x3800u,0x4400u,0x8300u,0x1144u,0x0000u};
 162:Generated_Source\PSoC5/Display0.c **** 
 163:Generated_Source\PSoC5/Display0.c ****     #endif /* Display0_16SEG */
 164:Generated_Source\PSoC5/Display0.c **** 
 165:Generated_Source\PSoC5/Display0.c ****     #ifdef Display0_DOT_MATRIX
 166:Generated_Source\PSoC5/Display0.c ****         static const uint8 CYCODE Display0_charDotMatrix[][5u] = {
 167:Generated_Source\PSoC5/Display0.c ****         {0x00u, 0x00u, 0x00u, 0x00u, 0x00u}, {0x00u, 0x00u, 0x00u, 0x00u, 0x00u}, {0x00u, 0x00u, 0x
 168:Generated_Source\PSoC5/Display0.c ****         {0x00u, 0x00u, 0x00u, 0x00u, 0x00u}, {0x00u, 0x00u, 0x00u, 0x00u, 0x00u}, {0x00u, 0x00u, 0x
 169:Generated_Source\PSoC5/Display0.c ****         {0x00u, 0x00u, 0x00u, 0x00u, 0x00u}, {0x00u, 0x00u, 0x00u, 0x00u, 0x00u}, {0x00u, 0x00u, 0x
 170:Generated_Source\PSoC5/Display0.c ****         {0x00u, 0x00u, 0x00u, 0x00u, 0x00u}, {0x00u, 0x00u, 0x00u, 0x00u, 0x00u}, {0x00u, 0x00u, 0x
 171:Generated_Source\PSoC5/Display0.c ****         {0x00u, 0x00u, 0x00u, 0x00u, 0x00u}, {0x00u, 0x00u, 0x00u, 0x00u, 0x00u}, {0x00u, 0x00u, 0x
 172:Generated_Source\PSoC5/Display0.c ****         {0x00u, 0x00u, 0x00u, 0x00u, 0x00u}, {0x3Eu, 0x1Cu, 0x1Cu, 0x08u, 0x08u}, {0x08u, 0x08u, 0x
 173:Generated_Source\PSoC5/Display0.c ****         {0x02u, 0x06u, 0x08u, 0x10u, 0x20u}, {0x00u, 0x4Fu, 0x00u, 0x4Fu, 0x00u}, {0x06u, 0x0Fu, 0x
 174:Generated_Source\PSoC5/Display0.c ****         {0x48u, 0x56u, 0x55u, 0x35u, 0x09u}, {0x0Cu, 0x0Cu, 0x0Cu, 0x0Cu, 0x0Cu}, {0x10u, 0x38u, 0x
 175:Generated_Source\PSoC5/Display0.c ****         {0x04u, 0x02u, 0x7Fu, 0x02u, 0x04u}, {0x10u, 0x20u, 0x7Fu, 0x20u, 0x10u}, {0x7Fu, 0x3Eu, 0x
 176:Generated_Source\PSoC5/Display0.c ****         {0x7Fu, 0x08u, 0x1Cu, 0x3Eu, 0x7Fu}, {0x7Fu, 0x08u, 0x2Au, 0x1Cu, 0x08u}, {0x08u, 0x1Cu, 0x
 177:Generated_Source\PSoC5/Display0.c ****         {0x02u, 0x0Eu, 0x3Eu, 0x0Eu, 0x02u}, {0x20u, 0x38u, 0x3Eu, 0x38u, 0x20u}, {0x00u, 0x00u, 0x
 178:Generated_Source\PSoC5/Display0.c ****         {0x00u, 0x00u, 0x4Fu, 0x00u, 0x00u}, {0x00u, 0x07u, 0x00u, 0x07u, 0x00u}, {0x14u, 0x7Fu, 0x
 179:Generated_Source\PSoC5/Display0.c ****         {0x24u, 0x2Au, 0x7Fu, 0x2Au, 0x12u}, {0x23u, 0x13u, 0x08u, 0x64u, 0x62u}, {0x36u, 0x49u, 0x
 180:Generated_Source\PSoC5/Display0.c ****         {0x00u, 0x05u, 0x03u, 0x00u, 0x00u}, {0x00u, 0x1Cu, 0x22u, 0x41u, 0x00u}, {0x00u, 0x41u, 0x
 181:Generated_Source\PSoC5/Display0.c ****         {0x14u, 0x08u, 0x3Eu, 0x08u, 0x14u}, {0x08u, 0x08u, 0x3Eu, 0x08u, 0x08u}, {0x00u, 0x50u, 0x
 182:Generated_Source\PSoC5/Display0.c ****         {0x08u, 0x08u, 0x08u, 0x08u, 0x08u}, {0x00u, 0x60u, 0x60u, 0x00u, 0x00u}, {0x20u, 0x10u, 0x
 183:Generated_Source\PSoC5/Display0.c ****         {0x3Eu, 0x51u, 0x49u, 0x45u, 0x3Eu}, {0x00u, 0x42u, 0x7Fu, 0x40u, 0x00u}, {0x42u, 0x61u, 0x
 184:Generated_Source\PSoC5/Display0.c ****         {0x21u, 0x41u, 0x45u, 0x4Bu, 0x31u}, {0x18u, 0x14u, 0x12u, 0x7Fu, 0x10u}, {0x27u, 0x45u, 0x
 185:Generated_Source\PSoC5/Display0.c ****         {0x3Cu, 0x4Au, 0x49u, 0x49u, 0x30u}, {0x01u, 0x71u, 0x09u, 0x05u, 0x03u}, {0x36u, 0x49u, 0x
 186:Generated_Source\PSoC5/Display0.c ****         {0x06u, 0x49u, 0x49u, 0x29u, 0x1Eu}, {0x00u, 0x36u, 0x36u, 0x00u, 0x00u}, {0x00u, 0x56u, 0x
 187:Generated_Source\PSoC5/Display0.c ****         {0x08u, 0x14u, 0x22u, 0x41u, 0x00u}, {0x14u, 0x14u, 0x14u, 0x14u, 0x14u}, {0x00u, 0x41u, 0x
 188:Generated_Source\PSoC5/Display0.c ****         {0x02u, 0x01u, 0x51u, 0x09u, 0x06u}, {0x32u, 0x49u, 0x79u, 0x41u, 0x3Eu}, {0x7Eu, 0x11u, 0x
 189:Generated_Source\PSoC5/Display0.c ****         {0x7Fu, 0x49u, 0x49u, 0x49u, 0x36u}, {0x3Eu, 0x41u, 0x41u, 0x41u, 0x22u}, {0x7Fu, 0x41u, 0x
 190:Generated_Source\PSoC5/Display0.c ****         {0x7Fu, 0x49u, 0x49u, 0x49u, 0x41u}, {0x7Fu, 0x09u, 0x09u, 0x09u, 0x01u}, {0x3Eu, 0x41u, 0x
 191:Generated_Source\PSoC5/Display0.c ****         {0x7Fu, 0x08u, 0x08u, 0x08u, 0x7Fu}, {0x00u, 0x41u, 0x7Fu, 0x41u, 0x00u}, {0x20u, 0x40u, 0x
 192:Generated_Source\PSoC5/Display0.c ****         {0x7Fu, 0x08u, 0x14u, 0x22u, 0x41u}, {0x7Fu, 0x40u, 0x40u, 0x40u, 0x40u}, {0x7Fu, 0x02u, 0x
 193:Generated_Source\PSoC5/Display0.c ****         {0x7Fu, 0x04u, 0x08u, 0x10u, 0x7Fu}, {0x3Eu, 0x41u, 0x41u, 0x41u, 0x3Eu}, {0x7Fu, 0x09u, 0x
 194:Generated_Source\PSoC5/Display0.c ****         {0x3Eu, 0x41u, 0x51u, 0x21u, 0x5Eu}, {0x7Fu, 0x09u, 0x19u, 0x29u, 0x46u}, {0x46u, 0x49u, 0x
 195:Generated_Source\PSoC5/Display0.c ****         {0x01u, 0x01u, 0x7Fu, 0x01u, 0x01u}, {0x3Fu, 0x40u, 0x40u, 0x40u, 0x3Fu}, {0x1Fu, 0x20u, 0x
 196:Generated_Source\PSoC5/Display0.c ****         {0x3Fu, 0x40u, 0x38u, 0x40u, 0x3Fu}, {0x63u, 0x14u, 0x08u, 0x14u, 0x63u}, {0x07u, 0x08u, 0x
 197:Generated_Source\PSoC5/Display0.c ****         {0x61u, 0x51u, 0x49u, 0x45u, 0x43u}, {0x00u, 0x7Fu, 0x41u, 0x41u, 0x00u}, {0x15u, 0x16u, 0x
 198:Generated_Source\PSoC5/Display0.c ****         {0x00u, 0x41u, 0x41u, 0x7Fu, 0x00u}, {0x04u, 0x02u, 0x01u, 0x02u, 0x04u}, {0x40u, 0x40u, 0x
 199:Generated_Source\PSoC5/Display0.c ****         {0x00u, 0x01u, 0x02u, 0x04u, 0x00u}, {0x20u, 0x54u, 0x54u, 0x54u, 0x78u}, {0x7Fu, 0x48u, 0x
 200:Generated_Source\PSoC5/Display0.c ****         {0x38u, 0x44u, 0x44u, 0x44u, 0x40u}, {0x38u, 0x44u, 0x44u, 0x48u, 0x7Fu}, {0x38u, 0x54u, 0x
 201:Generated_Source\PSoC5/Display0.c ****         {0x08u, 0x7Eu, 0x09u, 0x01u, 0x02u}, {0x0Cu, 0x52u, 0x52u, 0x52u, 0x3Eu}, {0x7Fu, 0x08u, 0x
 202:Generated_Source\PSoC5/Display0.c ****         {0x00u, 0x44u, 0x7Du, 0x40u, 0x00u}, {0x20u, 0x40u, 0x40u, 0x3Du, 0x00u}, {0x7Fu, 0x10u, 0x
ARM GAS  C:\Users\ESTEBAN\AppData\Local\Temp\ccuG9BOe.s 			page 5


 203:Generated_Source\PSoC5/Display0.c ****         {0x00u, 0x41u, 0x7Fu, 0x40u, 0x00u}, {0x7Cu, 0x04u, 0x18u, 0x04u, 0x78u}, {0x7Cu, 0x08u, 0x
 204:Generated_Source\PSoC5/Display0.c ****         {0x38u, 0x44u, 0x44u, 0x44u, 0x38u}, {0x7Cu, 0x14u, 0x14u, 0x14u, 0x08u}, {0x08u, 0x14u, 0x
 205:Generated_Source\PSoC5/Display0.c ****         {0x7Cu, 0x08u, 0x04u, 0x04u, 0x08u}, {0x48u, 0x54u, 0x54u, 0x54u, 0x20u}, {0x04u, 0x3Fu, 0x
 206:Generated_Source\PSoC5/Display0.c ****         {0x3Cu, 0x40u, 0x40u, 0x20u, 0x7Cu}, {0x1Cu, 0x20u, 0x40u, 0x20u, 0x1Cu}, {0x3Cu, 0x40u, 0x
 207:Generated_Source\PSoC5/Display0.c ****         {0x44u, 0x28u, 0x10u, 0x28u, 0x44u}, {0x0Cu, 0x50u, 0x50u, 0x50u, 0x3Cu}, {0x44u, 0x64u, 0x
 208:Generated_Source\PSoC5/Display0.c ****         {0x00u, 0x08u, 0x36u, 0x41u, 0x00u}, {0x00u, 0x00u, 0x7Fu, 0x00u, 0x00u}, {0x00u, 0x41u, 0x
 209:Generated_Source\PSoC5/Display0.c ****         {0x00u, 0x00u, 0x00u, 0x00u, 0x00u}, {0x08u, 0x08u, 0x2Au, 0x1Cu, 0x08u}, {0x44u, 0x44u, 0x
 210:Generated_Source\PSoC5/Display0.c ****         {0x22u, 0x14u, 0x08u, 0x14u, 0x22u}, {0x1Cu, 0x3Eu, 0x3Eu, 0x3Eu, 0x1Cu}, {0x7Fu, 0x41u, 0x
 211:Generated_Source\PSoC5/Display0.c ****         {0x7Fu, 0x5Bu, 0x41u, 0x5Fu, 0x7Fu}, {0x7Fu, 0x4Du, 0x55u, 0x59u, 0x7Fu}, {0x1Du, 0x15u, 0x
 212:Generated_Source\PSoC5/Display0.c ****         {0x15u, 0x15u, 0x1Fu, 0x00u, 0x00u}, {0x17u, 0x08u, 0x74u, 0x56u, 0x5Du}, {0x17u, 0x08u, 0x
 213:Generated_Source\PSoC5/Display0.c ****         {0x35u, 0x1Fu, 0x28u, 0x34u, 0x7Au}, {0x08u, 0x14u, 0x2Au, 0x14u, 0x22u}, {0x22u, 0x14u, 0x
 214:Generated_Source\PSoC5/Display0.c ****         {0x08u, 0x04u, 0x08u, 0x10u, 0x08u}, {0x14u, 0x0Au, 0x14u, 0x28u, 0x14u}, {0x2Au, 0x55u, 0x
 215:Generated_Source\PSoC5/Display0.c ****         {0x24u, 0x3Bu, 0x2Au, 0x7Eu, 0x2Au}, {0x40u, 0x3Fu, 0x15u, 0x15u, 0x7Fu}, {0x46u, 0x20u, 0x
 216:Generated_Source\PSoC5/Display0.c ****         {0x24u, 0x14u, 0x7Fu, 0x18u, 0x24u}, {0x24u, 0x14u, 0x7Fu, 0x14u, 0x24u}, {0x44u, 0x6Au, 0x
 217:Generated_Source\PSoC5/Display0.c ****         {0x40u, 0x44u, 0x7Fu, 0x44u, 0x40u}, {0x7Fu, 0x49u, 0x49u, 0x49u, 0x7Fu}, {0x02u, 0x4Cu, 0x
 218:Generated_Source\PSoC5/Display0.c ****         {0x04u, 0x04u, 0x3Cu, 0x04u, 0x44u}, {0x49u, 0x55u, 0x7Fu, 0x55u, 0x49u}, {0x3Au, 0x45u, 0x
 219:Generated_Source\PSoC5/Display0.c ****         {0x40u, 0x3Eu, 0x10u, 0x10u, 0x1Eu}, {0x08u, 0x54u, 0x3Eu, 0x15u, 0x08u}, {0x7Fu, 0x7Fu, 0x
 220:Generated_Source\PSoC5/Display0.c ****         {0x55u, 0x2Au, 0x55u, 0x2Au, 0x55u}, {0x00u, 0x00u, 0x00u, 0x00u, 0x00u}, {0x70u, 0x50u, 0x
 221:Generated_Source\PSoC5/Display0.c ****         {0x00u, 0x00u, 0x0Fu, 0x01u, 0x01u}, {0x40u, 0x40u, 0x70u, 0x00u, 0x00u}, {0x10u, 0x20u, 0x
 222:Generated_Source\PSoC5/Display0.c ****         {0x00u, 0x18u, 0x18u, 0x00u, 0x00u}, {0x0Au, 0x0Au, 0x4Au, 0x2Au, 0x1Eu}, {0x04u, 0x44u, 0x
 223:Generated_Source\PSoC5/Display0.c ****         {0x20u, 0x10u, 0x78u, 0x04u, 0x00u}, {0x18u, 0x08u, 0x4Cu, 0x48u, 0x38u}, {0x48u, 0x48u, 0x
 224:Generated_Source\PSoC5/Display0.c ****         {0x48u, 0x28u, 0x18u, 0x78u, 0x08u}, {0x08u, 0x7Cu, 0x08u, 0x28u, 0x18u}, {0x40u, 0x48u, 0x
 225:Generated_Source\PSoC5/Display0.c ****         {0x54u, 0x54u, 0x54u, 0x7Cu, 0x00u}, {0x18u, 0x00u, 0x58u, 0x40u, 0x38u}, {0x08u, 0x08u, 0x
 226:Generated_Source\PSoC5/Display0.c ****         {0x01u, 0x41u, 0x3Du, 0x09u, 0x07u}, {0x10u, 0x08u, 0x78u, 0x02u, 0x01u}, {0x06u, 0x02u, 0x
 227:Generated_Source\PSoC5/Display0.c ****         {0x42u, 0x42u, 0x7Eu, 0x42u, 0x42u}, {0x22u, 0x12u, 0x0Au, 0x7Fu, 0x02u}, {0x42u, 0x3Fu, 0x
 228:Generated_Source\PSoC5/Display0.c ****         {0x0Au, 0x0Au, 0x7Fu, 0x0Au, 0x0Au}, {0x08u, 0x46u, 0x42u, 0x22u, 0x1Eu}, {0x04u, 0x03u, 0x
 229:Generated_Source\PSoC5/Display0.c ****         {0x42u, 0x42u, 0x42u, 0x42u, 0x7Eu}, {0x02u, 0x4Fu, 0x22u, 0x1Fu, 0x02u}, {0x4Au, 0x4Au, 0x
 230:Generated_Source\PSoC5/Display0.c ****         {0x42u, 0x22u, 0x12u, 0x2Au, 0x46u}, {0x02u, 0x3Fu, 0x42u, 0x4Au, 0x46u}, {0x06u, 0x48u, 0x
 231:Generated_Source\PSoC5/Display0.c ****         {0x08u, 0x46u, 0x4Au, 0x32u, 0x1Eu}, {0x0Au, 0x4Au, 0x3Eu, 0x09u, 0x08u}, {0x0Eu, 0x00u, 0x
 232:Generated_Source\PSoC5/Display0.c ****         {0x04u, 0x45u, 0x3Du, 0x05u, 0x04u}, {0x00u, 0x7Fu, 0x08u, 0x10u, 0x00u}, {0x44u, 0x24u, 0x
 233:Generated_Source\PSoC5/Display0.c ****         {0x40u, 0x42u, 0x42u, 0x42u, 0x40u}, {0x42u, 0x2Au, 0x12u, 0x2Au, 0x06u}, {0x22u, 0x12u, 0x
 234:Generated_Source\PSoC5/Display0.c ****         {0x00u, 0x40u, 0x20u, 0x1Fu, 0x00u}, {0x78u, 0x00u, 0x02u, 0x04u, 0x78u}, {0x3Fu, 0x44u, 0x
 235:Generated_Source\PSoC5/Display0.c ****         {0x02u, 0x42u, 0x42u, 0x22u, 0x1Eu}, {0x04u, 0x02u, 0x04u, 0x08u, 0x30u}, {0x32u, 0x02u, 0x
 236:Generated_Source\PSoC5/Display0.c ****         {0x02u, 0x12u, 0x22u, 0x52u, 0x0Eu}, {0x00u, 0x2Au, 0x2Au, 0x2Au, 0x40u}, {0x38u, 0x24u, 0x
 237:Generated_Source\PSoC5/Display0.c ****         {0x40u, 0x28u, 0x10u, 0x28u, 0x06u}, {0x0Au, 0x3Eu, 0x4Au, 0x4Au, 0x4Au}, {0x04u, 0x7Fu, 0x
 238:Generated_Source\PSoC5/Display0.c ****         {0x40u, 0x42u, 0x42u, 0x7Eu, 0x40u}, {0x4Au, 0x4Au, 0x4Au, 0x4Au, 0x7Eu}, {0x04u, 0x05u, 0x
 239:Generated_Source\PSoC5/Display0.c ****         {0x0Fu, 0x40u, 0x20u, 0x1Fu, 0x00u}, {0x7Cu, 0x00u, 0x7Eu, 0x40u, 0x30u}, {0x7Eu, 0x40u, 0x
 240:Generated_Source\PSoC5/Display0.c ****         {0x7Eu, 0x7Eu, 0x7Eu, 0x7Eu, 0x7Eu}, {0x0Eu, 0x02u, 0x42u, 0x22u, 0x1Eu}, {0x42u, 0x42u, 0x
 241:Generated_Source\PSoC5/Display0.c ****         {0x02u, 0x04u, 0x01u, 0x02u, 0x00u}, {0x07u, 0x05u, 0x07u, 0x00u, 0x00u}, {0x38u, 0x44u, 0x
 242:Generated_Source\PSoC5/Display0.c ****         {0x20u, 0x55u, 0x55u, 0x55u, 0x38u}, {0xFEu, 0x15u, 0x15u, 0x15u, 0x0Au}, {0x28u, 0x54u, 0x
 243:Generated_Source\PSoC5/Display0.c ****         {0xFFu, 0x10u, 0x10u, 0x08u, 0x1Fu}, {0x38u, 0x44u, 0x4Cu, 0x54u, 0x24u}, {0xFCu, 0x12u, 0x
 244:Generated_Source\PSoC5/Display0.c ****         {0x0Eu, 0xA1u, 0xA1u, 0xA1u, 0x7Fu}, {0x20u, 0x40u, 0x3Cu, 0x04u, 0x04u}, {0x04u, 0x04u, 0x
 245:Generated_Source\PSoC5/Display0.c ****         {0x40u, 0x80u, 0x81u, 0x7Fu, 0x00u}, {0x0Au, 0x04u, 0x0Au, 0x00u, 0x00u}, {0x18u, 0x24u, 0x
 246:Generated_Source\PSoC5/Display0.c ****         {0x14u, 0x7Fu, 0x54u, 0x40u, 0x40u}, {0x7Cu, 0x0Au, 0x05u, 0x05u, 0x78u}, {0x38u, 0x45u, 0x
 247:Generated_Source\PSoC5/Display0.c ****         {0xFFu, 0x12u, 0x11u, 0x11u, 0x0Eu}, {0x0Eu, 0x11u, 0x11u, 0x12u, 0xFFu}, {0x3Cu, 0x4Au, 0x
 248:Generated_Source\PSoC5/Display0.c ****         {0x30u, 0x28u, 0x10u, 0x28u, 0x18u}, {0x58u, 0x64u, 0x04u, 0x64u, 0x58u}, {0x3Cu, 0x41u, 0x
 249:Generated_Source\PSoC5/Display0.c ****         {0x63u, 0x55u, 0x4Au, 0x41u, 0x41u}, {0x44u, 0x3Cu, 0x04u, 0x7Cu, 0x44u}, {0x45u, 0x29u, 0x
 250:Generated_Source\PSoC5/Display0.c ****         {0x0Fu, 0x90u, 0x90u, 0x90u, 0x7Fu}, {0x14u, 0x14u, 0x7Cu, 0x14u, 0x12u}, {0x44u, 0x3Cu, 0x
 251:Generated_Source\PSoC5/Display0.c ****         {0x7Cu, 0x14u, 0x1Cu, 0x14u, 0x7Cu}, {0x10u, 0x10u, 0x54u, 0x10u, 0x10u}, {0x00u, 0x00u, 0x
 252:Generated_Source\PSoC5/Display0.c ****         {0xFFu, 0xFFu, 0xFFu, 0xFFu, 0xFFu}
 253:Generated_Source\PSoC5/Display0.c ****         };
 254:Generated_Source\PSoC5/Display0.c ****     #endif /* Display0_DOT_MATRIX */
 255:Generated_Source\PSoC5/Display0.c **** #endif /* ALPHANUMERIC */
 256:Generated_Source\PSoC5/Display0.c **** 
 257:Generated_Source\PSoC5/Display0.c **** uint8 Display0_initVar = 0u;
 258:Generated_Source\PSoC5/Display0.c **** 
 259:Generated_Source\PSoC5/Display0.c **** /* Stores DMA  channel number used for Frame signal transaction */
ARM GAS  C:\Users\ESTEBAN\AppData\Local\Temp\ccuG9BOe.s 			page 6


 260:Generated_Source\PSoC5/Display0.c **** static uint8 Display0_frameChannel;
 261:Generated_Source\PSoC5/Display0.c **** 
 262:Generated_Source\PSoC5/Display0.c **** /* The one and only - Frame Buffer */
 263:Generated_Source\PSoC5/Display0.c **** static uint8 Display0_buffer[Display0_BUFFER_LENGTH];
 264:Generated_Source\PSoC5/Display0.c **** 
 265:Generated_Source\PSoC5/Display0.c **** /* Array of common port TDs */
 266:Generated_Source\PSoC5/Display0.c **** static uint8 Display0_lcdTd[Display0_LCD_TD_SIZE * Display0_COMM_NUM];
 267:Generated_Source\PSoC5/Display0.c **** 
 268:Generated_Source\PSoC5/Display0.c **** /* DMA channel dedicated for SegLCD commons */
 269:Generated_Source\PSoC5/Display0.c **** static uint8 Display0_lcdChannel;
 270:Generated_Source\PSoC5/Display0.c **** 
 271:Generated_Source\PSoC5/Display0.c **** /* Start of customizer generated code */
 272:Generated_Source\PSoC5/Display0.c **** 
 273:Generated_Source\PSoC5/Display0.c **** static uint16 Display0_commons[2u] = {Display0_Com0, Display0_Com1};
 274:Generated_Source\PSoC5/Display0.c **** 
 275:Generated_Source\PSoC5/Display0.c **** static uint8 Display0_frameTx[2u] = {0x80u, 0x00u};
 276:Generated_Source\PSoC5/Display0.c **** static uint8 Display0_frameTd[2u];
 277:Generated_Source\PSoC5/Display0.c **** 
 278:Generated_Source\PSoC5/Display0.c **** 
 279:Generated_Source\PSoC5/Display0.c **** /*******************************************************************************
 280:Generated_Source\PSoC5/Display0.c **** * Function Name: Display0_Init
 281:Generated_Source\PSoC5/Display0.c **** ********************************************************************************
 282:Generated_Source\PSoC5/Display0.c **** *
 283:Generated_Source\PSoC5/Display0.c **** * Summary:
 284:Generated_Source\PSoC5/Display0.c **** *  Perform initialization of the component. Configures and enables all required
 285:Generated_Source\PSoC5/Display0.c **** *  hardware blocks, clears frame buffer.
 286:Generated_Source\PSoC5/Display0.c **** *
 287:Generated_Source\PSoC5/Display0.c **** * Parameters:
 288:Generated_Source\PSoC5/Display0.c **** *  None.
 289:Generated_Source\PSoC5/Display0.c **** *
 290:Generated_Source\PSoC5/Display0.c **** * Return:
 291:Generated_Source\PSoC5/Display0.c **** *  None.
 292:Generated_Source\PSoC5/Display0.c **** *
 293:Generated_Source\PSoC5/Display0.c **** * Reentrant:
 294:Generated_Source\PSoC5/Display0.c **** *  No.
 295:Generated_Source\PSoC5/Display0.c **** *
 296:Generated_Source\PSoC5/Display0.c **** *******************************************************************************/
 297:Generated_Source\PSoC5/Display0.c **** void Display0_Init(void) 
 298:Generated_Source\PSoC5/Display0.c **** {
 299:Generated_Source\PSoC5/Display0.c ****     /* LCD Timer configuration */
 300:Generated_Source\PSoC5/Display0.c ****     #if(Display0_POWER_MODE == Display0__LOW_POWER_ILO)
 301:Generated_Source\PSoC5/Display0.c **** 
 302:Generated_Source\PSoC5/Display0.c ****         /* Select ILO as a wake up source */
 303:Generated_Source\PSoC5/Display0.c ****         Display0_TIMER_CONTROL_REG = 
 304:Generated_Source\PSoC5/Display0.c ****             Display0_TIMER_CONTROL_REG & ((uint8) ~Display0_TIMER_CLK_SEL_MASK);
 305:Generated_Source\PSoC5/Display0.c ****         /* Set period */
 306:Generated_Source\PSoC5/Display0.c ****         Display0_TIMER_CONTROL_REG = (Display0_TIMER_CONTROL_REG & 
 307:Generated_Source\PSoC5/Display0.c ****                             ((uint8) ~Display0_TIMER_PERIOD_MASK))
 308:Generated_Source\PSoC5/Display0.c ****                             | (uint8) (((uint8) Display0_TIMER_PERIOD) << Display0_TIMER_PERIOD_SHI
 309:Generated_Source\PSoC5/Display0.c **** 
 310:Generated_Source\PSoC5/Display0.c ****     #elif(Display0_POWER_MODE == Display0__LOW_POWER_32XTAL)
 311:Generated_Source\PSoC5/Display0.c ****         /* One PPS must be enabled to generate 8Khz clock for LCD Timer */
 312:Generated_Source\PSoC5/Display0.c ****         Display0_TM_WL_GFG_REG |= Display0_ONE_PPS_EN;
 313:Generated_Source\PSoC5/Display0.c ****         /* Select 8K tap from OPPS timer as a wake up source */
 314:Generated_Source\PSoC5/Display0.c ****         Display0_TIMER_CONTROL_REG = Display0_TIMER_CONTROL_REG | Display0_TIMER_32XTAL_SEL;
 315:Generated_Source\PSoC5/Display0.c ****         /* Set period */
 316:Generated_Source\PSoC5/Display0.c ****         Display0_TIMER_CONTROL_REG = (Display0_TIMER_CONTROL_REG &
ARM GAS  C:\Users\ESTEBAN\AppData\Local\Temp\ccuG9BOe.s 			page 7


 317:Generated_Source\PSoC5/Display0.c ****                            ((uint8) ~Display0_TIMER_PERIOD_MASK))
 318:Generated_Source\PSoC5/Display0.c ****                            | (uint8) (((uint8) Display0_TIMER_PERIOD) << Display0_TIMER_PERIOD_SHIF
 319:Generated_Source\PSoC5/Display0.c **** 
 320:Generated_Source\PSoC5/Display0.c ****     #endif /* Display0_POWER_MODE == Display0__LOW_POWER_ILO */
 321:Generated_Source\PSoC5/Display0.c **** 
 322:Generated_Source\PSoC5/Display0.c ****     /* Need to clear display to start normal work */
 323:Generated_Source\PSoC5/Display0.c ****     Display0_ClearDisplay();
 324:Generated_Source\PSoC5/Display0.c **** 
 325:Generated_Source\PSoC5/Display0.c ****     /* Select LCD DAC generated voltage as the source for LCD Driver */
 326:Generated_Source\PSoC5/Display0.c ****     Display0_LCDDAC_SWITCH_REG0_REG = Display0_LCDDAC_VOLTAGE_SEL;
 327:Generated_Source\PSoC5/Display0.c ****     Display0_LCDDAC_SWITCH_REG1_REG = Display0_LCDDAC_VOLTAGE_SEL;
 328:Generated_Source\PSoC5/Display0.c ****     Display0_LCDDAC_SWITCH_REG2_REG = Display0_LCDDAC_VOLTAGE_SEL;
 329:Generated_Source\PSoC5/Display0.c ****     Display0_LCDDAC_SWITCH_REG3_REG = Display0_LCDDAC_VOLTAGE_SEL;
 330:Generated_Source\PSoC5/Display0.c ****     Display0_LCDDAC_SWITCH_REG4_REG = Display0_LCDDAC_VOLTAGE_SEL;
 331:Generated_Source\PSoC5/Display0.c **** 
 332:Generated_Source\PSoC5/Display0.c ****     /* Turn on the LCD DAC and set the bias type */
 333:Generated_Source\PSoC5/Display0.c ****     Display0_LCDDAC_CONTROL_REG = (Display0_LCDDAC_CONTROL_REG & Display0_BIAS_TYPE_MASK)
 334:Generated_Source\PSoC5/Display0.c ****         | Display0_BIAS_TYPE;
 335:Generated_Source\PSoC5/Display0.c **** 
 336:Generated_Source\PSoC5/Display0.c ****     /* Set the contrast level for LCD with value chosen in the GUI */
 337:Generated_Source\PSoC5/Display0.c ****     (void) Display0_SetBias(Display0_BIAS_VOLTAGE);
 338:Generated_Source\PSoC5/Display0.c **** 
 339:Generated_Source\PSoC5/Display0.c ****     /* Set lower bit of HI Drive strength to LCD Driver control register */
 340:Generated_Source\PSoC5/Display0.c ****     Display0_DRIVER_CONTROL_REG |= ((uint8) (((uint8)(((uint8) Display0_HIDRIVE_STRENGTH) << 
 341:Generated_Source\PSoC5/Display0.c ****                                 Display0_LCDDRV_MODE0_SHIFT)) & ((uint8) Display0_LCDDRV_MODE0_MASK
 342:Generated_Source\PSoC5/Display0.c **** 
 343:Generated_Source\PSoC5/Display0.c ****     /* Set two high bits of HI Drive strength */
 344:Generated_Source\PSoC5/Display0.c ****     Display0_WriteControlReg((uint8) (Display0_HIDRIVE_STRENGTH & Display0_MODE_MASK),
 345:Generated_Source\PSoC5/Display0.c ****                                      (uint8) Display0_CNTL_MODE_MASK);
 346:Generated_Source\PSoC5/Display0.c **** 
 347:Generated_Source\PSoC5/Display0.c ****     /* ISR initialization */
 348:Generated_Source\PSoC5/Display0.c ****     (void) CyIntDisable(Display0_ISR_NUMBER);
 349:Generated_Source\PSoC5/Display0.c **** 
 350:Generated_Source\PSoC5/Display0.c ****     /* Set the ISR to point to the TD_DoneInt Interrupt. */
 351:Generated_Source\PSoC5/Display0.c ****     (void) CyIntSetVector(Display0_ISR_NUMBER, &Display0_ISR);
 352:Generated_Source\PSoC5/Display0.c **** 
 353:Generated_Source\PSoC5/Display0.c ****     /* Set the priority. */
 354:Generated_Source\PSoC5/Display0.c ****     CyIntSetPriority(Display0_ISR_NUMBER, Display0_ISR_PRIORITY);
 355:Generated_Source\PSoC5/Display0.c ****      
 356:Generated_Source\PSoC5/Display0.c ****     #if(CY_PSOC5LP)
 357:Generated_Source\PSoC5/Display0.c ****     
 358:Generated_Source\PSoC5/Display0.c ****         /* Wakeup ISR initialization */
 359:Generated_Source\PSoC5/Display0.c ****         CyIntDisable(Display0_WAKEUP_ISR_NUMBER);
 360:Generated_Source\PSoC5/Display0.c **** 
 361:Generated_Source\PSoC5/Display0.c ****         /* Set the ISR to point to the Wakeup_isr Interrupt. */
 362:Generated_Source\PSoC5/Display0.c ****         (void) CyIntSetVector(Display0_WAKEUP_ISR_NUMBER, &Display0_WAKEUP_ISR);
 363:Generated_Source\PSoC5/Display0.c **** 
 364:Generated_Source\PSoC5/Display0.c ****         /* Set the priority of Wakeup ISR. */
 365:Generated_Source\PSoC5/Display0.c ****         CyIntSetPriority(Display0_WAKEUP_ISR_NUMBER, Display0_WAKEUP_ISR_PRIORITY);
 366:Generated_Source\PSoC5/Display0.c ****     
 367:Generated_Source\PSoC5/Display0.c ****     #endif /* CY_PSOC5LP */
 368:Generated_Source\PSoC5/Display0.c **** }
 369:Generated_Source\PSoC5/Display0.c **** 
 370:Generated_Source\PSoC5/Display0.c **** 
 371:Generated_Source\PSoC5/Display0.c **** /*******************************************************************************
 372:Generated_Source\PSoC5/Display0.c **** * Function Name: Display0_Enable
 373:Generated_Source\PSoC5/Display0.c **** ********************************************************************************
ARM GAS  C:\Users\ESTEBAN\AppData\Local\Temp\ccuG9BOe.s 			page 8


 374:Generated_Source\PSoC5/Display0.c **** *
 375:Generated_Source\PSoC5/Display0.c **** * Summary:
 376:Generated_Source\PSoC5/Display0.c **** *  Enables the power to LCD fixed hardware and enables generation of UDB
 377:Generated_Source\PSoC5/Display0.c **** *  signals.
 378:Generated_Source\PSoC5/Display0.c **** *
 379:Generated_Source\PSoC5/Display0.c **** * Parameters:
 380:Generated_Source\PSoC5/Display0.c **** *  None.
 381:Generated_Source\PSoC5/Display0.c **** *
 382:Generated_Source\PSoC5/Display0.c **** * Return:
 383:Generated_Source\PSoC5/Display0.c **** *  Status one of standard status for PSoC3 Component:
 384:Generated_Source\PSoC5/Display0.c **** *      CYRET_SUCCESS - function completed successfully.
 385:Generated_Source\PSoC5/Display0.c **** *      CYRET_LOCKED - the object was locked, already in use. Some of TDs or
 386:Generated_Source\PSoC5/Display0.c **** *                     a channel already in use.
 387:Generated_Source\PSoC5/Display0.c **** *
 388:Generated_Source\PSoC5/Display0.c **** * Reentrant:
 389:Generated_Source\PSoC5/Display0.c **** *  No.
 390:Generated_Source\PSoC5/Display0.c **** *
 391:Generated_Source\PSoC5/Display0.c **** *******************************************************************************/
 392:Generated_Source\PSoC5/Display0.c **** uint8 Display0_Enable(void) 
 393:Generated_Source\PSoC5/Display0.c **** {
 394:Generated_Source\PSoC5/Display0.c ****     uint8 status;
 395:Generated_Source\PSoC5/Display0.c ****     uint8 interruptState;
 396:Generated_Source\PSoC5/Display0.c **** 
 397:Generated_Source\PSoC5/Display0.c ****     interruptState = CyEnterCriticalSection();
 398:Generated_Source\PSoC5/Display0.c **** 
 399:Generated_Source\PSoC5/Display0.c ****     /* Enable the LCD hardware */
 400:Generated_Source\PSoC5/Display0.c ****     Display0_PWR_MGR_REG |= Display0_LCD_EN;
 401:Generated_Source\PSoC5/Display0.c ****     Display0_PWR_MGR_STBY_REG |= Display0_LCD_STBY_EN;
 402:Generated_Source\PSoC5/Display0.c **** 
 403:Generated_Source\PSoC5/Display0.c ****     CyExitCriticalSection(interruptState);
 404:Generated_Source\PSoC5/Display0.c **** 
 405:Generated_Source\PSoC5/Display0.c ****     /* Enable internal clock */
 406:Generated_Source\PSoC5/Display0.c ****     Display0_Int_Clock_Enable();
 407:Generated_Source\PSoC5/Display0.c **** 
 408:Generated_Source\PSoC5/Display0.c ****     status = Display0_DmaConfigure();
 409:Generated_Source\PSoC5/Display0.c **** 
 410:Generated_Source\PSoC5/Display0.c ****     /* Set LCD PWM period */
 411:Generated_Source\PSoC5/Display0.c ****     Display0_PWM_PERIOD_REG = Display0_PWM_PERIOD_VAL;
 412:Generated_Source\PSoC5/Display0.c ****     Display0_PWM_DRIVE_REG = Display0_PWM_DRIVE_VAL;
 413:Generated_Source\PSoC5/Display0.c ****     Display0_PWM_LODRIVE_REG = Display0_PWM_LOWDRIVE_VAL;
 414:Generated_Source\PSoC5/Display0.c **** 
 415:Generated_Source\PSoC5/Display0.c ****     Display0_WriteControlReg((uint8) Display0_CNTL_FRAME_DONE,
 416:Generated_Source\PSoC5/Display0.c ****     (uint8)Display0_CNTL_FRAME_DONE_MASK);
 417:Generated_Source\PSoC5/Display0.c **** 
 418:Generated_Source\PSoC5/Display0.c ****     /* Global UDB enable, will be sent by DMA */
 419:Generated_Source\PSoC5/Display0.c ****     Display0_WriteControlReg((uint8) Display0_CNTL_CLK_EN, (uint8) Display0_CNTL_CLK_EN_MASK);
 420:Generated_Source\PSoC5/Display0.c **** 
 421:Generated_Source\PSoC5/Display0.c ****     /* Global UDB enable, this required to start normal work as
 422:Generated_Source\PSoC5/Display0.c ****     * it enables first DMA request.
 423:Generated_Source\PSoC5/Display0.c ****     */
 424:Generated_Source\PSoC5/Display0.c ****     Display0_CONTROL_REG |= Display0_CNTL_CLK_EN;
 425:Generated_Source\PSoC5/Display0.c **** 
 426:Generated_Source\PSoC5/Display0.c ****     #if(Display0_POWER_MODE != Display0__NO_SLEEP)
 427:Generated_Source\PSoC5/Display0.c **** 
 428:Generated_Source\PSoC5/Display0.c ****         /* Enable generation of lp_ack signal from UBD to PM */
 429:Generated_Source\PSoC5/Display0.c ****         Display0_LCDDAC_CONTROL_REG |= Display0_LCDDAC_UDB_LP_EN;
 430:Generated_Source\PSoC5/Display0.c **** 
ARM GAS  C:\Users\ESTEBAN\AppData\Local\Temp\ccuG9BOe.s 			page 9


 431:Generated_Source\PSoC5/Display0.c ****         /* Start the LCD timer if in one of Low Power modes */
 432:Generated_Source\PSoC5/Display0.c ****         Display0_TIMER_CONTROL_REG |= Display0_TIMER_EN;
 433:Generated_Source\PSoC5/Display0.c **** 
 434:Generated_Source\PSoC5/Display0.c ****     #endif /* Display0_POWER_MODE == Display0__NO_SLEEP */
 435:Generated_Source\PSoC5/Display0.c **** 
 436:Generated_Source\PSoC5/Display0.c ****     return(status);
 437:Generated_Source\PSoC5/Display0.c **** }
 438:Generated_Source\PSoC5/Display0.c **** 
 439:Generated_Source\PSoC5/Display0.c **** 
 440:Generated_Source\PSoC5/Display0.c **** /*******************************************************************************
 441:Generated_Source\PSoC5/Display0.c **** * Function Name: Display0_DmaConfigure
 442:Generated_Source\PSoC5/Display0.c **** ********************************************************************************
 443:Generated_Source\PSoC5/Display0.c **** *
 444:Generated_Source\PSoC5/Display0.c **** * Summary:
 445:Generated_Source\PSoC5/Display0.c **** *  Configures DMA for the components usage, transfering dasplay data and
 446:Generated_Source\PSoC5/Display0.c **** *  generating frame signal. Allocates required number of TDs and configures
 447:Generated_Source\PSoC5/Display0.c **** *  them, enables DMA channels.
 448:Generated_Source\PSoC5/Display0.c **** *
 449:Generated_Source\PSoC5/Display0.c **** * Parameters:
 450:Generated_Source\PSoC5/Display0.c **** *  None.
 451:Generated_Source\PSoC5/Display0.c **** *
 452:Generated_Source\PSoC5/Display0.c **** * Return:
 453:Generated_Source\PSoC5/Display0.c **** *  Status one of standard status for PSoC3 Component
 454:Generated_Source\PSoC5/Display0.c **** *       CYRET_SUCCESS - function completed successfully.
 455:Generated_Source\PSoC5/Display0.c **** *       CYRET_LOCKED - the object was locked, already in use. Some of TDs or
 456:Generated_Source\PSoC5/Display0.c **** *                      a channel already in use.
 457:Generated_Source\PSoC5/Display0.c **** *
 458:Generated_Source\PSoC5/Display0.c **** * Global variables:
 459:Generated_Source\PSoC5/Display0.c **** *  Display0_lcdTd[] - used to store a set of allocated TD IDs that are
 460:Generated_Source\PSoC5/Display0.c **** *  used by this component.
 461:Generated_Source\PSoC5/Display0.c **** *
 462:Generated_Source\PSoC5/Display0.c **** *  Display0_lcdChannel - stores a DMA Channel allocated for an LCD
 463:Generated_Source\PSoC5/Display0.c **** *  usage.
 464:Generated_Source\PSoC5/Display0.c **** *
 465:Generated_Source\PSoC5/Display0.c **** *  Display0_frameTd[] - used to store a set of allocated TD IDs that
 466:Generated_Source\PSoC5/Display0.c **** *  are used by this component for Frame signal generation.
 467:Generated_Source\PSoC5/Display0.c **** *
 468:Generated_Source\PSoC5/Display0.c **** *  Display0_LcdPort_DMA_TD_PROTO_BLOCK[] - used as a parameter for
 469:Generated_Source\PSoC5/Display0.c **** *  DMA configuration.
 470:Generated_Source\PSoC5/Display0.c **** *
 471:Generated_Source\PSoC5/Display0.c **** * Reentrant:
 472:Generated_Source\PSoC5/Display0.c **** *  No.
 473:Generated_Source\PSoC5/Display0.c **** *
 474:Generated_Source\PSoC5/Display0.c **** *******************************************************************************/
 475:Generated_Source\PSoC5/Display0.c **** static uint8 Display0_DmaConfigure(void) CYREENTRANT
 476:Generated_Source\PSoC5/Display0.c **** {
 477:Generated_Source\PSoC5/Display0.c ****     uint8   status = CYRET_SUCCESS;
 478:Generated_Source\PSoC5/Display0.c ****     uint8   i;
 479:Generated_Source\PSoC5/Display0.c ****     uint8   j;
 480:Generated_Source\PSoC5/Display0.c ****     uint32  srcAddr;
 481:Generated_Source\PSoC5/Display0.c ****     uint32  dstAddr;
 482:Generated_Source\PSoC5/Display0.c ****     /* DMA_PROTO_TD_DEF */
 483:Generated_Source\PSoC5/Display0.c ****     static const struct Display0_DMA_TD_PROTO_ENTRY CYCODE Display0_SegLcdPort_DMA_TD_PROTO_BLOCK[1
 484:Generated_Source\PSoC5/Display0.c ****     {
 485:Generated_Source\PSoC5/Display0.c ****         {0u, 2u},
 486:Generated_Source\PSoC5/Display0.c ****     };
 487:Generated_Source\PSoC5/Display0.c **** 
ARM GAS  C:\Users\ESTEBAN\AppData\Local\Temp\ccuG9BOe.s 			page 10


 488:Generated_Source\PSoC5/Display0.c ****     /* Take source and destination address */
 489:Generated_Source\PSoC5/Display0.c ****     /* Conditional compilation is needed to avoid MISRA warning */
 490:Generated_Source\PSoC5/Display0.c ****     #if(CY_PSOC5)
 491:Generated_Source\PSoC5/Display0.c ****         srcAddr = (uint32) Display0_frameTx;
 492:Generated_Source\PSoC5/Display0.c ****         dstAddr = (uint32) Display0_CONTROL_PTR;
 493:Generated_Source\PSoC5/Display0.c ****         
 494:Generated_Source\PSoC5/Display0.c ****         /* Get the DMA channel for the Frame and check it for validness */
 495:Generated_Source\PSoC5/Display0.c ****         Display0_frameChannel = Display0_Frame_Dma_DmaInitialize(0u, 0u, HI16(srcAddr), 
 496:Generated_Source\PSoC5/Display0.c ****                                                                             HI16(Display0_CONTROL_R
 497:Generated_Source\PSoC5/Display0.c ****     #else
 498:Generated_Source\PSoC5/Display0.c ****         srcAddr = Display0_DMA_ADDRESS_MASK & ((uint32) Display0_frameTx);
 499:Generated_Source\PSoC5/Display0.c ****         dstAddr = Display0_DMA_ADDRESS_MASK & ((uint32) Display0_CONTROL_PTR);
 500:Generated_Source\PSoC5/Display0.c ****         
 501:Generated_Source\PSoC5/Display0.c ****         /* Get the DMA channel for the Frame and check it for validness.
 502:Generated_Source\PSoC5/Display0.c ****         * Upper 2 bytes of destination and source addrresses are always 0.
 503:Generated_Source\PSoC5/Display0.c ****         */
 504:Generated_Source\PSoC5/Display0.c ****         Display0_frameChannel = Display0_Frame_Dma_DmaInitialize(0u, 0u, 0u, 0u);
 505:Generated_Source\PSoC5/Display0.c ****     #endif /* CY_PSOC5 */
 506:Generated_Source\PSoC5/Display0.c **** 
 507:Generated_Source\PSoC5/Display0.c ****     if(Display0_frameChannel == DMA_INVALID_CHANNEL)
 508:Generated_Source\PSoC5/Display0.c ****     {
 509:Generated_Source\PSoC5/Display0.c ****         status = CYRET_LOCKED;
 510:Generated_Source\PSoC5/Display0.c ****     }
 511:Generated_Source\PSoC5/Display0.c **** 
 512:Generated_Source\PSoC5/Display0.c ****     /* The DMA configuration for Type A and Type B waveforms differs because of
 513:Generated_Source\PSoC5/Display0.c ****     *  the their specification. Type A waveforms use only two TDs no matter what
 514:Generated_Source\PSoC5/Display0.c ****     *  is the number of commons and Type B waveforms TDs usage is  dependent on
 515:Generated_Source\PSoC5/Display0.c ****     *  the number of commons.
 516:Generated_Source\PSoC5/Display0.c ****     */
 517:Generated_Source\PSoC5/Display0.c ****     #if(Display0_WAVEFORM_TYPE == Display0__TYPE_A)
 518:Generated_Source\PSoC5/Display0.c **** 
 519:Generated_Source\PSoC5/Display0.c ****         for(i = 0u; i < Display0_CONTROL_WRITE_COUNT; i++)
 520:Generated_Source\PSoC5/Display0.c ****         {   /* Allocate a TD and check it if it valid. */
 521:Generated_Source\PSoC5/Display0.c ****             Display0_frameTd[i]= CyDmaTdAllocate();
 522:Generated_Source\PSoC5/Display0.c ****             
 523:Generated_Source\PSoC5/Display0.c ****             if(DMA_INVALID_TD == Display0_frameTd[i])
 524:Generated_Source\PSoC5/Display0.c ****             {
 525:Generated_Source\PSoC5/Display0.c ****                 status = CYRET_LOCKED;
 526:Generated_Source\PSoC5/Display0.c ****             }
 527:Generated_Source\PSoC5/Display0.c ****         }
 528:Generated_Source\PSoC5/Display0.c ****         
 529:Generated_Source\PSoC5/Display0.c ****         /* Set configuration for the first TD */
 530:Generated_Source\PSoC5/Display0.c ****         (void) CyDmaTdSetConfiguration(Display0_frameTd[0u],
 531:Generated_Source\PSoC5/Display0.c ****                                        1u,
 532:Generated_Source\PSoC5/Display0.c ****                                        Display0_frameTd[1u],
 533:Generated_Source\PSoC5/Display0.c ****                                        TD_INC_SRC_ADR | Display0_Frame_Dma__TD_TERMOUT_EN);
 534:Generated_Source\PSoC5/Display0.c **** 
 535:Generated_Source\PSoC5/Display0.c ****         (void) CyDmaTdSetAddress(Display0_frameTd[0u], LO16(srcAddr), LO16(dstAddr));
 536:Generated_Source\PSoC5/Display0.c **** 
 537:Generated_Source\PSoC5/Display0.c ****         /* Set configuration for the second TD */
 538:Generated_Source\PSoC5/Display0.c ****         (void) CyDmaTdSetConfiguration(Display0_frameTd[1u],
 539:Generated_Source\PSoC5/Display0.c ****                                        1u,
 540:Generated_Source\PSoC5/Display0.c ****                                        Display0_frameTd[0u],
 541:Generated_Source\PSoC5/Display0.c ****                                        TD_INC_SRC_ADR | Display0_Frame_Dma__TD_TERMOUT_EN);
 542:Generated_Source\PSoC5/Display0.c **** 
 543:Generated_Source\PSoC5/Display0.c ****         (void) CyDmaTdSetAddress(Display0_frameTd[1u], LO16(srcAddr + 1u), LO16(dstAddr));
 544:Generated_Source\PSoC5/Display0.c **** 
ARM GAS  C:\Users\ESTEBAN\AppData\Local\Temp\ccuG9BOe.s 			page 11


 545:Generated_Source\PSoC5/Display0.c ****     #else /* Waveform Type B */
 546:Generated_Source\PSoC5/Display0.c **** 
 547:Generated_Source\PSoC5/Display0.c ****         for(i = 0u; i < Display0_CONTROL_WRITE_COUNT; i++)
 548:Generated_Source\PSoC5/Display0.c ****         {
 549:Generated_Source\PSoC5/Display0.c ****             Display0_frameTd[i]= CyDmaTdAllocate();
 550:Generated_Source\PSoC5/Display0.c ****             if(DMA_INVALID_TD == Display0_frameTd[i])
 551:Generated_Source\PSoC5/Display0.c ****             {
 552:Generated_Source\PSoC5/Display0.c ****                 status = CYRET_LOCKED;
 553:Generated_Source\PSoC5/Display0.c ****             }
 554:Generated_Source\PSoC5/Display0.c ****         }
 555:Generated_Source\PSoC5/Display0.c **** 
 556:Generated_Source\PSoC5/Display0.c ****         for(i = 0u; i < Display0_CONTROL_WRITE_COUNT; i++)
 557:Generated_Source\PSoC5/Display0.c ****         {
 558:Generated_Source\PSoC5/Display0.c ****             if((Display0_CONTROL_WRITE_COUNT - 1u) != i)
 559:Generated_Source\PSoC5/Display0.c ****             {
 560:Generated_Source\PSoC5/Display0.c ****                 (void) CyDmaTdSetConfiguration(Display0_frameTd[i],
 561:Generated_Source\PSoC5/Display0.c ****                                                1u,
 562:Generated_Source\PSoC5/Display0.c ****                                                Display0_frameTd[i + 1u],
 563:Generated_Source\PSoC5/Display0.c ****                                                TD_INC_SRC_ADR | 
 564:Generated_Source\PSoC5/Display0.c ****                                                Display0_Frame_Dma__TD_TERMOUT_EN);
 565:Generated_Source\PSoC5/Display0.c ****             }
 566:Generated_Source\PSoC5/Display0.c ****             else
 567:Generated_Source\PSoC5/Display0.c ****             {
 568:Generated_Source\PSoC5/Display0.c ****                 (void) CyDmaTdSetConfiguration(Display0_frameTd[i],
 569:Generated_Source\PSoC5/Display0.c ****                                                1u,
 570:Generated_Source\PSoC5/Display0.c ****                                                Display0_frameTd[0u],
 571:Generated_Source\PSoC5/Display0.c ****                                                TD_INC_SRC_ADR | 
 572:Generated_Source\PSoC5/Display0.c ****                                                Display0_Frame_Dma__TD_TERMOUT_EN);
 573:Generated_Source\PSoC5/Display0.c ****             }
 574:Generated_Source\PSoC5/Display0.c ****             (void) CyDmaTdSetAddress(Display0_frameTd[i], LO16(srcAddr) + i , LO16(dstAddr));
 575:Generated_Source\PSoC5/Display0.c ****         }
 576:Generated_Source\PSoC5/Display0.c **** 
 577:Generated_Source\PSoC5/Display0.c ****     #endif /* Display0_WAVEFORM_TYPE == Display0__TYPE_A */
 578:Generated_Source\PSoC5/Display0.c **** 
 579:Generated_Source\PSoC5/Display0.c ****     if(CYRET_LOCKED != status)
 580:Generated_Source\PSoC5/Display0.c ****     {
 581:Generated_Source\PSoC5/Display0.c ****         (void) CyDmaChSetInitialTd(Display0_frameChannel, Display0_frameTd[0u]);
 582:Generated_Source\PSoC5/Display0.c ****         (void) CyDmaChEnable(Display0_frameChannel, 1u);
 583:Generated_Source\PSoC5/Display0.c ****     }
 584:Generated_Source\PSoC5/Display0.c **** 
 585:Generated_Source\PSoC5/Display0.c ****     /* Conditional compilation is needed to avoid MISRA warning */
 586:Generated_Source\PSoC5/Display0.c ****     #if(CY_PSOC5LP)
 587:Generated_Source\PSoC5/Display0.c ****         srcAddr = (uint32) Display0_buffer;
 588:Generated_Source\PSoC5/Display0.c ****         dstAddr = (uint32) Display0_ALIASED_AREA_PTR;
 589:Generated_Source\PSoC5/Display0.c ****         
 590:Generated_Source\PSoC5/Display0.c ****         Display0_lcdChannel = Display0_Lcd_Dma_DmaInitialize(0u, 0u, HI16(srcAddr), 
 591:Generated_Source\PSoC5/Display0.c ****                                                                         HI16(Display0_ALIASED_AREA_
 592:Generated_Source\PSoC5/Display0.c ****     #else
 593:Generated_Source\PSoC5/Display0.c ****         srcAddr = Display0_DMA_ADDRESS_MASK & ((uint32) Display0_buffer);
 594:Generated_Source\PSoC5/Display0.c ****         dstAddr = Display0_DMA_ADDRESS_MASK & ((uint32) Display0_ALIASED_AREA_PTR);
 595:Generated_Source\PSoC5/Display0.c ****         
 596:Generated_Source\PSoC5/Display0.c ****         Display0_lcdChannel = Display0_Lcd_Dma_DmaInitialize(0u, 0u, 0u, 0u);
 597:Generated_Source\PSoC5/Display0.c ****     #endif /* CY_PSOC5 */
 598:Generated_Source\PSoC5/Display0.c **** 
 599:Generated_Source\PSoC5/Display0.c ****     if(Display0_lcdChannel == DMA_INVALID_CHANNEL)
 600:Generated_Source\PSoC5/Display0.c ****     {
 601:Generated_Source\PSoC5/Display0.c ****         status = CYRET_LOCKED;
ARM GAS  C:\Users\ESTEBAN\AppData\Local\Temp\ccuG9BOe.s 			page 12


 602:Generated_Source\PSoC5/Display0.c ****     }
 603:Generated_Source\PSoC5/Display0.c **** 
 604:Generated_Source\PSoC5/Display0.c ****     for(j = 0u; j < Display0_COMM_NUM; j++)
 605:Generated_Source\PSoC5/Display0.c ****     {
 606:Generated_Source\PSoC5/Display0.c ****         #if(1 == Display0_SegLcdPort_DMA_TD_PROTO_COUNT)
 607:Generated_Source\PSoC5/Display0.c ****                 
 608:Generated_Source\PSoC5/Display0.c ****             Display0_lcdTd[j] = CyDmaTdAllocate();
 609:Generated_Source\PSoC5/Display0.c ****             
 610:Generated_Source\PSoC5/Display0.c ****             if(DMA_INVALID_TD == Display0_lcdTd[j])
 611:Generated_Source\PSoC5/Display0.c ****             {
 612:Generated_Source\PSoC5/Display0.c ****                 status = CYRET_LOCKED;
 613:Generated_Source\PSoC5/Display0.c ****             }
 614:Generated_Source\PSoC5/Display0.c **** 
 615:Generated_Source\PSoC5/Display0.c ****         #else
 616:Generated_Source\PSoC5/Display0.c ****         
 617:Generated_Source\PSoC5/Display0.c ****             i = 0u;
 618:Generated_Source\PSoC5/Display0.c ****             
 619:Generated_Source\PSoC5/Display0.c ****             do{
 620:Generated_Source\PSoC5/Display0.c ****                 Display0_lcdTd[(j * Display0_LCD_TD_SIZE) + i] = CyDmaTdAllocate();
 621:Generated_Source\PSoC5/Display0.c ****                 
 622:Generated_Source\PSoC5/Display0.c ****                 if(DMA_INVALID_TD == Display0_lcdTd[(j * Display0_LCD_TD_SIZE) + i])
 623:Generated_Source\PSoC5/Display0.c ****                 {
 624:Generated_Source\PSoC5/Display0.c ****                     status = CYRET_LOCKED;
 625:Generated_Source\PSoC5/Display0.c ****                 }
 626:Generated_Source\PSoC5/Display0.c ****             
 627:Generated_Source\PSoC5/Display0.c ****                 i++;
 628:Generated_Source\PSoC5/Display0.c ****                 
 629:Generated_Source\PSoC5/Display0.c ****             } while(i < Display0_LCD_TD_SIZE);
 630:Generated_Source\PSoC5/Display0.c ****             
 631:Generated_Source\PSoC5/Display0.c ****         #endif /* (1 == Display0_SegLcdPort_DMA_TD_PROTO_COUNT) */
 632:Generated_Source\PSoC5/Display0.c ****     }
 633:Generated_Source\PSoC5/Display0.c **** 
 634:Generated_Source\PSoC5/Display0.c ****     for(j = 0u; j < Display0_COMM_NUM; j++)
 635:Generated_Source\PSoC5/Display0.c ****     {
 636:Generated_Source\PSoC5/Display0.c ****         /* This is to supress MISRA warning. Depending on
 637:Generated_Source\PSoC5/Display0.c ****         * Display0_SegLcdPort_DMA_TD_PROTO_COUNT need to differentiate
 638:Generated_Source\PSoC5/Display0.c ****         * 2 or 3 configurations of LCD DMA transaction descriptors.
 639:Generated_Source\PSoC5/Display0.c ****         */
 640:Generated_Source\PSoC5/Display0.c ****         #if(1 == Display0_SegLcdPort_DMA_TD_PROTO_COUNT)
 641:Generated_Source\PSoC5/Display0.c ****             
 642:Generated_Source\PSoC5/Display0.c ****             if(Display0_COM_TD_COUNT == j)
 643:Generated_Source\PSoC5/Display0.c ****             {
 644:Generated_Source\PSoC5/Display0.c ****                 /* The last TD need to point to TD[0] */
 645:Generated_Source\PSoC5/Display0.c ****                 (void) CyDmaTdSetConfiguration(Display0_lcdTd[j],
 646:Generated_Source\PSoC5/Display0.c ****                                                (uint16)Display0_SegLcdPort_DMA_TD_PROTO_BLOCK[0].le
 647:Generated_Source\PSoC5/Display0.c ****                                                Display0_lcdTd[0u],
 648:Generated_Source\PSoC5/Display0.c ****                                                TD_INC_DST_ADR | TD_INC_SRC_ADR | 
 649:Generated_Source\PSoC5/Display0.c ****                                                Display0_Lcd_Dma__TD_TERMOUT_EN);
 650:Generated_Source\PSoC5/Display0.c ****             }
 651:Generated_Source\PSoC5/Display0.c ****             /* Create a chain of TDs in which current TD ponts to next TD. 
 652:Generated_Source\PSoC5/Display0.c ****             * Each of this TDs should be seperatelly requested.
 653:Generated_Source\PSoC5/Display0.c ****             */
 654:Generated_Source\PSoC5/Display0.c ****             else
 655:Generated_Source\PSoC5/Display0.c ****             {
 656:Generated_Source\PSoC5/Display0.c ****                 (void) CyDmaTdSetConfiguration(Display0_lcdTd[j],
 657:Generated_Source\PSoC5/Display0.c ****                                                (uint16) Display0_SegLcdPort_DMA_TD_PROTO_BLOCK[0].l
 658:Generated_Source\PSoC5/Display0.c ****                                                Display0_lcdTd[j + 1u],
ARM GAS  C:\Users\ESTEBAN\AppData\Local\Temp\ccuG9BOe.s 			page 13


 659:Generated_Source\PSoC5/Display0.c ****                                                TD_INC_DST_ADR | TD_INC_SRC_ADR | 
 660:Generated_Source\PSoC5/Display0.c ****                                                Display0_Lcd_Dma__TD_TERMOUT_EN);
 661:Generated_Source\PSoC5/Display0.c ****             }
 662:Generated_Source\PSoC5/Display0.c ****             
 663:Generated_Source\PSoC5/Display0.c ****             (void) CyDmaTdSetAddress(Display0_lcdTd[j],
 664:Generated_Source\PSoC5/Display0.c ****                                      LO16(srcAddr) + (((uint16) j) * Display0_ROW_LENGTH) +
 665:Generated_Source\PSoC5/Display0.c ****                                      ((uint16) Display0_SegLcdPort_DMA_TD_PROTO_BLOCK[0].offset),
 666:Generated_Source\PSoC5/Display0.c ****                                      LO16(dstAddr) + Display0_SegLcdPort_DMA_TD_PROTO_BLOCK[0].offs
 667:Generated_Source\PSoC5/Display0.c ****         #else
 668:Generated_Source\PSoC5/Display0.c **** 
 669:Generated_Source\PSoC5/Display0.c ****             for(i = 0u; i < Display0_LCD_TD_SIZE; i++)
 670:Generated_Source\PSoC5/Display0.c ****             {
 671:Generated_Source\PSoC5/Display0.c ****                 if(Display0_COM_TD_COUNT == ((j * Display0_LCD_TD_SIZE) + i))
 672:Generated_Source\PSoC5/Display0.c ****                 {
 673:Generated_Source\PSoC5/Display0.c ****                     /* The last TD need to point to TD[0] */
 674:Generated_Source\PSoC5/Display0.c ****                     (void) CyDmaTdSetConfiguration(Display0_lcdTd[(j * Display0_LCD_TD_SIZE) + i],
 675:Generated_Source\PSoC5/Display0.c ****                                                    (uint16)Display0_SegLcdPort_DMA_TD_PROTO_BLOCK[i
 676:Generated_Source\PSoC5/Display0.c ****                                                    Display0_lcdTd[0u],
 677:Generated_Source\PSoC5/Display0.c ****                                                    TD_INC_DST_ADR | TD_INC_SRC_ADR | 
 678:Generated_Source\PSoC5/Display0.c ****                                                    Display0_Lcd_Dma__TD_TERMOUT_EN);
 679:Generated_Source\PSoC5/Display0.c ****                 }
 680:Generated_Source\PSoC5/Display0.c ****                 /* Create a chain of TDs in which current TD ponts to next TD. 
 681:Generated_Source\PSoC5/Display0.c ****                 * Each of this TDs should be seperatelly requested.
 682:Generated_Source\PSoC5/Display0.c ****                 */
 683:Generated_Source\PSoC5/Display0.c ****                 else if(i == (Display0_LCD_TD_SIZE - 1u))
 684:Generated_Source\PSoC5/Display0.c ****                 {
 685:Generated_Source\PSoC5/Display0.c ****                     (void) CyDmaTdSetConfiguration(Display0_lcdTd[(j * Display0_LCD_TD_SIZE) + i],
 686:Generated_Source\PSoC5/Display0.c ****                                                    (uint16) Display0_SegLcdPort_DMA_TD_PROTO_BLOCK[
 687:Generated_Source\PSoC5/Display0.c ****                                                    Display0_lcdTd[(j * Display0_LCD_TD_SIZE) + i + 
 688:Generated_Source\PSoC5/Display0.c ****                                                    TD_INC_DST_ADR | TD_INC_SRC_ADR | 
 689:Generated_Source\PSoC5/Display0.c ****                                                    Display0_Lcd_Dma__TD_TERMOUT_EN);
 690:Generated_Source\PSoC5/Display0.c ****                 }
 691:Generated_Source\PSoC5/Display0.c ****                 /* Create a chain of TDs in which current TD ponts to next TD. 
 692:Generated_Source\PSoC5/Display0.c ****                 * After completion of transferring this TD following should
 693:Generated_Source\PSoC5/Display0.c ****                 * be automatically requested.
 694:Generated_Source\PSoC5/Display0.c ****                 */
 695:Generated_Source\PSoC5/Display0.c ****                 else
 696:Generated_Source\PSoC5/Display0.c ****                 {
 697:Generated_Source\PSoC5/Display0.c ****                     (void) CyDmaTdSetConfiguration(Display0_lcdTd[(j * Display0_LCD_TD_SIZE) + i],
 698:Generated_Source\PSoC5/Display0.c ****                                                    (uint16) Display0_SegLcdPort_DMA_TD_PROTO_BLOCK[
 699:Generated_Source\PSoC5/Display0.c ****                                                    Display0_lcdTd[(j * Display0_LCD_TD_SIZE) + i + 
 700:Generated_Source\PSoC5/Display0.c ****                                                    TD_INC_DST_ADR |  TD_INC_SRC_ADR | 
 701:Generated_Source\PSoC5/Display0.c ****                                                    TD_AUTO_EXEC_NEXT);
 702:Generated_Source\PSoC5/Display0.c ****                 }
 703:Generated_Source\PSoC5/Display0.c ****                 
 704:Generated_Source\PSoC5/Display0.c ****                 (void) CyDmaTdSetAddress(Display0_lcdTd[(j * Display0_LCD_TD_SIZE) + i],
 705:Generated_Source\PSoC5/Display0.c ****                                      LO16(srcAddr) + (((uint16) j) * Display0_ROW_LENGTH) +
 706:Generated_Source\PSoC5/Display0.c ****                                      ((uint16) Display0_SegLcdPort_DMA_TD_PROTO_BLOCK[i].offset),
 707:Generated_Source\PSoC5/Display0.c ****                                       LO16(dstAddr) + Display0_SegLcdPort_DMA_TD_PROTO_BLOCK[i].off
 708:Generated_Source\PSoC5/Display0.c ****             }
 709:Generated_Source\PSoC5/Display0.c ****             
 710:Generated_Source\PSoC5/Display0.c ****         #endif /* (1 == Display0_SegLcdPort_DMA_TD_PROTO_COUNT) */
 711:Generated_Source\PSoC5/Display0.c ****     }
 712:Generated_Source\PSoC5/Display0.c **** 
 713:Generated_Source\PSoC5/Display0.c ****     if(CYRET_LOCKED != status)
 714:Generated_Source\PSoC5/Display0.c ****     {
 715:Generated_Source\PSoC5/Display0.c ****         (void) CyDmaChSetInitialTd(Display0_lcdChannel, Display0_lcdTd[0u]);
ARM GAS  C:\Users\ESTEBAN\AppData\Local\Temp\ccuG9BOe.s 			page 14


 716:Generated_Source\PSoC5/Display0.c ****         (void) CyDmaChEnable(Display0_lcdChannel, 1u);
 717:Generated_Source\PSoC5/Display0.c ****     }
 718:Generated_Source\PSoC5/Display0.c **** 
 719:Generated_Source\PSoC5/Display0.c ****     return(status);
 720:Generated_Source\PSoC5/Display0.c **** }
 721:Generated_Source\PSoC5/Display0.c **** 
 722:Generated_Source\PSoC5/Display0.c **** 
 723:Generated_Source\PSoC5/Display0.c **** /*******************************************************************************
 724:Generated_Source\PSoC5/Display0.c **** * Function Name: Display0_DmaDispose
 725:Generated_Source\PSoC5/Display0.c **** ********************************************************************************
 726:Generated_Source\PSoC5/Display0.c **** *
 727:Generated_Source\PSoC5/Display0.c **** * Summary:
 728:Generated_Source\PSoC5/Display0.c **** *  Releases allocated TDs disables DMA Channels used for component operation.
 729:Generated_Source\PSoC5/Display0.c **** *
 730:Generated_Source\PSoC5/Display0.c **** * Parameters:
 731:Generated_Source\PSoC5/Display0.c **** *  None.
 732:Generated_Source\PSoC5/Display0.c **** *
 733:Generated_Source\PSoC5/Display0.c **** * Return:
 734:Generated_Source\PSoC5/Display0.c **** *  None.
 735:Generated_Source\PSoC5/Display0.c **** *
 736:Generated_Source\PSoC5/Display0.c **** * Global variables:
 737:Generated_Source\PSoC5/Display0.c **** *  Display0_lcdTd[] - used to hold a set of allocated TD IDs that are
 738:Generated_Source\PSoC5/Display0.c **** *  used by this component which will be released by this function.
 739:Generated_Source\PSoC5/Display0.c **** *
 740:Generated_Source\PSoC5/Display0.c **** *  Display0_lcdChannel- holds the channel number used by the LCD
 741:Generated_Source\PSoC5/Display0.c **** *  component that will be released by this function.
 742:Generated_Source\PSoC5/Display0.c **** *
 743:Generated_Source\PSoC5/Display0.c **** *  Display0_frameTd[] - used to hold a set of allocated TD IDs that
 744:Generated_Source\PSoC5/Display0.c **** *  are used by this component for Frame signal generation, which will be
 745:Generated_Source\PSoC5/Display0.c **** *  released by this function.
 746:Generated_Source\PSoC5/Display0.c **** *
 747:Generated_Source\PSoC5/Display0.c **** * Reentrant:
 748:Generated_Source\PSoC5/Display0.c **** *  No.
 749:Generated_Source\PSoC5/Display0.c **** *
 750:Generated_Source\PSoC5/Display0.c **** *******************************************************************************/
 751:Generated_Source\PSoC5/Display0.c **** static void Display0_DmaDispose(void) CYREENTRANT
 752:Generated_Source\PSoC5/Display0.c **** {
 753:Generated_Source\PSoC5/Display0.c ****     uint8 i;
 754:Generated_Source\PSoC5/Display0.c **** 
 755:Generated_Source\PSoC5/Display0.c ****     /* Release LCD DMA handle */
 756:Generated_Source\PSoC5/Display0.c ****     Display0_Lcd_Dma_DmaRelease();
 757:Generated_Source\PSoC5/Display0.c **** 
 758:Generated_Source\PSoC5/Display0.c ****     /* Free the LCD DMA channel */
 759:Generated_Source\PSoC5/Display0.c ****     (void) CyDmaChFree(Display0_lcdChannel);
 760:Generated_Source\PSoC5/Display0.c **** 
 761:Generated_Source\PSoC5/Display0.c ****     /* Release LCD Frame DMA handle */
 762:Generated_Source\PSoC5/Display0.c ****     Display0_Frame_Dma_DmaRelease();
 763:Generated_Source\PSoC5/Display0.c **** 
 764:Generated_Source\PSoC5/Display0.c ****     /* Free the channel used in generation Frame signal */
 765:Generated_Source\PSoC5/Display0.c ****     (void) CyDmaChFree(Display0_frameChannel);
 766:Generated_Source\PSoC5/Display0.c **** 
 767:Generated_Source\PSoC5/Display0.c ****     #if(Display0_WAVEFORM_TYPE == Display0__TYPE_A)
 768:Generated_Source\PSoC5/Display0.c ****         for(i = 0u; i < 2u; i++)
 769:Generated_Source\PSoC5/Display0.c ****         {
 770:Generated_Source\PSoC5/Display0.c ****             CyDmaTdFree(Display0_frameTd[i]);
 771:Generated_Source\PSoC5/Display0.c ****         }
 772:Generated_Source\PSoC5/Display0.c ****     #else
ARM GAS  C:\Users\ESTEBAN\AppData\Local\Temp\ccuG9BOe.s 			page 15


 773:Generated_Source\PSoC5/Display0.c ****         for(i = 0u; i < (Display0_COMM_NUM * 2u); i++)
 774:Generated_Source\PSoC5/Display0.c ****         {
 775:Generated_Source\PSoC5/Display0.c ****             CyDmaTdFree(Display0_frameTd[i]);
 776:Generated_Source\PSoC5/Display0.c ****         }
 777:Generated_Source\PSoC5/Display0.c ****     #endif /* Display0_WAVEFORM_TYPE == Display0__TYPE_A */
 778:Generated_Source\PSoC5/Display0.c **** 
 779:Generated_Source\PSoC5/Display0.c ****     /* Release all allocated TDs */
 780:Generated_Source\PSoC5/Display0.c ****     for(i = 0u; i < (Display0_COMM_NUM * Display0_LCD_TD_SIZE); i++)
 781:Generated_Source\PSoC5/Display0.c ****     {
 782:Generated_Source\PSoC5/Display0.c ****         CyDmaTdFree(Display0_lcdTd[i]);
 783:Generated_Source\PSoC5/Display0.c ****     }
 784:Generated_Source\PSoC5/Display0.c **** }
 785:Generated_Source\PSoC5/Display0.c **** 
 786:Generated_Source\PSoC5/Display0.c **** 
 787:Generated_Source\PSoC5/Display0.c **** /*******************************************************************************
 788:Generated_Source\PSoC5/Display0.c **** * Function Name: Display0_Start
 789:Generated_Source\PSoC5/Display0.c **** ********************************************************************************
 790:Generated_Source\PSoC5/Display0.c **** *
 791:Generated_Source\PSoC5/Display0.c **** * Summary:
 792:Generated_Source\PSoC5/Display0.c **** *  Starts the LCD component, DMA channels, frame buffer and hardware. Does not
 793:Generated_Source\PSoC5/Display0.c **** *  clear the frame buffer SRAM if previously defined.
 794:Generated_Source\PSoC5/Display0.c **** *
 795:Generated_Source\PSoC5/Display0.c **** * Parameters:
 796:Generated_Source\PSoC5/Display0.c **** *  None.
 797:Generated_Source\PSoC5/Display0.c **** *
 798:Generated_Source\PSoC5/Display0.c **** * Return:
 799:Generated_Source\PSoC5/Display0.c **** *  Status one of standard status for PSoC3 Component
 800:Generated_Source\PSoC5/Display0.c **** *      CYRET_SUCCESS - function completed successfully.
 801:Generated_Source\PSoC5/Display0.c **** *      CYRET_LOCKED - the object was locked, already in use. Some of TDs or
 802:Generated_Source\PSoC5/Display0.c **** *                     a channel already in use.
 803:Generated_Source\PSoC5/Display0.c **** *
 804:Generated_Source\PSoC5/Display0.c **** * Global variables:
 805:Generated_Source\PSoC5/Display0.c **** *  Display0_initVar - is used to indicate initial configuration of
 806:Generated_Source\PSoC5/Display0.c **** *  this component. The variable is initialized to zero and set to 1 the
 807:Generated_Source\PSoC5/Display0.c **** *  first time Display0_Start() is called. This allows for component
 808:Generated_Source\PSoC5/Display0.c **** *  initialization without re-initialization in all subsequent calls to the
 809:Generated_Source\PSoC5/Display0.c **** *  Display0_Start() routine.
 810:Generated_Source\PSoC5/Display0.c **** *
 811:Generated_Source\PSoC5/Display0.c **** * Reentrant:
 812:Generated_Source\PSoC5/Display0.c **** *  No.
 813:Generated_Source\PSoC5/Display0.c **** *
 814:Generated_Source\PSoC5/Display0.c **** *******************************************************************************/
 815:Generated_Source\PSoC5/Display0.c **** uint8 Display0_Start(void) 
 816:Generated_Source\PSoC5/Display0.c **** {
 817:Generated_Source\PSoC5/Display0.c ****     uint8 status;
 818:Generated_Source\PSoC5/Display0.c **** 
 819:Generated_Source\PSoC5/Display0.c ****     /* If not Initialized then initialize all required hardware and software */
 820:Generated_Source\PSoC5/Display0.c ****     if(Display0_initVar == 0u)
 821:Generated_Source\PSoC5/Display0.c ****     {
 822:Generated_Source\PSoC5/Display0.c ****         Display0_initVar = 1u;
 823:Generated_Source\PSoC5/Display0.c ****         Display0_Init();
 824:Generated_Source\PSoC5/Display0.c ****     }
 825:Generated_Source\PSoC5/Display0.c **** 
 826:Generated_Source\PSoC5/Display0.c ****     status = Display0_Enable();
 827:Generated_Source\PSoC5/Display0.c **** 
 828:Generated_Source\PSoC5/Display0.c ****     return(status);
 829:Generated_Source\PSoC5/Display0.c **** }
ARM GAS  C:\Users\ESTEBAN\AppData\Local\Temp\ccuG9BOe.s 			page 16


 830:Generated_Source\PSoC5/Display0.c **** 
 831:Generated_Source\PSoC5/Display0.c **** 
 832:Generated_Source\PSoC5/Display0.c **** /*******************************************************************************
 833:Generated_Source\PSoC5/Display0.c **** * Function Name: Display0_Stop
 834:Generated_Source\PSoC5/Display0.c **** ********************************************************************************
 835:Generated_Source\PSoC5/Display0.c **** *
 836:Generated_Source\PSoC5/Display0.c **** * Summary:
 837:Generated_Source\PSoC5/Display0.c **** *  Disables the LCD component and DMA channels. Automatically blanks the display
 838:Generated_Source\PSoC5/Display0.c **** *  to avoid damage from DC offsets. Does not clear the frame buffer. Also it
 839:Generated_Source\PSoC5/Display0.c **** *  turns off the power for the entire LCD system.
 840:Generated_Source\PSoC5/Display0.c **** *
 841:Generated_Source\PSoC5/Display0.c **** * Parameters:
 842:Generated_Source\PSoC5/Display0.c **** *  None.
 843:Generated_Source\PSoC5/Display0.c **** *
 844:Generated_Source\PSoC5/Display0.c **** * Return:
 845:Generated_Source\PSoC5/Display0.c **** *  None.
 846:Generated_Source\PSoC5/Display0.c **** *
 847:Generated_Source\PSoC5/Display0.c **** *******************************************************************************/
 848:Generated_Source\PSoC5/Display0.c **** void Display0_Stop(void) 
 849:Generated_Source\PSoC5/Display0.c **** {
 850:Generated_Source\PSoC5/Display0.c ****     uint8   interruptState;
 851:Generated_Source\PSoC5/Display0.c **** 
 852:Generated_Source\PSoC5/Display0.c ****     /* Global UDB disable */
 853:Generated_Source\PSoC5/Display0.c ****     Display0_WriteControlReg(0u, (uint8) Display0_CNTL_CLK_EN_MASK);
 854:Generated_Source\PSoC5/Display0.c **** 
 855:Generated_Source\PSoC5/Display0.c ****     #if(Display0_POWER_MODE != Display0__NO_SLEEP)
 856:Generated_Source\PSoC5/Display0.c **** 
 857:Generated_Source\PSoC5/Display0.c ****         /* Disable generation of lp_ack signal from UBD to PM */
 858:Generated_Source\PSoC5/Display0.c ****         Display0_LCDDAC_CONTROL_REG &= ((uint8) ~Display0_LCDDAC_UDB_LP_EN);
 859:Generated_Source\PSoC5/Display0.c **** 
 860:Generated_Source\PSoC5/Display0.c ****         /* Disable LCD timer */
 861:Generated_Source\PSoC5/Display0.c ****         Display0_TIMER_CONTROL_REG &= ((uint8) ~Display0_TIMER_EN);
 862:Generated_Source\PSoC5/Display0.c **** 
 863:Generated_Source\PSoC5/Display0.c ****     #endif /* Display0_POWER_MODE != Display0__NO_SLEEP */
 864:Generated_Source\PSoC5/Display0.c **** 
 865:Generated_Source\PSoC5/Display0.c ****     /* Clear Continous Drive */
 866:Generated_Source\PSoC5/Display0.c ****     Display0_LCDDAC_CONTROL_REG &= ((uint8) ~Display0_LCDDAC_CONT_DRIVE);
 867:Generated_Source\PSoC5/Display0.c ****     /* Clear Continous Display Blink bit */
 868:Generated_Source\PSoC5/Display0.c ****     Display0_LCDDAC_CONTROL_REG &= ((uint8) ~Display0_LCDDRV_DISPLAY_BLNK);
 869:Generated_Source\PSoC5/Display0.c ****     /* Clear Continous Bypass Enable bit */
 870:Generated_Source\PSoC5/Display0.c ****     Display0_LCDDAC_CONTROL_REG &= ((uint8) ~Display0_LCDDRV_BYPASS_EN);
 871:Generated_Source\PSoC5/Display0.c **** 
 872:Generated_Source\PSoC5/Display0.c ****     interruptState = CyEnterCriticalSection();
 873:Generated_Source\PSoC5/Display0.c **** 
 874:Generated_Source\PSoC5/Display0.c ****     /* Disable LCD fixed function HW in PM */
 875:Generated_Source\PSoC5/Display0.c ****     Display0_PWR_MGR_REG &= ((uint8) ~Display0_LCD_EN);
 876:Generated_Source\PSoC5/Display0.c ****     Display0_PWR_MGR_STBY_REG &= ((uint8) ~Display0_LCD_STBY_EN);
 877:Generated_Source\PSoC5/Display0.c **** 
 878:Generated_Source\PSoC5/Display0.c ****     CyExitCriticalSection(interruptState);
 879:Generated_Source\PSoC5/Display0.c **** 
 880:Generated_Source\PSoC5/Display0.c ****     /* Release DMA channels and TDs */
 881:Generated_Source\PSoC5/Display0.c ****     Display0_DmaDispose();
 882:Generated_Source\PSoC5/Display0.c **** 
 883:Generated_Source\PSoC5/Display0.c ****     /* Set off component enable signal and stop all clocks */
 884:Generated_Source\PSoC5/Display0.c ****     Display0_Int_Clock_Disable();
 885:Generated_Source\PSoC5/Display0.c **** }
 886:Generated_Source\PSoC5/Display0.c **** 
ARM GAS  C:\Users\ESTEBAN\AppData\Local\Temp\ccuG9BOe.s 			page 17


 887:Generated_Source\PSoC5/Display0.c **** 
 888:Generated_Source\PSoC5/Display0.c **** /*******************************************************************************
 889:Generated_Source\PSoC5/Display0.c **** * Function Name: Display0_EnableInt
 890:Generated_Source\PSoC5/Display0.c **** ********************************************************************************
 891:Generated_Source\PSoC5/Display0.c **** *
 892:Generated_Source\PSoC5/Display0.c **** * Summary:
 893:Generated_Source\PSoC5/Display0.c **** *  Enables the LCD "every subframe" and LCD wakeup interrupts.
 894:Generated_Source\PSoC5/Display0.c **** *
 895:Generated_Source\PSoC5/Display0.c **** * Parameters:
 896:Generated_Source\PSoC5/Display0.c **** *  None.
 897:Generated_Source\PSoC5/Display0.c **** *
 898:Generated_Source\PSoC5/Display0.c **** * Return:
 899:Generated_Source\PSoC5/Display0.c **** *  None.
 900:Generated_Source\PSoC5/Display0.c **** *
 901:Generated_Source\PSoC5/Display0.c **** * Theory:
 902:Generated_Source\PSoC5/Display0.c **** *  When you using PSoC5 LP it is required to have an interrupt with an ISR 
 903:Generated_Source\PSoC5/Display0.c **** *  (even if it is empty) to wakeup CPU from sleep. It is specific of PSoC5 LP
 904:Generated_Source\PSoC5/Display0.c **** *  CPU that uses "wait for interrupt" command when it enters into a sleep and
 905:Generated_Source\PSoC5/Display0.c **** *  it won't wakeup if there won't be an actual interrupt. This API shoul always 
 906:Generated_Source\PSoC5/Display0.c **** *  be called when component's operation in sleep is desired. 
 907:Generated_Source\PSoC5/Display0.c **** *
 908:Generated_Source\PSoC5/Display0.c **** *******************************************************************************/
 909:Generated_Source\PSoC5/Display0.c **** void Display0_EnableInt(void) 
 910:Generated_Source\PSoC5/Display0.c **** {
 911:Generated_Source\PSoC5/Display0.c ****     /* Enable every sub-frame interrupt */
 912:Generated_Source\PSoC5/Display0.c ****     CyIntEnable(Display0_ISR_NUMBER);
 913:Generated_Source\PSoC5/Display0.c ****     
 914:Generated_Source\PSoC5/Display0.c ****     #if(CY_PSOC5LP)
 915:Generated_Source\PSoC5/Display0.c ****     
 916:Generated_Source\PSoC5/Display0.c ****         /* Enable Wakeup ISR interrupt */
 917:Generated_Source\PSoC5/Display0.c ****         CyIntEnable(Display0_WAKEUP_ISR_NUMBER);
 918:Generated_Source\PSoC5/Display0.c ****     
 919:Generated_Source\PSoC5/Display0.c ****     #endif /* CY_PSOC5LP */
 920:Generated_Source\PSoC5/Display0.c **** }
 921:Generated_Source\PSoC5/Display0.c **** 
 922:Generated_Source\PSoC5/Display0.c **** 
 923:Generated_Source\PSoC5/Display0.c **** /*******************************************************************************
 924:Generated_Source\PSoC5/Display0.c **** * Function Name: Display0_DisableInt
 925:Generated_Source\PSoC5/Display0.c **** ********************************************************************************
 926:Generated_Source\PSoC5/Display0.c **** *
 927:Generated_Source\PSoC5/Display0.c **** * Summary:
 928:Generated_Source\PSoC5/Display0.c **** *  Disables the LCD "every subframe" and LCD wakeup interrupt.
 929:Generated_Source\PSoC5/Display0.c **** *
 930:Generated_Source\PSoC5/Display0.c **** * Parameters:
 931:Generated_Source\PSoC5/Display0.c **** *  None.
 932:Generated_Source\PSoC5/Display0.c **** *
 933:Generated_Source\PSoC5/Display0.c **** * Return:
 934:Generated_Source\PSoC5/Display0.c **** *  None.
 935:Generated_Source\PSoC5/Display0.c **** *
 936:Generated_Source\PSoC5/Display0.c **** *******************************************************************************/
 937:Generated_Source\PSoC5/Display0.c **** void Display0_DisableInt(void) 
 938:Generated_Source\PSoC5/Display0.c **** {
 939:Generated_Source\PSoC5/Display0.c ****     /* Disable every sub-frame interrupt */
 940:Generated_Source\PSoC5/Display0.c ****     CyIntDisable(Display0_ISR_NUMBER);
 941:Generated_Source\PSoC5/Display0.c ****     
 942:Generated_Source\PSoC5/Display0.c ****     #if(CY_PSOC5LP)
 943:Generated_Source\PSoC5/Display0.c ****     
ARM GAS  C:\Users\ESTEBAN\AppData\Local\Temp\ccuG9BOe.s 			page 18


 944:Generated_Source\PSoC5/Display0.c ****         /* Disable Wakeup ISR interrupt */
 945:Generated_Source\PSoC5/Display0.c ****         CyIntDisable(Display0_WAKEUP_ISR_NUMBER);
 946:Generated_Source\PSoC5/Display0.c ****     
 947:Generated_Source\PSoC5/Display0.c ****     #endif /* CY_PSOC5LP */
 948:Generated_Source\PSoC5/Display0.c **** }
 949:Generated_Source\PSoC5/Display0.c **** 
 950:Generated_Source\PSoC5/Display0.c **** 
 951:Generated_Source\PSoC5/Display0.c **** /*******************************************************************************
 952:Generated_Source\PSoC5/Display0.c **** * Function Name: Display0_SetBias
 953:Generated_Source\PSoC5/Display0.c **** ********************************************************************************
 954:Generated_Source\PSoC5/Display0.c **** *
 955:Generated_Source\PSoC5/Display0.c **** * Summary:
 956:Generated_Source\PSoC5/Display0.c **** *  This function sets the bias level for the LCD glass to one of up to 64
 957:Generated_Source\PSoC5/Display0.c **** *  values. The actual number of values is limited by the Analog supply voltage
 958:Generated_Source\PSoC5/Display0.c **** *  Vdda as the bias voltage can not exceed Vdda. Changing the bias level affects
 959:Generated_Source\PSoC5/Display0.c **** *  the LCD contrast.
 960:Generated_Source\PSoC5/Display0.c **** *
 961:Generated_Source\PSoC5/Display0.c **** * Parameters:
 962:Generated_Source\PSoC5/Display0.c **** *  biasLevel : bias level for the diplay.
 963:Generated_Source\PSoC5/Display0.c **** *
 964:Generated_Source\PSoC5/Display0.c **** * Return:
 965:Generated_Source\PSoC5/Display0.c **** *  Status one of standard status for PSoC3 Component:
 966:Generated_Source\PSoC5/Display0.c **** *      CYRET_SUCCESS - function completed successfully.
 967:Generated_Source\PSoC5/Display0.c **** *      CYRET_BAD_PARAM - evaluation of biasLevel parameter is failed.
 968:Generated_Source\PSoC5/Display0.c **** *
 969:Generated_Source\PSoC5/Display0.c **** *******************************************************************************/
 970:Generated_Source\PSoC5/Display0.c **** uint8 Display0_SetBias(uint8 biasLevel) 
 971:Generated_Source\PSoC5/Display0.c **** {
 972:Generated_Source\PSoC5/Display0.c ****     uint8 status;
 973:Generated_Source\PSoC5/Display0.c **** 
 974:Generated_Source\PSoC5/Display0.c ****     if(biasLevel < 64u)
 975:Generated_Source\PSoC5/Display0.c ****     {
 976:Generated_Source\PSoC5/Display0.c ****         Display0_CONTRAST_CONTROL_REG = biasLevel;
 977:Generated_Source\PSoC5/Display0.c ****         status = CYRET_SUCCESS;
 978:Generated_Source\PSoC5/Display0.c ****     }
 979:Generated_Source\PSoC5/Display0.c ****     else
 980:Generated_Source\PSoC5/Display0.c ****     {
 981:Generated_Source\PSoC5/Display0.c ****         status = CYRET_BAD_PARAM;
 982:Generated_Source\PSoC5/Display0.c ****     }
 983:Generated_Source\PSoC5/Display0.c **** 
 984:Generated_Source\PSoC5/Display0.c ****     return(status);
 985:Generated_Source\PSoC5/Display0.c **** }
 986:Generated_Source\PSoC5/Display0.c **** 
 987:Generated_Source\PSoC5/Display0.c **** 
 988:Generated_Source\PSoC5/Display0.c **** /*******************************************************************************
 989:Generated_Source\PSoC5/Display0.c **** * Function Name: Display0_WriteInvertState
 990:Generated_Source\PSoC5/Display0.c **** ********************************************************************************
 991:Generated_Source\PSoC5/Display0.c **** *
 992:Generated_Source\PSoC5/Display0.c **** * Summary:
 993:Generated_Source\PSoC5/Display0.c **** *  This function inverts the display based on invertState.
 994:Generated_Source\PSoC5/Display0.c **** *
 995:Generated_Source\PSoC5/Display0.c **** * Parameters:
 996:Generated_Source\PSoC5/Display0.c **** *  invertState: the values can be - 0 (#Display0_NORMAL_STATE) for
 997:Generated_Source\PSoC5/Display0.c **** *               normal noninverted display and 1
 998:Generated_Source\PSoC5/Display0.c **** *                (#Display0_INVERTED_STATE) for inverted display.
 999:Generated_Source\PSoC5/Display0.c **** *
1000:Generated_Source\PSoC5/Display0.c **** * Return:
ARM GAS  C:\Users\ESTEBAN\AppData\Local\Temp\ccuG9BOe.s 			page 19


1001:Generated_Source\PSoC5/Display0.c **** *  Status one of standard status for PSoC3 Component:
1002:Generated_Source\PSoC5/Display0.c **** *      CYRET_SUCCESS - function completed successfully.
1003:Generated_Source\PSoC5/Display0.c **** *      CYRET_BAD_PARAM - evaluation of invertState parameter is failed.
1004:Generated_Source\PSoC5/Display0.c **** *
1005:Generated_Source\PSoC5/Display0.c **** * Theory:
1006:Generated_Source\PSoC5/Display0.c **** *  This function enables hardware invertor which inverts the data on the
1007:Generated_Source\PSoC5/Display0.c **** *  outputs of port data registers. As the inversion occurs on all outputs no
1008:Generated_Source\PSoC5/Display0.c **** *  mater is this a common or segment pin the frame buffer data for commons
1009:Generated_Source\PSoC5/Display0.c **** *  requires to be changed to prevent DC ofsset in the LCD. So depending on the
1010:Generated_Source\PSoC5/Display0.c **** *  function argument commons are initialized in the proper way.
1011:Generated_Source\PSoC5/Display0.c **** *
1012:Generated_Source\PSoC5/Display0.c **** *******************************************************************************/
1013:Generated_Source\PSoC5/Display0.c **** uint8 Display0_WriteInvertState(uint8 invertState) 
1014:Generated_Source\PSoC5/Display0.c **** {
1015:Generated_Source\PSoC5/Display0.c ****     uint8 status;
1016:Generated_Source\PSoC5/Display0.c ****     uint8 pixelState;
1017:Generated_Source\PSoC5/Display0.c ****     uint16 pixelNumber;
1018:Generated_Source\PSoC5/Display0.c ****     uint16 j;
1019:Generated_Source\PSoC5/Display0.c ****     uint8 i;
1020:Generated_Source\PSoC5/Display0.c **** 
1021:Generated_Source\PSoC5/Display0.c ****     /* If parameter is valid then procced with driver control register write
1022:Generated_Source\PSoC5/Display0.c ****     * operation, we don't want to affect other bits then invert bit.
1023:Generated_Source\PSoC5/Display0.c ****     */
1024:Generated_Source\PSoC5/Display0.c ****     if(invertState <= Display0_INVERTED_STATE)
1025:Generated_Source\PSoC5/Display0.c ****     {
1026:Generated_Source\PSoC5/Display0.c ****         if(invertState == Display0_NORMAL_STATE)
1027:Generated_Source\PSoC5/Display0.c ****         {
1028:Generated_Source\PSoC5/Display0.c ****             pixelState = Display0_PIXEL_STATE_OFF;
1029:Generated_Source\PSoC5/Display0.c ****         }
1030:Generated_Source\PSoC5/Display0.c ****         else
1031:Generated_Source\PSoC5/Display0.c ****         {
1032:Generated_Source\PSoC5/Display0.c ****             pixelState = Display0_PIXEL_STATE_ON;
1033:Generated_Source\PSoC5/Display0.c ****         }
1034:Generated_Source\PSoC5/Display0.c **** 
1035:Generated_Source\PSoC5/Display0.c ****         #if defined(Display0_GANG)
1036:Generated_Source\PSoC5/Display0.c **** 
1037:Generated_Source\PSoC5/Display0.c ****             for(i = 0u; i < Display0_COMM_NUM; i++)
1038:Generated_Source\PSoC5/Display0.c ****             {
1039:Generated_Source\PSoC5/Display0.c ****                 pixelNumber = Display0_gCommons[i];
1040:Generated_Source\PSoC5/Display0.c **** 
1041:Generated_Source\PSoC5/Display0.c ****                 for(j = 0u; j < Display0_COMM_NUM; j++)
1042:Generated_Source\PSoC5/Display0.c ****                 {
1043:Generated_Source\PSoC5/Display0.c ****                     pixelNumber = (pixelNumber & ((uint16) ~Display0_ROW_MASK)) | 
1044:Generated_Source\PSoC5/Display0.c ****                                   (((uint16) j) << Display0_ROW_SHIFT);
1045:Generated_Source\PSoC5/Display0.c ****                     
1046:Generated_Source\PSoC5/Display0.c ****                     Display0_WRITE_PIXEL(pixelNumber, pixelState);
1047:Generated_Source\PSoC5/Display0.c ****                 }
1048:Generated_Source\PSoC5/Display0.c ****             }
1049:Generated_Source\PSoC5/Display0.c **** 
1050:Generated_Source\PSoC5/Display0.c ****             for(i = 0u; i < Display0_COMM_NUM; i++)
1051:Generated_Source\PSoC5/Display0.c ****             {
1052:Generated_Source\PSoC5/Display0.c ****                 Display0_WRITE_PIXEL(Display0_gCommons[i],
1053:Generated_Source\PSoC5/Display0.c ****                                             (((uint8) ~pixelState) & ((uint8)Display0_STATE_MASK)))
1054:Generated_Source\PSoC5/Display0.c ****             }
1055:Generated_Source\PSoC5/Display0.c **** 
1056:Generated_Source\PSoC5/Display0.c ****         #endif /* Display0_GANG */
1057:Generated_Source\PSoC5/Display0.c **** 
ARM GAS  C:\Users\ESTEBAN\AppData\Local\Temp\ccuG9BOe.s 			page 20


1058:Generated_Source\PSoC5/Display0.c ****         for(i = 0u; i < Display0_COMM_NUM; i++)
1059:Generated_Source\PSoC5/Display0.c ****         {
1060:Generated_Source\PSoC5/Display0.c ****             pixelNumber = Display0_commons[i];
1061:Generated_Source\PSoC5/Display0.c **** 
1062:Generated_Source\PSoC5/Display0.c ****             for(j = 0u; j < Display0_COMM_NUM; j++)
1063:Generated_Source\PSoC5/Display0.c ****             {
1064:Generated_Source\PSoC5/Display0.c ****                 pixelNumber =  (pixelNumber & ((uint16)~Display0_ROW_MASK)) | 
1065:Generated_Source\PSoC5/Display0.c ****                                (((uint16) j) << Display0_ROW_SHIFT);
1066:Generated_Source\PSoC5/Display0.c ****                 
1067:Generated_Source\PSoC5/Display0.c ****                 Display0_WRITE_PIXEL(pixelNumber, pixelState);
1068:Generated_Source\PSoC5/Display0.c ****             }
1069:Generated_Source\PSoC5/Display0.c ****         }
1070:Generated_Source\PSoC5/Display0.c **** 
1071:Generated_Source\PSoC5/Display0.c ****         /* Reinitialize the commons */
1072:Generated_Source\PSoC5/Display0.c ****         for(i = 0u; i < Display0_COMM_NUM; i++)
1073:Generated_Source\PSoC5/Display0.c ****         {
1074:Generated_Source\PSoC5/Display0.c ****             Display0_WRITE_PIXEL(Display0_commons[i],
1075:Generated_Source\PSoC5/Display0.c ****                                         (((uint8)~pixelState) & ((uint8)Display0_STATE_MASK)));
1076:Generated_Source\PSoC5/Display0.c ****         }
1077:Generated_Source\PSoC5/Display0.c **** 
1078:Generated_Source\PSoC5/Display0.c ****         Display0_DRIVER_CONTROL_REG = (Display0_DRIVER_CONTROL_REG & 
1079:Generated_Source\PSoC5/Display0.c ****                                               ((uint8)Display0_STATE_MASK)) | 
1080:Generated_Source\PSoC5/Display0.c ****                                               ((uint8)(invertState << Display0_INVERT_SHIFT));
1081:Generated_Source\PSoC5/Display0.c **** 
1082:Generated_Source\PSoC5/Display0.c ****         status = CYRET_SUCCESS;
1083:Generated_Source\PSoC5/Display0.c ****     }
1084:Generated_Source\PSoC5/Display0.c ****     else
1085:Generated_Source\PSoC5/Display0.c ****     {
1086:Generated_Source\PSoC5/Display0.c ****         status = CYRET_BAD_PARAM;
1087:Generated_Source\PSoC5/Display0.c ****     }
1088:Generated_Source\PSoC5/Display0.c **** 
1089:Generated_Source\PSoC5/Display0.c ****     return(status);
1090:Generated_Source\PSoC5/Display0.c **** }
1091:Generated_Source\PSoC5/Display0.c **** 
1092:Generated_Source\PSoC5/Display0.c **** 
1093:Generated_Source\PSoC5/Display0.c **** /*******************************************************************************
1094:Generated_Source\PSoC5/Display0.c **** * Function Name: Display0_ReadInvertState
1095:Generated_Source\PSoC5/Display0.c **** ********************************************************************************
1096:Generated_Source\PSoC5/Display0.c **** *
1097:Generated_Source\PSoC5/Display0.c **** * Summary:
1098:Generated_Source\PSoC5/Display0.c **** *  This function returns the current normal or inverted state of the display.
1099:Generated_Source\PSoC5/Display0.c **** *
1100:Generated_Source\PSoC5/Display0.c **** * Parameters:
1101:Generated_Source\PSoC5/Display0.c **** *  None.
1102:Generated_Source\PSoC5/Display0.c **** *
1103:Generated_Source\PSoC5/Display0.c **** * Return:
1104:Generated_Source\PSoC5/Display0.c **** *  State of the LCD - 0(#Display0_NORMAL_STATE) for normal non-inverted
1105:Generated_Source\PSoC5/Display0.c **** *  display and 1(#Display0_INVERTED_STATE) for inverted display.
1106:Generated_Source\PSoC5/Display0.c **** *
1107:Generated_Source\PSoC5/Display0.c **** *******************************************************************************/
1108:Generated_Source\PSoC5/Display0.c **** uint8 Display0_ReadInvertState(void) 
1109:Generated_Source\PSoC5/Display0.c **** {
1110:Generated_Source\PSoC5/Display0.c ****     /* Get only invert bit of Driver Control Register */
1111:Generated_Source\PSoC5/Display0.c ****     return((Display0_DRIVER_CONTROL_REG & Display0_INVERT_BIT_MASK) >> Display0_INVERT_SHIFT);
1112:Generated_Source\PSoC5/Display0.c **** }
1113:Generated_Source\PSoC5/Display0.c **** 
1114:Generated_Source\PSoC5/Display0.c **** 
ARM GAS  C:\Users\ESTEBAN\AppData\Local\Temp\ccuG9BOe.s 			page 21


1115:Generated_Source\PSoC5/Display0.c **** /*******************************************************************************
1116:Generated_Source\PSoC5/Display0.c **** * Function Name: Display0_ClearDisplay
1117:Generated_Source\PSoC5/Display0.c **** ********************************************************************************
1118:Generated_Source\PSoC5/Display0.c **** *
1119:Generated_Source\PSoC5/Display0.c **** * Summary:
1120:Generated_Source\PSoC5/Display0.c **** *  This function clears the display RAM of the frame buffer.
1121:Generated_Source\PSoC5/Display0.c **** *
1122:Generated_Source\PSoC5/Display0.c **** * Parameters:
1123:Generated_Source\PSoC5/Display0.c **** *  None.
1124:Generated_Source\PSoC5/Display0.c **** *
1125:Generated_Source\PSoC5/Display0.c **** * Return:
1126:Generated_Source\PSoC5/Display0.c **** *  None.
1127:Generated_Source\PSoC5/Display0.c **** *
1128:Generated_Source\PSoC5/Display0.c **** * Global variables:
1129:Generated_Source\PSoC5/Display0.c **** *  Display0_buffer[] - an array is modified by this API. Clears the
1130:Generated_Source\PSoC5/Display0.c **** *  frame buffer to all zeroes and then reinitialize it with a 1 in the
1131:Generated_Source\PSoC5/Display0.c **** *  locations specified by the values from Display0_commons[].
1132:Generated_Source\PSoC5/Display0.c **** *
1133:Generated_Source\PSoC5/Display0.c **** *  Display0_commons[] - holds the pixel locations for common lines.
1134:Generated_Source\PSoC5/Display0.c **** *
1135:Generated_Source\PSoC5/Display0.c **** * Reentrant:
1136:Generated_Source\PSoC5/Display0.c **** *  No.
1137:Generated_Source\PSoC5/Display0.c **** *
1138:Generated_Source\PSoC5/Display0.c **** *******************************************************************************/
1139:Generated_Source\PSoC5/Display0.c **** void Display0_ClearDisplay(void) 
1140:Generated_Source\PSoC5/Display0.c **** {
1141:Generated_Source\PSoC5/Display0.c ****     uint16 i;
1142:Generated_Source\PSoC5/Display0.c ****     uint8 dispState;
1143:Generated_Source\PSoC5/Display0.c **** 
1144:Generated_Source\PSoC5/Display0.c ****     /* Clear entire frame buffer to all zeroes */
1145:Generated_Source\PSoC5/Display0.c ****     for(i = 0u; i < Display0_BUFFER_LENGTH; i++)
1146:Generated_Source\PSoC5/Display0.c ****     {
1147:Generated_Source\PSoC5/Display0.c ****         Display0_buffer[i] = 0u;
1148:Generated_Source\PSoC5/Display0.c ****     }
1149:Generated_Source\PSoC5/Display0.c **** 
1150:Generated_Source\PSoC5/Display0.c ****     /* Reinitialize the commons */
1151:Generated_Source\PSoC5/Display0.c ****     for(i = 0u; i < Display0_COMM_NUM; i++)
1152:Generated_Source\PSoC5/Display0.c ****     {
1153:Generated_Source\PSoC5/Display0.c ****         #ifdef Display0_GANG
1154:Generated_Source\PSoC5/Display0.c ****             Display0_WRITE_PIXEL(Display0_gCommons[i], Display0_PIXEL_STATE_ON);
1155:Generated_Source\PSoC5/Display0.c ****         #endif /* Display0_GANG */
1156:Generated_Source\PSoC5/Display0.c **** 
1157:Generated_Source\PSoC5/Display0.c ****         Display0_WRITE_PIXEL(Display0_commons[i], Display0_PIXEL_STATE_ON);
1158:Generated_Source\PSoC5/Display0.c ****     }
1159:Generated_Source\PSoC5/Display0.c **** 
1160:Generated_Source\PSoC5/Display0.c ****     /* Read invert state. */
1161:Generated_Source\PSoC5/Display0.c ****     dispState = (uint8)(((uint8)(Display0_DRIVER_CONTROL_REG &((uint8) ~Display0_STATE_MASK))) >> 
1162:Generated_Source\PSoC5/Display0.c ****                 Display0_INVERT_SHIFT);
1163:Generated_Source\PSoC5/Display0.c **** 
1164:Generated_Source\PSoC5/Display0.c ****     /* If we were in inverted state before the display was cleared, then we must
1165:Generated_Source\PSoC5/Display0.c ****     * call WriteInvertState() as there is no separate API to clear inverted
1166:Generated_Source\PSoC5/Display0.c ****     * display.
1167:Generated_Source\PSoC5/Display0.c ****     */
1168:Generated_Source\PSoC5/Display0.c ****     if(dispState == Display0_INVERTED_STATE)
1169:Generated_Source\PSoC5/Display0.c ****     {
1170:Generated_Source\PSoC5/Display0.c ****         (void) Display0_WriteInvertState(dispState);
1171:Generated_Source\PSoC5/Display0.c ****     }
ARM GAS  C:\Users\ESTEBAN\AppData\Local\Temp\ccuG9BOe.s 			page 22


1172:Generated_Source\PSoC5/Display0.c **** }
1173:Generated_Source\PSoC5/Display0.c **** 
1174:Generated_Source\PSoC5/Display0.c **** 
1175:Generated_Source\PSoC5/Display0.c **** /*******************************************************************************
1176:Generated_Source\PSoC5/Display0.c **** * Function Name: Display0_WritePixel
1177:Generated_Source\PSoC5/Display0.c **** ********************************************************************************
1178:Generated_Source\PSoC5/Display0.c **** *
1179:Generated_Source\PSoC5/Display0.c **** * Summary:
1180:Generated_Source\PSoC5/Display0.c **** *  This function sets or clears a pixel based on pixelState in a frame buffer.
1181:Generated_Source\PSoC5/Display0.c **** *  The Pixel is addressed by a packed number. User code can also directly write
1182:Generated_Source\PSoC5/Display0.c **** *  the frame buffer RAM to create optimized interactions.
1183:Generated_Source\PSoC5/Display0.c **** *
1184:Generated_Source\PSoC5/Display0.c **** * Parameters:
1185:Generated_Source\PSoC5/Display0.c **** *  pixelNumber: is the packed number that points to the pixel's location in the
1186:Generated_Source\PSoC5/Display0.c **** *               frame buffer. The lowest three bits in the LSB low nibble are
1187:Generated_Source\PSoC5/Display0.c **** *               the bit position in the byte, the LSB upper nibble (4 bits) is
1188:Generated_Source\PSoC5/Display0.c **** *               the byte address in the multiplex row and the MSB low nibble
1189:Generated_Source\PSoC5/Display0.c **** *               (4 bits) is the multiplex row number.
1190:Generated_Source\PSoC5/Display0.c **** *  pixelState: 0 for pixel off,1 for pixel on, 2 for pixel invert.
1191:Generated_Source\PSoC5/Display0.c **** *
1192:Generated_Source\PSoC5/Display0.c **** * Return:
1193:Generated_Source\PSoC5/Display0.c **** *  Status one of standard status for PSoC3 Component:
1194:Generated_Source\PSoC5/Display0.c **** *      CYRET_SUCCESS - function completed successfully.
1195:Generated_Source\PSoC5/Display0.c **** *      CYRET_BAD_PARAM - evaluation of parameters is failed.
1196:Generated_Source\PSoC5/Display0.c **** *
1197:Generated_Source\PSoC5/Display0.c **** * Global variables:
1198:Generated_Source\PSoC5/Display0.c **** *  Display0_buffer[] - an array is modified by this API. This API
1199:Generated_Source\PSoC5/Display0.c **** *  may set or clear certain bit in the array defined by the input parameter.
1200:Generated_Source\PSoC5/Display0.c **** *
1201:Generated_Source\PSoC5/Display0.c **** * Reentrant:
1202:Generated_Source\PSoC5/Display0.c **** *  No.
1203:Generated_Source\PSoC5/Display0.c **** *
1204:Generated_Source\PSoC5/Display0.c **** *******************************************************************************/
1205:Generated_Source\PSoC5/Display0.c **** uint8 Display0_WritePixel(uint16 pixelNumber, uint8 pixelState) 
1206:Generated_Source\PSoC5/Display0.c **** {
1207:Generated_Source\PSoC5/Display0.c ****     uint8 mask;
1208:Generated_Source\PSoC5/Display0.c ****     uint8 row;
1209:Generated_Source\PSoC5/Display0.c ****     uint8 port;
1210:Generated_Source\PSoC5/Display0.c ****     uint8 pin;
1211:Generated_Source\PSoC5/Display0.c ****     uint8 status;
1212:Generated_Source\PSoC5/Display0.c **** 
1213:Generated_Source\PSoC5/Display0.c ****     if((Display0_NOT_CON != pixelNumber) || (!(pixelState > Display0_PIXEL_STATE_INVERT)))
1214:Generated_Source\PSoC5/Display0.c ****     {
1215:Generated_Source\PSoC5/Display0.c ****         if(pixelState == Display0_PIXEL_STATE_INVERT)
1216:Generated_Source\PSoC5/Display0.c ****         {
1217:Generated_Source\PSoC5/Display0.c ****             /* Invert actual pixel state */
1218:Generated_Source\PSoC5/Display0.c ****             pixelState = Display0_ReadPixel(pixelNumber);
1219:Generated_Source\PSoC5/Display0.c ****             pixelState = ~pixelState;
1220:Generated_Source\PSoC5/Display0.c ****         }
1221:Generated_Source\PSoC5/Display0.c **** 
1222:Generated_Source\PSoC5/Display0.c ****         /* Extract the pixel information to locate desired pixel in the frame
1223:Generated_Source\PSoC5/Display0.c ****         * buffer.
1224:Generated_Source\PSoC5/Display0.c ****         */
1225:Generated_Source\PSoC5/Display0.c ****         row = Display0_EXTRACT_ROW(pixelNumber);
1226:Generated_Source\PSoC5/Display0.c ****         port = Display0_EXTRACT_PORT(pixelNumber);
1227:Generated_Source\PSoC5/Display0.c ****         pin = Display0_EXTRACT_PIN(pixelNumber);
1228:Generated_Source\PSoC5/Display0.c **** 
ARM GAS  C:\Users\ESTEBAN\AppData\Local\Temp\ccuG9BOe.s 			page 23


1229:Generated_Source\PSoC5/Display0.c ****         /* Write new pixel's value to the frame buffer. */
1230:Generated_Source\PSoC5/Display0.c ****         mask = (uint8) ~((uint8)(((uint8)Display0_PIXEL_STATE_ON) << pin));
1231:Generated_Source\PSoC5/Display0.c **** 
1232:Generated_Source\PSoC5/Display0.c ****         /* Write new pixel's value to the frame buffer. */
1233:Generated_Source\PSoC5/Display0.c ****         Display0_buffer[(row * Display0_MAX_BUFF_ROWS) + port] =
1234:Generated_Source\PSoC5/Display0.c ****             (Display0_buffer[(row * Display0_MAX_BUFF_ROWS) + port] & mask) | 
1235:Generated_Source\PSoC5/Display0.c ****                 ((uint8)(((uint8) pixelState) << pin));
1236:Generated_Source\PSoC5/Display0.c **** 
1237:Generated_Source\PSoC5/Display0.c ****         status = CYRET_SUCCESS;
1238:Generated_Source\PSoC5/Display0.c ****     }
1239:Generated_Source\PSoC5/Display0.c ****     else
1240:Generated_Source\PSoC5/Display0.c ****     {
1241:Generated_Source\PSoC5/Display0.c ****         /* Let the User know he is entered wrong parameter. */
1242:Generated_Source\PSoC5/Display0.c ****         status = CYRET_BAD_PARAM;
1243:Generated_Source\PSoC5/Display0.c ****     }
1244:Generated_Source\PSoC5/Display0.c **** 
1245:Generated_Source\PSoC5/Display0.c ****     return(status);
1246:Generated_Source\PSoC5/Display0.c **** }
1247:Generated_Source\PSoC5/Display0.c **** 
1248:Generated_Source\PSoC5/Display0.c **** 
1249:Generated_Source\PSoC5/Display0.c **** /*******************************************************************************
1250:Generated_Source\PSoC5/Display0.c **** * Function Name: Display0_ReadPixel
1251:Generated_Source\PSoC5/Display0.c **** ********************************************************************************
1252:Generated_Source\PSoC5/Display0.c **** *
1253:Generated_Source\PSoC5/Display0.c **** * Summary:
1254:Generated_Source\PSoC5/Display0.c **** *  This function reads a pixels state in a frame buffer. The Pixel is addressed
1255:Generated_Source\PSoC5/Display0.c **** *  by a packed number. User code can also directly read the frame buffer RAM to
1256:Generated_Source\PSoC5/Display0.c **** *  create optimized interactions.
1257:Generated_Source\PSoC5/Display0.c **** *
1258:Generated_Source\PSoC5/Display0.c **** * Parameters:
1259:Generated_Source\PSoC5/Display0.c **** *  pixelNumber: is the packed number that points to the pixel's location in the
1260:Generated_Source\PSoC5/Display0.c **** *               frame buffer. The lowest three bits in the LSB low nibble are
1261:Generated_Source\PSoC5/Display0.c **** *               the bit position in the byte, the LSB upper nibble (4 bits) is
1262:Generated_Source\PSoC5/Display0.c **** *               the byte address in the multiplex row and the MSB low nibble
1263:Generated_Source\PSoC5/Display0.c **** *               (4 bits) is the multiplex row number.
1264:Generated_Source\PSoC5/Display0.c **** *
1265:Generated_Source\PSoC5/Display0.c **** * Return:
1266:Generated_Source\PSoC5/Display0.c **** *  Pixel State:
1267:Generated_Source\PSoC5/Display0.c **** *       Display0_PIXEL_STATE_OFF - for pixel off.
1268:Generated_Source\PSoC5/Display0.c **** *       Display0_PIXEL_STATE_ON - for pixel on.
1269:Generated_Source\PSoC5/Display0.c **** *       Display0_PIXEL_UNKNOWN_STATE - for not assigned pixel.
1270:Generated_Source\PSoC5/Display0.c **** *
1271:Generated_Source\PSoC5/Display0.c **** * Global variables:
1272:Generated_Source\PSoC5/Display0.c **** *  Display0_buffer[] - holds the state of every pixel of the LCD glass
1273:Generated_Source\PSoC5/Display0.c **** *  which can be read by this function.
1274:Generated_Source\PSoC5/Display0.c **** *
1275:Generated_Source\PSoC5/Display0.c **** *******************************************************************************/
1276:Generated_Source\PSoC5/Display0.c **** uint8 Display0_ReadPixel(uint16 pixelNumber) 
1277:Generated_Source\PSoC5/Display0.c **** {
1278:Generated_Source\PSoC5/Display0.c ****     uint8 pixelState;
1279:Generated_Source\PSoC5/Display0.c ****     uint8 row;
1280:Generated_Source\PSoC5/Display0.c ****     uint8 port;
1281:Generated_Source\PSoC5/Display0.c ****     uint8 pin;
1282:Generated_Source\PSoC5/Display0.c **** 
1283:Generated_Source\PSoC5/Display0.c ****     if(pixelNumber != Display0_NOT_CON)
1284:Generated_Source\PSoC5/Display0.c ****     {
1285:Generated_Source\PSoC5/Display0.c ****         /* Extract the pixel information to locate desired pixel in the frame
ARM GAS  C:\Users\ESTEBAN\AppData\Local\Temp\ccuG9BOe.s 			page 24


1286:Generated_Source\PSoC5/Display0.c ****         * buffer.
1287:Generated_Source\PSoC5/Display0.c ****         */
1288:Generated_Source\PSoC5/Display0.c ****         row = Display0_EXTRACT_ROW(pixelNumber);
1289:Generated_Source\PSoC5/Display0.c ****         port = Display0_EXTRACT_PORT(pixelNumber);
1290:Generated_Source\PSoC5/Display0.c ****         pin = Display0_EXTRACT_PIN(pixelNumber);
1291:Generated_Source\PSoC5/Display0.c **** 
1292:Generated_Source\PSoC5/Display0.c ****         pixelState = (((Display0_buffer[(row * Display0_MAX_BUFF_ROWS) + port]) >> pin) &
1293:Generated_Source\PSoC5/Display0.c ****                     Display0_PIXEL_STATE_ON);
1294:Generated_Source\PSoC5/Display0.c ****     }
1295:Generated_Source\PSoC5/Display0.c ****     else
1296:Generated_Source\PSoC5/Display0.c ****     {
1297:Generated_Source\PSoC5/Display0.c ****         pixelState = Display0_PIXEL_UNKNOWN_STATE;
1298:Generated_Source\PSoC5/Display0.c ****     }
1299:Generated_Source\PSoC5/Display0.c **** 
1300:Generated_Source\PSoC5/Display0.c ****     return(pixelState);
1301:Generated_Source\PSoC5/Display0.c **** }
1302:Generated_Source\PSoC5/Display0.c **** 
1303:Generated_Source\PSoC5/Display0.c **** /*******************************************************************************
1304:Generated_Source\PSoC5/Display0.c **** * Function Name: Display0_Write7SegDigit_0
1305:Generated_Source\PSoC5/Display0.c **** ********************************************************************************
1306:Generated_Source\PSoC5/Display0.c **** *
1307:Generated_Source\PSoC5/Display0.c **** * Summary:
1308:Generated_Source\PSoC5/Display0.c **** *  This function displays an 4-bit Hex digit in the range of 0-9 and A-F 
1309:Generated_Source\PSoC5/Display0.c **** *  7 segment display. The user must have defined what portion of the displays
1310:Generated_Source\PSoC5/Display0.c **** *  segments make up the 7 segment display portion in the component customizer.
1311:Generated_Source\PSoC5/Display0.c **** *  Multiple, separate 7 segment displays can be created in the frame buffer and
1312:Generated_Source\PSoC5/Display0.c **** *  are addressed through the index (n) in the function name. Function/s only
1313:Generated_Source\PSoC5/Display0.c **** *  included if component 7 segment customizerwizard defines the 7 segment option.
1314:Generated_Source\PSoC5/Display0.c **** *
1315:Generated_Source\PSoC5/Display0.c **** * Parameters:
1316:Generated_Source\PSoC5/Display0.c **** *  digit : unsigned integer value in the range of 0 to 16 to be displayed as a
1317:Generated_Source\PSoC5/Display0.c **** *  hexadecimal digit. The ASCII numbers of a hexadecimal characters are also
1318:Generated_Source\PSoC5/Display0.c **** *  valid. In case of a invalid digit value displays 0 in position specified.
1319:Generated_Source\PSoC5/Display0.c **** *  position : Position of the digit as counted right to left starting at 0 on the
1320:Generated_Source\PSoC5/Display0.c **** *  right. If the defined display does not contain a digit in the position then
1321:Generated_Source\PSoC5/Display0.c **** *  the digit will not be displayed.
1322:Generated_Source\PSoC5/Display0.c **** *
1323:Generated_Source\PSoC5/Display0.c **** * Return: 
1324:Generated_Source\PSoC5/Display0.c **** *  None.
1325:Generated_Source\PSoC5/Display0.c **** *
1326:Generated_Source\PSoC5/Display0.c **** * Global variables:
1327:Generated_Source\PSoC5/Display0.c **** *  Display0_7SegDigits[] - used as a look-up table for 7 Segment helper.
1328:Generated_Source\PSoC5/Display0.c **** *  Holds decoded digit's pixel reflection for the helper.
1329:Generated_Source\PSoC5/Display0.c **** *
1330:Generated_Source\PSoC5/Display0.c **** *  Display0_disp0[][] - holds pixels locations for 7 Segment helper in 
1331:Generated_Source\PSoC5/Display0.c **** *  the Frame Buffer.
1332:Generated_Source\PSoC5/Display0.c **** *
1333:Generated_Source\PSoC5/Display0.c **** *  Display0_DIGIT_NUM_0 - holds the maximum digit number for the helper.
1334:Generated_Source\PSoC5/Display0.c **** *
1335:Generated_Source\PSoC5/Display0.c **** * Reentrant:
1336:Generated_Source\PSoC5/Display0.c **** *  No.
1337:Generated_Source\PSoC5/Display0.c **** *
1338:Generated_Source\PSoC5/Display0.c **** *******************************************************************************/
1339:Generated_Source\PSoC5/Display0.c **** void Display0_Write7SegDigit_0(uint8 digit, uint8 position) 
1340:Generated_Source\PSoC5/Display0.c **** {
1341:Generated_Source\PSoC5/Display0.c ****     static const uint16 CYCODE Display0_disp0[2u][7u] = {{Display0_H7SEG0_A, Display0_H7SEG0_B, Dis
1342:Generated_Source\PSoC5/Display0.c ****     Display0_H7SEG0_D, Display0_H7SEG0_E, Display0_H7SEG0_F, Display0_H7SEG0_G}, {Display0_H7SEG1_A
ARM GAS  C:\Users\ESTEBAN\AppData\Local\Temp\ccuG9BOe.s 			page 25


1343:Generated_Source\PSoC5/Display0.c ****     Display0_H7SEG1_C, Display0_H7SEG1_D, Display0_H7SEG1_E, Display0_H7SEG1_F, Display0_H7SEG1_G}}
1344:Generated_Source\PSoC5/Display0.c ****     uint8 i;
1345:Generated_Source\PSoC5/Display0.c **** 
1346:Generated_Source\PSoC5/Display0.c ****     /* if digit < 16 then do nothing (we have correct data) */
1347:Generated_Source\PSoC5/Display0.c ****     if(digit <= 16u)
1348:Generated_Source\PSoC5/Display0.c ****     {
1349:Generated_Source\PSoC5/Display0.c ****         /* nothing to do, as we have correct digit value */
1350:Generated_Source\PSoC5/Display0.c ****     }
1351:Generated_Source\PSoC5/Display0.c ****     /* if digit <= 0x39 then digit is ascii code of a number (0-9) */
1352:Generated_Source\PSoC5/Display0.c ****     else if(digit <= 0x39u)
1353:Generated_Source\PSoC5/Display0.c ****     {
1354:Generated_Source\PSoC5/Display0.c ****         digit -= 0x30u;
1355:Generated_Source\PSoC5/Display0.c ****     }
1356:Generated_Source\PSoC5/Display0.c ****     /* if digit <= 0x39 then digit is ascii code of a hex number (A-F) */
1357:Generated_Source\PSoC5/Display0.c ****     else if(digit <= 0x47u)
1358:Generated_Source\PSoC5/Display0.c ****     {
1359:Generated_Source\PSoC5/Display0.c ****         digit -= 0x37u;
1360:Generated_Source\PSoC5/Display0.c ****     }
1361:Generated_Source\PSoC5/Display0.c ****     /* else we have invalid digit, and we will print '8' instead */
1362:Generated_Source\PSoC5/Display0.c ****     else
1363:Generated_Source\PSoC5/Display0.c ****     {
1364:Generated_Source\PSoC5/Display0.c ****         digit = 0u;
1365:Generated_Source\PSoC5/Display0.c ****     }
1366:Generated_Source\PSoC5/Display0.c **** 
1367:Generated_Source\PSoC5/Display0.c ****     if((position / Display0_DIGIT_NUM_0) == 0u)
1368:Generated_Source\PSoC5/Display0.c ****     {
1369:Generated_Source\PSoC5/Display0.c ****         position = Display0_DIGIT_NUM_0 - position - 1u;
1370:Generated_Source\PSoC5/Display0.c ****         for(i = 0u; i < Display0_7SEG_PIX_NUM; i++)
1371:Generated_Source\PSoC5/Display0.c ****         {
1372:Generated_Source\PSoC5/Display0.c ****             /* Select pixel state for the digit base on value in look-up table */
1373:Generated_Source\PSoC5/Display0.c ****             Display0_WRITE_PIXEL(Display0_disp0[position][i],
1374:Generated_Source\PSoC5/Display0.c ****             ((uint8)(Display0_7SegDigits[digit] >> i)) & ((uint8)Display0_PIXEL_STATE_ON));
1375:Generated_Source\PSoC5/Display0.c ****         }
1376:Generated_Source\PSoC5/Display0.c ****     }
1377:Generated_Source\PSoC5/Display0.c **** }
1378:Generated_Source\PSoC5/Display0.c **** 
1379:Generated_Source\PSoC5/Display0.c **** 
1380:Generated_Source\PSoC5/Display0.c **** /*******************************************************************************
1381:Generated_Source\PSoC5/Display0.c **** * Function Name: Display0_Write7SegNumber_0
1382:Generated_Source\PSoC5/Display0.c **** ********************************************************************************
1383:Generated_Source\PSoC5/Display0.c **** *
1384:Generated_Source\PSoC5/Display0.c **** * Summary:
1385:Generated_Source\PSoC5/Display0.c **** *  This function displays a 16-bit integer value on a 1 to 5 digit on 7 segment
1386:Generated_Source\PSoC5/Display0.c **** *  display. The user must have defined what portion of the display's segments
1387:Generated_Source\PSoC5/Display0.c **** *  make up the 7 segment display portion in the customizer. Multiple, separate
1388:Generated_Source\PSoC5/Display0.c **** *  7 segment displays can be created in the frame buffer and are addressed
1389:Generated_Source\PSoC5/Display0.c **** *  through the index (n) in the function name. Function/s only included if
1390:Generated_Source\PSoC5/Display0.c **** *  component 7 segment customizer defines the 7 segment option.
1391:Generated_Source\PSoC5/Display0.c **** *
1392:Generated_Source\PSoC5/Display0.c **** * Parameters:  
1393:Generated_Source\PSoC5/Display0.c **** *  value:    unsigned integer value to be displayed.
1394:Generated_Source\PSoC5/Display0.c **** *  position: position of the least significant digit as counted right to left
1395:Generated_Source\PSoC5/Display0.c **** *            starting at 0 on the right. If the defined display contains fewer
1396:Generated_Source\PSoC5/Display0.c **** *            digits then the value requires for display for the most significant
1397:Generated_Source\PSoC5/Display0.c **** *            digit/s will not be displayed.
1398:Generated_Source\PSoC5/Display0.c **** *  mode:     0 - no leading zeroes, 1 - leading zeroes are displayed.
1399:Generated_Source\PSoC5/Display0.c **** *
ARM GAS  C:\Users\ESTEBAN\AppData\Local\Temp\ccuG9BOe.s 			page 26


1400:Generated_Source\PSoC5/Display0.c **** * Return: 
1401:Generated_Source\PSoC5/Display0.c **** *  None.
1402:Generated_Source\PSoC5/Display0.c **** *
1403:Generated_Source\PSoC5/Display0.c **** * Global variables:
1404:Generated_Source\PSoC5/Display0.c **** *  Display0_DIGIT_NUM_0 - holds the maximum digit number for the helper.
1405:Generated_Source\PSoC5/Display0.c **** *
1406:Generated_Source\PSoC5/Display0.c **** * Reentrant:
1407:Generated_Source\PSoC5/Display0.c **** *  No.
1408:Generated_Source\PSoC5/Display0.c **** *
1409:Generated_Source\PSoC5/Display0.c **** *******************************************************************************/
1410:Generated_Source\PSoC5/Display0.c **** void Display0_Write7SegNumber_0(uint16 value, uint8 position, uint8 mode) 
1411:Generated_Source\PSoC5/Display0.c **** { 
1412:Generated_Source\PSoC5/Display0.c ****     uint8 i;
1413:Generated_Source\PSoC5/Display0.c ****     uint8 num;
1414:Generated_Source\PSoC5/Display0.c **** 
1415:Generated_Source\PSoC5/Display0.c ****     if(0u != Display0_DIGIT_NUM_0)
1416:Generated_Source\PSoC5/Display0.c ****     {
1417:Generated_Source\PSoC5/Display0.c ****         position = position % Display0_DIGIT_NUM_0;
1418:Generated_Source\PSoC5/Display0.c ****     }
1419:Generated_Source\PSoC5/Display0.c **** 
1420:Generated_Source\PSoC5/Display0.c ****     /* While current digit position in the range of display keep processing the output */
1421:Generated_Source\PSoC5/Display0.c ****     for(i = position; i < Display0_DIGIT_NUM_0; i++)
1422:Generated_Source\PSoC5/Display0.c ****     {
1423:Generated_Source\PSoC5/Display0.c ****         num = (uint8)(value % 10u);
1424:Generated_Source\PSoC5/Display0.c ****         if((0u == value) && (0u == mode)) 
1425:Generated_Source\PSoC5/Display0.c ****         {
1426:Generated_Source\PSoC5/Display0.c ****             /* In case of 'no leading zeros' each extra digit will be cleared */ 
1427:Generated_Source\PSoC5/Display0.c ****             Display0_Write7SegDigit_0(Display0_7SEG_BLANK_DIG, i);
1428:Generated_Source\PSoC5/Display0.c ****         }
1429:Generated_Source\PSoC5/Display0.c ****         else
1430:Generated_Source\PSoC5/Display0.c ****         {
1431:Generated_Source\PSoC5/Display0.c ****             /* Display subsequent digit or '0' if 'no leading zeros' mode */ 
1432:Generated_Source\PSoC5/Display0.c ****             Display0_Write7SegDigit_0(num, i);
1433:Generated_Source\PSoC5/Display0.c ****         }
1434:Generated_Source\PSoC5/Display0.c ****         value /= 10u; 
1435:Generated_Source\PSoC5/Display0.c ****     }
1436:Generated_Source\PSoC5/Display0.c **** }
1437:Generated_Source\PSoC5/Display0.c **** 
1438:Generated_Source\PSoC5/Display0.c **** /*******************************************************************************
1439:Generated_Source\PSoC5/Display0.c **** * Function Name: Display0_WriteControlReg
1440:Generated_Source\PSoC5/Display0.c **** ********************************************************************************
1441:Generated_Source\PSoC5/Display0.c **** *
1442:Generated_Source\PSoC5/Display0.c **** * Summary:
1443:Generated_Source\PSoC5/Display0.c **** *  This function dedicated for internal component usage only. It used to prepare
1444:Generated_Source\PSoC5/Display0.c **** *  the values for LCD Control Register wich will be later writen to it by DMA.
1445:Generated_Source\PSoC5/Display0.c **** *
1446:Generated_Source\PSoC5/Display0.c **** * Parameters:
1447:Generated_Source\PSoC5/Display0.c **** *  value: value to be written to Control Register.
1448:Generated_Source\PSoC5/Display0.c **** *  mask: mask for the respective value. Mask should contain '0' in bit positions
1449:Generated_Source\PSoC5/Display0.c **** *        that dessired to be set. For example for the value 0x03(00000011) mask
1450:Generated_Source\PSoC5/Display0.c **** *        will be 0xFC(11111100).
1451:Generated_Source\PSoC5/Display0.c **** *
1452:Generated_Source\PSoC5/Display0.c **** * Return:
1453:Generated_Source\PSoC5/Display0.c **** *  None.
1454:Generated_Source\PSoC5/Display0.c **** *
1455:Generated_Source\PSoC5/Display0.c **** * Global variables:
1456:Generated_Source\PSoC5/Display0.c **** *  Display0_frameTx[] - used to store a set of precalculated values
ARM GAS  C:\Users\ESTEBAN\AppData\Local\Temp\ccuG9BOe.s 			page 27


1457:Generated_Source\PSoC5/Display0.c **** *  for control register which is generated by this function.
1458:Generated_Source\PSoC5/Display0.c **** *
1459:Generated_Source\PSoC5/Display0.c **** * Theory:
1460:Generated_Source\PSoC5/Display0.c **** *  Non API function. Users should never use this function directly. To save UDB
1461:Generated_Source\PSoC5/Display0.c **** *  resources there is only one Control Register used for LCD operation. This
1462:Generated_Source\PSoC5/Display0.c **** *  Control Register contains Frame bit which is used to generate Frame signal.
1463:Generated_Source\PSoC5/Display0.c **** *  This is a dynamic signal which is transfered by the DMA. So all other
1464:Generated_Source\PSoC5/Display0.c **** *  control bist will be owervriten on every DMA transaction. That's why all the
1465:Generated_Source\PSoC5/Display0.c **** *  data that need to be remained in the Control Register are written to array
1466:Generated_Source\PSoC5/Display0.c **** *  where predefined values of Frame contain.
1467:Generated_Source\PSoC5/Display0.c **** *
1468:Generated_Source\PSoC5/Display0.c **** *******************************************************************************/
1469:Generated_Source\PSoC5/Display0.c **** static void Display0_WriteControlReg(uint8 value, uint8 mask) CYREENTRANT
1470:Generated_Source\PSoC5/Display0.c **** {
  27              		.loc 1 1470 0
  28              		.cfi_startproc
  29              		@ args = 0, pretend = 0, frame = 0
  30              		@ frame_needed = 0, uses_anonymous_args = 0
  31              		@ link register save eliminated.
  32              	.LVL0:
  33 0000 10B4     		push	{r4}
  34              		.cfi_def_cfa_offset 4
  35              		.cfi_offset 4, -4
  36              	.LVL1:
1471:Generated_Source\PSoC5/Display0.c ****     uint8 i;
1472:Generated_Source\PSoC5/Display0.c **** 
1473:Generated_Source\PSoC5/Display0.c ****     for(i = 0u; i < Display0_CONTROL_WRITE_COUNT; i++)
  37              		.loc 1 1473 0
  38 0002 0023     		movs	r3, #0
  39 0004 06E0     		b	.L2
  40              	.LVL2:
  41              	.L3:
1474:Generated_Source\PSoC5/Display0.c ****     {
1475:Generated_Source\PSoC5/Display0.c ****         /* Write the value for control register to each element of the array. */
1476:Generated_Source\PSoC5/Display0.c ****         Display0_frameTx[i] = (Display0_frameTx[i] & mask) | value;
  42              		.loc 1 1476 0 discriminator 3
  43 0006 054C     		ldr	r4, .L5
  44 0008 E25C     		ldrb	r2, [r4, r3]	@ zero_extendqisi2
  45 000a 0A40     		ands	r2, r2, r1
  46 000c 0243     		orrs	r2, r2, r0
  47 000e E254     		strb	r2, [r4, r3]
1473:Generated_Source\PSoC5/Display0.c ****     {
  48              		.loc 1 1473 0 discriminator 3
  49 0010 0133     		adds	r3, r3, #1
  50              	.LVL3:
  51 0012 DBB2     		uxtb	r3, r3
  52              	.LVL4:
  53              	.L2:
1473:Generated_Source\PSoC5/Display0.c ****     {
  54              		.loc 1 1473 0 is_stmt 0 discriminator 1
  55 0014 012B     		cmp	r3, #1
  56 0016 F6D9     		bls	.L3
1477:Generated_Source\PSoC5/Display0.c ****     }
1478:Generated_Source\PSoC5/Display0.c **** }
  57              		.loc 1 1478 0 is_stmt 1
  58 0018 10BC     		pop	{r4}
  59              		.cfi_restore 4
ARM GAS  C:\Users\ESTEBAN\AppData\Local\Temp\ccuG9BOe.s 			page 28


  60              		.cfi_def_cfa_offset 0
  61 001a 7047     		bx	lr
  62              	.L6:
  63              		.align	2
  64              	.L5:
  65 001c 00000000 		.word	.LANCHOR0
  66              		.cfi_endproc
  67              	.LFE16:
  68              		.size	Display0_WriteControlReg, .-Display0_WriteControlReg
  69              		.section	.text.Display0_DmaConfigure,"ax",%progbits
  70              		.align	2
  71              		.thumb
  72              		.thumb_func
  73              		.type	Display0_DmaConfigure, %function
  74              	Display0_DmaConfigure:
  75              	.LFB2:
 476:Generated_Source\PSoC5/Display0.c ****     uint8   status = CYRET_SUCCESS;
  76              		.loc 1 476 0
  77              		.cfi_startproc
  78              		@ args = 0, pretend = 0, frame = 0
  79              		@ frame_needed = 0, uses_anonymous_args = 0
  80 0000 F8B5     		push	{r3, r4, r5, r6, r7, lr}
  81              		.cfi_def_cfa_offset 24
  82              		.cfi_offset 3, -24
  83              		.cfi_offset 4, -20
  84              		.cfi_offset 5, -16
  85              		.cfi_offset 6, -12
  86              		.cfi_offset 7, -8
  87              		.cfi_offset 14, -4
  88              	.LVL5:
 491:Generated_Source\PSoC5/Display0.c ****         dstAddr = (uint32) Display0_CONTROL_PTR;
  89              		.loc 1 491 0
  90 0002 4C4D     		ldr	r5, .L27
  91              	.LVL6:
 495:Generated_Source\PSoC5/Display0.c ****                                                                             HI16(Display0_CONTROL_R
  92              		.loc 1 495 0
  93 0004 4FF48043 		mov	r3, #16384
  94 0008 2A0C     		lsrs	r2, r5, #16
  95 000a 0021     		movs	r1, #0
  96 000c 0846     		mov	r0, r1
  97 000e FFF7FEFF 		bl	Display0_Frame_Dma_DmaInitialize
  98              	.LVL7:
  99 0012 494B     		ldr	r3, .L27+4
 100 0014 1870     		strb	r0, [r3]
 507:Generated_Source\PSoC5/Display0.c ****     {
 101              		.loc 1 507 0
 102 0016 FF28     		cmp	r0, #255
 103 0018 01D0     		beq	.L22
 477:Generated_Source\PSoC5/Display0.c ****     uint8   i;
 104              		.loc 1 477 0
 105 001a 0026     		movs	r6, #0
 106 001c 00E0     		b	.L8
 107              	.L22:
 509:Generated_Source\PSoC5/Display0.c ****     }
 108              		.loc 1 509 0
 109 001e 0426     		movs	r6, #4
 110              	.L8:
ARM GAS  C:\Users\ESTEBAN\AppData\Local\Temp\ccuG9BOe.s 			page 29


 525:Generated_Source\PSoC5/Display0.c ****             }
 111              		.loc 1 525 0 discriminator 1
 112 0020 0024     		movs	r4, #0
 113 0022 09E0     		b	.L9
 114              	.LVL8:
 115              	.L11:
 521:Generated_Source\PSoC5/Display0.c ****             
 116              		.loc 1 521 0
 117 0024 FFF7FEFF 		bl	CyDmaTdAllocate
 118              	.LVL9:
 119 0028 434B     		ldr	r3, .L27+4
 120 002a 2344     		add	r3, r3, r4
 121 002c 1871     		strb	r0, [r3, #4]
 523:Generated_Source\PSoC5/Display0.c ****             {
 122              		.loc 1 523 0
 123 002e FF28     		cmp	r0, #255
 124 0030 00D1     		bne	.L10
 525:Generated_Source\PSoC5/Display0.c ****             }
 125              		.loc 1 525 0
 126 0032 0426     		movs	r6, #4
 127              	.LVL10:
 128              	.L10:
 519:Generated_Source\PSoC5/Display0.c ****         {   /* Allocate a TD and check it if it valid. */
 129              		.loc 1 519 0 discriminator 2
 130 0034 0134     		adds	r4, r4, #1
 131              	.LVL11:
 132 0036 E4B2     		uxtb	r4, r4
 133              	.LVL12:
 134              	.L9:
 519:Generated_Source\PSoC5/Display0.c ****         {   /* Allocate a TD and check it if it valid. */
 135              		.loc 1 519 0 is_stmt 0 discriminator 1
 136 0038 012C     		cmp	r4, #1
 137 003a F3D9     		bls	.L11
 530:Generated_Source\PSoC5/Display0.c ****                                        1u,
 138              		.loc 1 530 0 is_stmt 1
 139 003c 3E4F     		ldr	r7, .L27+4
 140 003e 0123     		movs	r3, #1
 141 0040 7A79     		ldrb	r2, [r7, #5]	@ zero_extendqisi2
 142 0042 1946     		mov	r1, r3
 143 0044 3879     		ldrb	r0, [r7, #4]	@ zero_extendqisi2
 144 0046 FFF7FEFF 		bl	CyDmaTdSetConfiguration
 145              	.LVL13:
 535:Generated_Source\PSoC5/Display0.c **** 
 146              		.loc 1 535 0
 147 004a ACB2     		uxth	r4, r5
 148              	.LVL14:
 149 004c 46F27B42 		movw	r2, #25723
 150 0050 2146     		mov	r1, r4
 151 0052 3879     		ldrb	r0, [r7, #4]	@ zero_extendqisi2
 152 0054 FFF7FEFF 		bl	CyDmaTdSetAddress
 153              	.LVL15:
 538:Generated_Source\PSoC5/Display0.c ****                                        1u,
 154              		.loc 1 538 0
 155 0058 0123     		movs	r3, #1
 156 005a 3A79     		ldrb	r2, [r7, #4]	@ zero_extendqisi2
 157 005c 1946     		mov	r1, r3
 158 005e 7879     		ldrb	r0, [r7, #5]	@ zero_extendqisi2
ARM GAS  C:\Users\ESTEBAN\AppData\Local\Temp\ccuG9BOe.s 			page 30


 159 0060 FFF7FEFF 		bl	CyDmaTdSetConfiguration
 160              	.LVL16:
 543:Generated_Source\PSoC5/Display0.c **** 
 161              		.loc 1 543 0
 162 0064 611C     		adds	r1, r4, #1
 163 0066 46F27B42 		movw	r2, #25723
 164 006a 89B2     		uxth	r1, r1
 165 006c 7879     		ldrb	r0, [r7, #5]	@ zero_extendqisi2
 166 006e FFF7FEFF 		bl	CyDmaTdSetAddress
 167              	.LVL17:
 579:Generated_Source\PSoC5/Display0.c ****     {
 168              		.loc 1 579 0
 169 0072 3EB9     		cbnz	r6, .L12
 581:Generated_Source\PSoC5/Display0.c ****         (void) CyDmaChEnable(Display0_frameChannel, 1u);
 170              		.loc 1 581 0
 171 0074 3979     		ldrb	r1, [r7, #4]	@ zero_extendqisi2
 172 0076 3878     		ldrb	r0, [r7]	@ zero_extendqisi2
 173 0078 FFF7FEFF 		bl	CyDmaChSetInitialTd
 174              	.LVL18:
 582:Generated_Source\PSoC5/Display0.c ****     }
 175              		.loc 1 582 0
 176 007c 0121     		movs	r1, #1
 177 007e 3878     		ldrb	r0, [r7]	@ zero_extendqisi2
 178 0080 FFF7FEFF 		bl	CyDmaChEnable
 179              	.LVL19:
 180              	.L12:
 587:Generated_Source\PSoC5/Display0.c ****         dstAddr = (uint32) Display0_ALIASED_AREA_PTR;
 181              		.loc 1 587 0
 182 0084 2C4C     		ldr	r4, .L27+4
 183 0086 04F10805 		add	r5, r4, #8
 184              	.LVL20:
 590:Generated_Source\PSoC5/Display0.c ****                                                                         HI16(Display0_ALIASED_AREA_
 185              		.loc 1 590 0
 186 008a 4FF48043 		mov	r3, #16384
 187 008e 2A0C     		lsrs	r2, r5, #16
 188 0090 0021     		movs	r1, #0
 189 0092 0846     		mov	r0, r1
 190 0094 FFF7FEFF 		bl	Display0_Lcd_Dma_DmaInitialize
 191              	.LVL21:
 192 0098 84F82800 		strb	r0, [r4, #40]
 599:Generated_Source\PSoC5/Display0.c ****     {
 193              		.loc 1 599 0
 194 009c FF28     		cmp	r0, #255
 195 009e 00D1     		bne	.L13
 601:Generated_Source\PSoC5/Display0.c ****     }
 196              		.loc 1 601 0
 197 00a0 0426     		movs	r6, #4
 198              	.LVL22:
 199              	.L13:
 612:Generated_Source\PSoC5/Display0.c ****             }
 200              		.loc 1 612 0 discriminator 1
 201 00a2 0024     		movs	r4, #0
 202 00a4 0AE0     		b	.L14
 203              	.LVL23:
 204              	.L16:
 608:Generated_Source\PSoC5/Display0.c ****             
 205              		.loc 1 608 0
ARM GAS  C:\Users\ESTEBAN\AppData\Local\Temp\ccuG9BOe.s 			page 31


 206 00a6 FFF7FEFF 		bl	CyDmaTdAllocate
 207              	.LVL24:
 208 00aa 234B     		ldr	r3, .L27+4
 209 00ac 2344     		add	r3, r3, r4
 210 00ae 83F82C00 		strb	r0, [r3, #44]
 610:Generated_Source\PSoC5/Display0.c ****             {
 211              		.loc 1 610 0
 212 00b2 FF28     		cmp	r0, #255
 213 00b4 00D1     		bne	.L15
 612:Generated_Source\PSoC5/Display0.c ****             }
 214              		.loc 1 612 0
 215 00b6 0426     		movs	r6, #4
 216              	.LVL25:
 217              	.L15:
 604:Generated_Source\PSoC5/Display0.c ****     {
 218              		.loc 1 604 0 discriminator 2
 219 00b8 0134     		adds	r4, r4, #1
 220              	.LVL26:
 221 00ba E4B2     		uxtb	r4, r4
 222              	.LVL27:
 223              	.L14:
 604:Generated_Source\PSoC5/Display0.c ****     {
 224              		.loc 1 604 0 is_stmt 0 discriminator 1
 225 00bc 012C     		cmp	r4, #1
 226 00be F2D9     		bls	.L16
 227 00c0 0024     		movs	r4, #0
 228              	.LVL28:
 229 00c2 25E0     		b	.L17
 230              	.LVL29:
 231              	.L20:
 642:Generated_Source\PSoC5/Display0.c ****             {
 232              		.loc 1 642 0 is_stmt 1
 233 00c4 012C     		cmp	r4, #1
 234 00c6 0AD1     		bne	.L18
 645:Generated_Source\PSoC5/Display0.c ****                                                (uint16)Display0_SegLcdPort_DMA_TD_PROTO_BLOCK[0].le
 235              		.loc 1 645 0
 236 00c8 1B4A     		ldr	r2, .L27+4
 237 00ca 1019     		adds	r0, r2, r4
 238 00cc 0723     		movs	r3, #7
 239 00ce 92F82C20 		ldrb	r2, [r2, #44]	@ zero_extendqisi2
 240 00d2 0221     		movs	r1, #2
 241 00d4 90F82C00 		ldrb	r0, [r0, #44]	@ zero_extendqisi2
 242 00d8 FFF7FEFF 		bl	CyDmaTdSetConfiguration
 243              	.LVL30:
 244 00dc 0BE0     		b	.L19
 245              	.L18:
 656:Generated_Source\PSoC5/Display0.c ****                                                (uint16) Display0_SegLcdPort_DMA_TD_PROTO_BLOCK[0].l
 246              		.loc 1 656 0
 247 00de 164A     		ldr	r2, .L27+4
 248 00e0 1019     		adds	r0, r2, r4
 658:Generated_Source\PSoC5/Display0.c ****                                                TD_INC_DST_ADR | TD_INC_SRC_ADR | 
 249              		.loc 1 658 0
 250 00e2 631C     		adds	r3, r4, #1
 656:Generated_Source\PSoC5/Display0.c ****                                                (uint16) Display0_SegLcdPort_DMA_TD_PROTO_BLOCK[0].l
 251              		.loc 1 656 0
 252 00e4 1A44     		add	r2, r2, r3
 253 00e6 0723     		movs	r3, #7
ARM GAS  C:\Users\ESTEBAN\AppData\Local\Temp\ccuG9BOe.s 			page 32


 254 00e8 92F82C20 		ldrb	r2, [r2, #44]	@ zero_extendqisi2
 255 00ec 0221     		movs	r1, #2
 256 00ee 90F82C00 		ldrb	r0, [r0, #44]	@ zero_extendqisi2
 257 00f2 FFF7FEFF 		bl	CyDmaTdSetConfiguration
 258              	.LVL31:
 259              	.L19:
 663:Generated_Source\PSoC5/Display0.c ****                                      LO16(srcAddr) + (((uint16) j) * Display0_ROW_LENGTH) +
 260              		.loc 1 663 0 discriminator 2
 261 00f6 104B     		ldr	r3, .L27+4
 262 00f8 2344     		add	r3, r3, r4
 263 00fa 05EB0411 		add	r1, r5, r4, lsl #4
 264 00fe 4FF4A142 		mov	r2, #20608
 265 0102 89B2     		uxth	r1, r1
 266 0104 93F82C00 		ldrb	r0, [r3, #44]	@ zero_extendqisi2
 267 0108 FFF7FEFF 		bl	CyDmaTdSetAddress
 268              	.LVL32:
 634:Generated_Source\PSoC5/Display0.c ****     {
 269              		.loc 1 634 0 discriminator 2
 270 010c 0134     		adds	r4, r4, #1
 271              	.LVL33:
 272 010e E4B2     		uxtb	r4, r4
 273              	.LVL34:
 274              	.L17:
 634:Generated_Source\PSoC5/Display0.c ****     {
 275              		.loc 1 634 0 is_stmt 0 discriminator 1
 276 0110 012C     		cmp	r4, #1
 277 0112 D7D9     		bls	.L20
 713:Generated_Source\PSoC5/Display0.c ****     {
 278              		.loc 1 713 0 is_stmt 1
 279 0114 5EB9     		cbnz	r6, .L21
 715:Generated_Source\PSoC5/Display0.c ****         (void) CyDmaChEnable(Display0_lcdChannel, 1u);
 280              		.loc 1 715 0
 281 0116 084C     		ldr	r4, .L27+4
 282              	.LVL35:
 283 0118 94F82C10 		ldrb	r1, [r4, #44]	@ zero_extendqisi2
 284 011c 94F82800 		ldrb	r0, [r4, #40]	@ zero_extendqisi2
 285 0120 FFF7FEFF 		bl	CyDmaChSetInitialTd
 286              	.LVL36:
 716:Generated_Source\PSoC5/Display0.c ****     }
 287              		.loc 1 716 0
 288 0124 0121     		movs	r1, #1
 289 0126 94F82800 		ldrb	r0, [r4, #40]	@ zero_extendqisi2
 290 012a FFF7FEFF 		bl	CyDmaChEnable
 291              	.LVL37:
 292              	.L21:
 720:Generated_Source\PSoC5/Display0.c **** 
 293              		.loc 1 720 0
 294 012e 3046     		mov	r0, r6
 295 0130 F8BD     		pop	{r3, r4, r5, r6, r7, pc}
 296              	.LVL38:
 297              	.L28:
 298 0132 00BF     		.align	2
 299              	.L27:
 300 0134 00000000 		.word	.LANCHOR0
 301 0138 00000000 		.word	.LANCHOR1
 302              		.cfi_endproc
 303              	.LFE2:
ARM GAS  C:\Users\ESTEBAN\AppData\Local\Temp\ccuG9BOe.s 			page 33


 304              		.size	Display0_DmaConfigure, .-Display0_DmaConfigure
 305              		.section	.text.Display0_DmaDispose,"ax",%progbits
 306              		.align	2
 307              		.thumb
 308              		.thumb_func
 309              		.type	Display0_DmaDispose, %function
 310              	Display0_DmaDispose:
 311              	.LFB3:
 752:Generated_Source\PSoC5/Display0.c ****     uint8 i;
 312              		.loc 1 752 0
 313              		.cfi_startproc
 314              		@ args = 0, pretend = 0, frame = 0
 315              		@ frame_needed = 0, uses_anonymous_args = 0
 316 0000 10B5     		push	{r4, lr}
 317              		.cfi_def_cfa_offset 8
 318              		.cfi_offset 4, -8
 319              		.cfi_offset 14, -4
 756:Generated_Source\PSoC5/Display0.c **** 
 320              		.loc 1 756 0
 321 0002 FFF7FEFF 		bl	Display0_Lcd_Dma_DmaRelease
 322              	.LVL39:
 759:Generated_Source\PSoC5/Display0.c **** 
 323              		.loc 1 759 0
 324 0006 114C     		ldr	r4, .L35
 325 0008 94F82800 		ldrb	r0, [r4, #40]	@ zero_extendqisi2
 326 000c FFF7FEFF 		bl	CyDmaChFree
 327              	.LVL40:
 762:Generated_Source\PSoC5/Display0.c **** 
 328              		.loc 1 762 0
 329 0010 FFF7FEFF 		bl	Display0_Frame_Dma_DmaRelease
 330              	.LVL41:
 765:Generated_Source\PSoC5/Display0.c **** 
 331              		.loc 1 765 0
 332 0014 2078     		ldrb	r0, [r4]	@ zero_extendqisi2
 333 0016 FFF7FEFF 		bl	CyDmaChFree
 334              	.LVL42:
 768:Generated_Source\PSoC5/Display0.c ****         {
 335              		.loc 1 768 0
 336 001a 0024     		movs	r4, #0
 337 001c 06E0     		b	.L30
 338              	.LVL43:
 339              	.L31:
 770:Generated_Source\PSoC5/Display0.c ****         }
 340              		.loc 1 770 0 discriminator 3
 341 001e 0B4B     		ldr	r3, .L35
 342 0020 2344     		add	r3, r3, r4
 343 0022 1879     		ldrb	r0, [r3, #4]	@ zero_extendqisi2
 344 0024 FFF7FEFF 		bl	CyDmaTdFree
 345              	.LVL44:
 768:Generated_Source\PSoC5/Display0.c ****         {
 346              		.loc 1 768 0 discriminator 3
 347 0028 0134     		adds	r4, r4, #1
 348              	.LVL45:
 349 002a E4B2     		uxtb	r4, r4
 350              	.LVL46:
 351              	.L30:
 768:Generated_Source\PSoC5/Display0.c ****         {
ARM GAS  C:\Users\ESTEBAN\AppData\Local\Temp\ccuG9BOe.s 			page 34


 352              		.loc 1 768 0 is_stmt 0 discriminator 1
 353 002c 012C     		cmp	r4, #1
 354 002e F6D9     		bls	.L31
 355 0030 0024     		movs	r4, #0
 356              	.LVL47:
 357 0032 07E0     		b	.L32
 358              	.LVL48:
 359              	.L33:
 782:Generated_Source\PSoC5/Display0.c ****     }
 360              		.loc 1 782 0 is_stmt 1 discriminator 3
 361 0034 054B     		ldr	r3, .L35
 362 0036 2344     		add	r3, r3, r4
 363 0038 93F82C00 		ldrb	r0, [r3, #44]	@ zero_extendqisi2
 364 003c FFF7FEFF 		bl	CyDmaTdFree
 365              	.LVL49:
 780:Generated_Source\PSoC5/Display0.c ****     {
 366              		.loc 1 780 0 discriminator 3
 367 0040 0134     		adds	r4, r4, #1
 368              	.LVL50:
 369 0042 E4B2     		uxtb	r4, r4
 370              	.LVL51:
 371              	.L32:
 780:Generated_Source\PSoC5/Display0.c ****     {
 372              		.loc 1 780 0 is_stmt 0 discriminator 1
 373 0044 012C     		cmp	r4, #1
 374 0046 F5D9     		bls	.L33
 784:Generated_Source\PSoC5/Display0.c **** 
 375              		.loc 1 784 0 is_stmt 1
 376 0048 10BD     		pop	{r4, pc}
 377              	.LVL52:
 378              	.L36:
 379 004a 00BF     		.align	2
 380              	.L35:
 381 004c 00000000 		.word	.LANCHOR1
 382              		.cfi_endproc
 383              	.LFE3:
 384              		.size	Display0_DmaDispose, .-Display0_DmaDispose
 385              		.section	.text.Display0_Enable,"ax",%progbits
 386              		.align	2
 387              		.global	Display0_Enable
 388              		.thumb
 389              		.thumb_func
 390              		.type	Display0_Enable, %function
 391              	Display0_Enable:
 392              	.LFB1:
 393:Generated_Source\PSoC5/Display0.c ****     uint8 status;
 393              		.loc 1 393 0
 394              		.cfi_startproc
 395              		@ args = 0, pretend = 0, frame = 0
 396              		@ frame_needed = 0, uses_anonymous_args = 0
 397 0000 10B5     		push	{r4, lr}
 398              		.cfi_def_cfa_offset 8
 399              		.cfi_offset 4, -8
 400              		.cfi_offset 14, -4
 397:Generated_Source\PSoC5/Display0.c **** 
 401              		.loc 1 397 0
 402 0002 FFF7FEFF 		bl	CyEnterCriticalSection
ARM GAS  C:\Users\ESTEBAN\AppData\Local\Temp\ccuG9BOe.s 			page 35


 403              	.LVL53:
 400:Generated_Source\PSoC5/Display0.c ****     Display0_PWR_MGR_STBY_REG |= Display0_LCD_STBY_EN;
 404              		.loc 1 400 0
 405 0006 144A     		ldr	r2, .L39
 406 0008 1378     		ldrb	r3, [r2]	@ zero_extendqisi2
 407 000a 43F01003 		orr	r3, r3, #16
 408 000e 1370     		strb	r3, [r2]
 401:Generated_Source\PSoC5/Display0.c **** 
 409              		.loc 1 401 0
 410 0010 1032     		adds	r2, r2, #16
 411 0012 1378     		ldrb	r3, [r2]	@ zero_extendqisi2
 412 0014 43F01003 		orr	r3, r3, #16
 413 0018 1370     		strb	r3, [r2]
 403:Generated_Source\PSoC5/Display0.c **** 
 414              		.loc 1 403 0
 415 001a FFF7FEFF 		bl	CyExitCriticalSection
 416              	.LVL54:
 406:Generated_Source\PSoC5/Display0.c **** 
 417              		.loc 1 406 0
 418 001e FFF7FEFF 		bl	Display0_Int_Clock_Start
 419              	.LVL55:
 408:Generated_Source\PSoC5/Display0.c **** 
 420              		.loc 1 408 0
 421 0022 FFF7FEFF 		bl	Display0_DmaConfigure
 422              	.LVL56:
 423 0026 0446     		mov	r4, r0
 424              	.LVL57:
 411:Generated_Source\PSoC5/Display0.c ****     Display0_PWM_DRIVE_REG = Display0_PWM_DRIVE_VAL;
 425              		.loc 1 411 0
 426 0028 FF22     		movs	r2, #255
 427 002a 0C4B     		ldr	r3, .L39+4
 428 002c 1A70     		strb	r2, [r3]
 412:Generated_Source\PSoC5/Display0.c ****     Display0_PWM_LODRIVE_REG = Display0_PWM_LOWDRIVE_VAL;
 429              		.loc 1 412 0
 430 002e FA22     		movs	r2, #250
 431 0030 1033     		adds	r3, r3, #16
 432 0032 1A70     		strb	r2, [r3]
 413:Generated_Source\PSoC5/Display0.c **** 
 433              		.loc 1 413 0
 434 0034 0222     		movs	r2, #2
 435 0036 1033     		adds	r3, r3, #16
 436 0038 1A70     		strb	r2, [r3]
 415:Generated_Source\PSoC5/Display0.c ****     (uint8)Display0_CNTL_FRAME_DONE_MASK);
 437              		.loc 1 415 0
 438 003a F721     		movs	r1, #247
 439 003c 0820     		movs	r0, #8
 440 003e FFF7FEFF 		bl	Display0_WriteControlReg
 441              	.LVL58:
 419:Generated_Source\PSoC5/Display0.c **** 
 442              		.loc 1 419 0
 443 0042 FE21     		movs	r1, #254
 444 0044 0120     		movs	r0, #1
 445 0046 FFF7FEFF 		bl	Display0_WriteControlReg
 446              	.LVL59:
 424:Generated_Source\PSoC5/Display0.c **** 
 447              		.loc 1 424 0
 448 004a 054A     		ldr	r2, .L39+8
ARM GAS  C:\Users\ESTEBAN\AppData\Local\Temp\ccuG9BOe.s 			page 36


 449 004c 1378     		ldrb	r3, [r2]	@ zero_extendqisi2
 450 004e 43F00103 		orr	r3, r3, #1
 451 0052 1370     		strb	r3, [r2]
 437:Generated_Source\PSoC5/Display0.c **** 
 452              		.loc 1 437 0
 453 0054 2046     		mov	r0, r4
 454 0056 10BD     		pop	{r4, pc}
 455              	.LVL60:
 456              	.L40:
 457              		.align	2
 458              	.L39:
 459 0058 A5430040 		.word	1073759141
 460 005c 1B640040 		.word	1073767451
 461 0060 7B640040 		.word	1073767547
 462              		.cfi_endproc
 463              	.LFE1:
 464              		.size	Display0_Enable, .-Display0_Enable
 465              		.section	.text.Display0_Stop,"ax",%progbits
 466              		.align	2
 467              		.global	Display0_Stop
 468              		.thumb
 469              		.thumb_func
 470              		.type	Display0_Stop, %function
 471              	Display0_Stop:
 472              	.LFB5:
 849:Generated_Source\PSoC5/Display0.c ****     uint8   interruptState;
 473              		.loc 1 849 0
 474              		.cfi_startproc
 475              		@ args = 0, pretend = 0, frame = 0
 476              		@ frame_needed = 0, uses_anonymous_args = 0
 477 0000 08B5     		push	{r3, lr}
 478              		.cfi_def_cfa_offset 8
 479              		.cfi_offset 3, -8
 480              		.cfi_offset 14, -4
 853:Generated_Source\PSoC5/Display0.c **** 
 481              		.loc 1 853 0
 482 0002 FE21     		movs	r1, #254
 483 0004 0020     		movs	r0, #0
 484 0006 FFF7FEFF 		bl	Display0_WriteControlReg
 485              	.LVL61:
 866:Generated_Source\PSoC5/Display0.c ****     /* Clear Continous Display Blink bit */
 486              		.loc 1 866 0
 487 000a 104B     		ldr	r3, .L43
 488 000c 1A78     		ldrb	r2, [r3]	@ zero_extendqisi2
 489 000e 02F0F702 		and	r2, r2, #247
 490 0012 1A70     		strb	r2, [r3]
 868:Generated_Source\PSoC5/Display0.c ****     /* Clear Continous Bypass Enable bit */
 491              		.loc 1 868 0
 492 0014 1A78     		ldrb	r2, [r3]	@ zero_extendqisi2
 493 0016 02F0FE02 		and	r2, r2, #254
 494 001a 1A70     		strb	r2, [r3]
 870:Generated_Source\PSoC5/Display0.c **** 
 495              		.loc 1 870 0
 496 001c 1A78     		ldrb	r2, [r3]	@ zero_extendqisi2
 497 001e 02F0EF02 		and	r2, r2, #239
 498 0022 1A70     		strb	r2, [r3]
 872:Generated_Source\PSoC5/Display0.c **** 
ARM GAS  C:\Users\ESTEBAN\AppData\Local\Temp\ccuG9BOe.s 			page 37


 499              		.loc 1 872 0
 500 0024 FFF7FEFF 		bl	CyEnterCriticalSection
 501              	.LVL62:
 875:Generated_Source\PSoC5/Display0.c ****     Display0_PWR_MGR_STBY_REG &= ((uint8) ~Display0_LCD_STBY_EN);
 502              		.loc 1 875 0
 503 0028 094A     		ldr	r2, .L43+4
 504 002a 1378     		ldrb	r3, [r2]	@ zero_extendqisi2
 505 002c 03F0EF03 		and	r3, r3, #239
 506 0030 1370     		strb	r3, [r2]
 876:Generated_Source\PSoC5/Display0.c **** 
 507              		.loc 1 876 0
 508 0032 1032     		adds	r2, r2, #16
 509 0034 1378     		ldrb	r3, [r2]	@ zero_extendqisi2
 510 0036 03F0EF03 		and	r3, r3, #239
 511 003a 1370     		strb	r3, [r2]
 878:Generated_Source\PSoC5/Display0.c **** 
 512              		.loc 1 878 0
 513 003c FFF7FEFF 		bl	CyExitCriticalSection
 514              	.LVL63:
 881:Generated_Source\PSoC5/Display0.c **** 
 515              		.loc 1 881 0
 516 0040 FFF7FEFF 		bl	Display0_DmaDispose
 517              	.LVL64:
 884:Generated_Source\PSoC5/Display0.c **** }
 518              		.loc 1 884 0
 519 0044 FFF7FEFF 		bl	Display0_Int_Clock_Stop
 520              	.LVL65:
 521 0048 08BD     		pop	{r3, pc}
 522              	.L44:
 523 004a 00BF     		.align	2
 524              	.L43:
 525 004c 68580040 		.word	1073764456
 526 0050 A5430040 		.word	1073759141
 527              		.cfi_endproc
 528              	.LFE5:
 529              		.size	Display0_Stop, .-Display0_Stop
 530              		.section	.text.Display0_EnableInt,"ax",%progbits
 531              		.align	2
 532              		.global	Display0_EnableInt
 533              		.thumb
 534              		.thumb_func
 535              		.type	Display0_EnableInt, %function
 536              	Display0_EnableInt:
 537              	.LFB6:
 910:Generated_Source\PSoC5/Display0.c ****     /* Enable every sub-frame interrupt */
 538              		.loc 1 910 0
 539              		.cfi_startproc
 540              		@ args = 0, pretend = 0, frame = 0
 541              		@ frame_needed = 0, uses_anonymous_args = 0
 542              		@ link register save eliminated.
 912:Generated_Source\PSoC5/Display0.c ****     
 543              		.loc 1 912 0
 544 0000 024B     		ldr	r3, .L46
 545 0002 0122     		movs	r2, #1
 546 0004 1A60     		str	r2, [r3]
 917:Generated_Source\PSoC5/Display0.c ****     
 547              		.loc 1 917 0
ARM GAS  C:\Users\ESTEBAN\AppData\Local\Temp\ccuG9BOe.s 			page 38


 548 0006 0222     		movs	r2, #2
 549 0008 1A60     		str	r2, [r3]
 550 000a 7047     		bx	lr
 551              	.L47:
 552              		.align	2
 553              	.L46:
 554 000c 00E100E0 		.word	-536813312
 555              		.cfi_endproc
 556              	.LFE6:
 557              		.size	Display0_EnableInt, .-Display0_EnableInt
 558              		.section	.text.Display0_DisableInt,"ax",%progbits
 559              		.align	2
 560              		.global	Display0_DisableInt
 561              		.thumb
 562              		.thumb_func
 563              		.type	Display0_DisableInt, %function
 564              	Display0_DisableInt:
 565              	.LFB7:
 938:Generated_Source\PSoC5/Display0.c ****     /* Disable every sub-frame interrupt */
 566              		.loc 1 938 0
 567              		.cfi_startproc
 568              		@ args = 0, pretend = 0, frame = 0
 569              		@ frame_needed = 0, uses_anonymous_args = 0
 570              		@ link register save eliminated.
 940:Generated_Source\PSoC5/Display0.c ****     
 571              		.loc 1 940 0
 572 0000 024B     		ldr	r3, .L49
 573 0002 0122     		movs	r2, #1
 574 0004 1A60     		str	r2, [r3]
 945:Generated_Source\PSoC5/Display0.c ****     
 575              		.loc 1 945 0
 576 0006 0222     		movs	r2, #2
 577 0008 1A60     		str	r2, [r3]
 578 000a 7047     		bx	lr
 579              	.L50:
 580              		.align	2
 581              	.L49:
 582 000c 80E100E0 		.word	-536813184
 583              		.cfi_endproc
 584              	.LFE7:
 585              		.size	Display0_DisableInt, .-Display0_DisableInt
 586              		.section	.text.Display0_SetBias,"ax",%progbits
 587              		.align	2
 588              		.global	Display0_SetBias
 589              		.thumb
 590              		.thumb_func
 591              		.type	Display0_SetBias, %function
 592              	Display0_SetBias:
 593              	.LFB8:
 971:Generated_Source\PSoC5/Display0.c ****     uint8 status;
 594              		.loc 1 971 0
 595              		.cfi_startproc
 596              		@ args = 0, pretend = 0, frame = 0
 597              		@ frame_needed = 0, uses_anonymous_args = 0
 598              		@ link register save eliminated.
 599              	.LVL66:
 974:Generated_Source\PSoC5/Display0.c ****     {
ARM GAS  C:\Users\ESTEBAN\AppData\Local\Temp\ccuG9BOe.s 			page 39


 600              		.loc 1 974 0
 601 0000 3F28     		cmp	r0, #63
 602 0002 03D8     		bhi	.L53
 976:Generated_Source\PSoC5/Display0.c ****         status = CYRET_SUCCESS;
 603              		.loc 1 976 0
 604 0004 024B     		ldr	r3, .L54
 605 0006 1870     		strb	r0, [r3]
 606              	.LVL67:
 977:Generated_Source\PSoC5/Display0.c ****     }
 607              		.loc 1 977 0
 608 0008 0020     		movs	r0, #0
 609              	.LVL68:
 610 000a 7047     		bx	lr
 611              	.LVL69:
 612              	.L53:
 981:Generated_Source\PSoC5/Display0.c ****     }
 613              		.loc 1 981 0
 614 000c 0120     		movs	r0, #1
 615              	.LVL70:
 985:Generated_Source\PSoC5/Display0.c **** 
 616              		.loc 1 985 0
 617 000e 7047     		bx	lr
 618              	.L55:
 619              		.align	2
 620              	.L54:
 621 0010 69580040 		.word	1073764457
 622              		.cfi_endproc
 623              	.LFE8:
 624              		.size	Display0_SetBias, .-Display0_SetBias
 625              		.section	.text.Display0_ReadInvertState,"ax",%progbits
 626              		.align	2
 627              		.global	Display0_ReadInvertState
 628              		.thumb
 629              		.thumb_func
 630              		.type	Display0_ReadInvertState, %function
 631              	Display0_ReadInvertState:
 632              	.LFB10:
1109:Generated_Source\PSoC5/Display0.c ****     /* Get only invert bit of Driver Control Register */
 633              		.loc 1 1109 0
 634              		.cfi_startproc
 635              		@ args = 0, pretend = 0, frame = 0
 636              		@ frame_needed = 0, uses_anonymous_args = 0
 637              		@ link register save eliminated.
1111:Generated_Source\PSoC5/Display0.c **** }
 638              		.loc 1 1111 0
 639 0000 024B     		ldr	r3, .L57
 640 0002 1878     		ldrb	r0, [r3]	@ zero_extendqisi2
1112:Generated_Source\PSoC5/Display0.c **** 
 641              		.loc 1 1112 0
 642 0004 C0F38000 		ubfx	r0, r0, #2, #1
 643 0008 7047     		bx	lr
 644              	.L58:
 645 000a 00BF     		.align	2
 646              	.L57:
 647 000c 6A580040 		.word	1073764458
 648              		.cfi_endproc
 649              	.LFE10:
ARM GAS  C:\Users\ESTEBAN\AppData\Local\Temp\ccuG9BOe.s 			page 40


 650              		.size	Display0_ReadInvertState, .-Display0_ReadInvertState
 651              		.section	.text.Display0_ReadPixel,"ax",%progbits
 652              		.align	2
 653              		.global	Display0_ReadPixel
 654              		.thumb
 655              		.thumb_func
 656              		.type	Display0_ReadPixel, %function
 657              	Display0_ReadPixel:
 658              	.LFB13:
1277:Generated_Source\PSoC5/Display0.c ****     uint8 pixelState;
 659              		.loc 1 1277 0
 660              		.cfi_startproc
 661              		@ args = 0, pretend = 0, frame = 0
 662              		@ frame_needed = 0, uses_anonymous_args = 0
 663              		@ link register save eliminated.
 664              	.LVL71:
1283:Generated_Source\PSoC5/Display0.c ****     {
 665              		.loc 1 1283 0
 666 0000 4FF6FF73 		movw	r3, #65535
 667 0004 9842     		cmp	r0, r3
 668 0006 0FD0     		beq	.L61
1288:Generated_Source\PSoC5/Display0.c ****         port = Display0_EXTRACT_PORT(pixelNumber);
 669              		.loc 1 1288 0
 670 0008 C0F30322 		ubfx	r2, r0, #8, #4
 671              	.LVL72:
1289:Generated_Source\PSoC5/Display0.c ****         pin = Display0_EXTRACT_PIN(pixelNumber);
 672              		.loc 1 1289 0
 673 000c C0F30313 		ubfx	r3, r0, #4, #4
 674              	.LVL73:
1290:Generated_Source\PSoC5/Display0.c **** 
 675              		.loc 1 1290 0
 676 0010 00F00700 		and	r0, r0, #7
 677              	.LVL74:
1292:Generated_Source\PSoC5/Display0.c ****                     Display0_PIXEL_STATE_ON);
 678              		.loc 1 1292 0
 679 0014 03EB0213 		add	r3, r3, r2, lsl #4
 680              	.LVL75:
 681 0018 044A     		ldr	r2, .L62
 682              	.LVL76:
 683 001a 1344     		add	r3, r3, r2
 684 001c 1B7A     		ldrb	r3, [r3, #8]	@ zero_extendqisi2
 685 001e 43FA00F0 		asr	r0, r3, r0
 686              	.LVL77:
 687 0022 00F00100 		and	r0, r0, #1
 688              	.LVL78:
 689 0026 7047     		bx	lr
 690              	.LVL79:
 691              	.L61:
1297:Generated_Source\PSoC5/Display0.c ****     }
 692              		.loc 1 1297 0
 693 0028 FF20     		movs	r0, #255
 694              	.LVL80:
1301:Generated_Source\PSoC5/Display0.c **** 
 695              		.loc 1 1301 0
 696 002a 7047     		bx	lr
 697              	.L63:
 698              		.align	2
ARM GAS  C:\Users\ESTEBAN\AppData\Local\Temp\ccuG9BOe.s 			page 41


 699              	.L62:
 700 002c 00000000 		.word	.LANCHOR1
 701              		.cfi_endproc
 702              	.LFE13:
 703              		.size	Display0_ReadPixel, .-Display0_ReadPixel
 704              		.section	.text.Display0_WritePixel,"ax",%progbits
 705              		.align	2
 706              		.global	Display0_WritePixel
 707              		.thumb
 708              		.thumb_func
 709              		.type	Display0_WritePixel, %function
 710              	Display0_WritePixel:
 711              	.LFB12:
1206:Generated_Source\PSoC5/Display0.c ****     uint8 mask;
 712              		.loc 1 1206 0
 713              		.cfi_startproc
 714              		@ args = 0, pretend = 0, frame = 0
 715              		@ frame_needed = 0, uses_anonymous_args = 0
 716              	.LVL81:
 717 0000 10B5     		push	{r4, lr}
 718              		.cfi_def_cfa_offset 8
 719              		.cfi_offset 4, -8
 720              		.cfi_offset 14, -4
 721 0002 0446     		mov	r4, r0
1213:Generated_Source\PSoC5/Display0.c ****     {
 722              		.loc 1 1213 0
 723 0004 4FF6FF73 		movw	r3, #65535
 724 0008 9842     		cmp	r0, r3
 725 000a 01D1     		bne	.L65
1213:Generated_Source\PSoC5/Display0.c ****     {
 726              		.loc 1 1213 0 is_stmt 0 discriminator 1
 727 000c 0229     		cmp	r1, #2
 728 000e 1CD8     		bhi	.L68
 729              	.L65:
1215:Generated_Source\PSoC5/Display0.c ****         {
 730              		.loc 1 1215 0 is_stmt 1
 731 0010 0229     		cmp	r1, #2
 732 0012 04D1     		bne	.L67
1218:Generated_Source\PSoC5/Display0.c ****             pixelState = ~pixelState;
 733              		.loc 1 1218 0
 734 0014 2046     		mov	r0, r4
 735              	.LVL82:
 736 0016 FFF7FEFF 		bl	Display0_ReadPixel
 737              	.LVL83:
1219:Generated_Source\PSoC5/Display0.c ****         }
 738              		.loc 1 1219 0
 739 001a C043     		mvns	r0, r0
 740              	.LVL84:
 741 001c C1B2     		uxtb	r1, r0
 742              	.LVL85:
 743              	.L67:
1225:Generated_Source\PSoC5/Display0.c ****         port = Display0_EXTRACT_PORT(pixelNumber);
 744              		.loc 1 1225 0
 745 001e C4F30320 		ubfx	r0, r4, #8, #4
 746              	.LVL86:
1226:Generated_Source\PSoC5/Display0.c ****         pin = Display0_EXTRACT_PIN(pixelNumber);
 747              		.loc 1 1226 0
ARM GAS  C:\Users\ESTEBAN\AppData\Local\Temp\ccuG9BOe.s 			page 42


 748 0022 C4F30313 		ubfx	r3, r4, #4, #4
 749              	.LVL87:
1227:Generated_Source\PSoC5/Display0.c **** 
 750              		.loc 1 1227 0
 751 0026 04F00704 		and	r4, r4, #7
 752              	.LVL88:
1230:Generated_Source\PSoC5/Display0.c **** 
 753              		.loc 1 1230 0
 754 002a 0122     		movs	r2, #1
 755 002c A240     		lsls	r2, r2, r4
 756 002e D2B2     		uxtb	r2, r2
 757              	.LVL89:
1234:Generated_Source\PSoC5/Display0.c ****                 ((uint8)(((uint8) pixelState) << pin));
 758              		.loc 1 1234 0
 759 0030 03EB0013 		add	r3, r3, r0, lsl #4
 760              	.LVL90:
 761 0034 0648     		ldr	r0, .L70
 762              	.LVL91:
 763 0036 0344     		add	r3, r3, r0
 764 0038 187A     		ldrb	r0, [r3, #8]	@ zero_extendqisi2
1235:Generated_Source\PSoC5/Display0.c **** 
 765              		.loc 1 1235 0
 766 003a 01FA04F4 		lsl	r4, r1, r4
 767              	.LVL92:
1233:Generated_Source\PSoC5/Display0.c ****             (Display0_buffer[(row * Display0_MAX_BUFF_ROWS) + port] & mask) | 
 768              		.loc 1 1233 0
 769 003e 20EA0202 		bic	r2, r0, r2
 770              	.LVL93:
 771 0042 1443     		orrs	r4, r4, r2
 772 0044 1C72     		strb	r4, [r3, #8]
 773              	.LVL94:
1237:Generated_Source\PSoC5/Display0.c ****     }
 774              		.loc 1 1237 0
 775 0046 0020     		movs	r0, #0
 776 0048 10BD     		pop	{r4, pc}
 777              	.LVL95:
 778              	.L68:
1242:Generated_Source\PSoC5/Display0.c ****     }
 779              		.loc 1 1242 0
 780 004a 0120     		movs	r0, #1
 781              	.LVL96:
1246:Generated_Source\PSoC5/Display0.c **** 
 782              		.loc 1 1246 0
 783 004c 10BD     		pop	{r4, pc}
 784              	.L71:
 785 004e 00BF     		.align	2
 786              	.L70:
 787 0050 00000000 		.word	.LANCHOR1
 788              		.cfi_endproc
 789              	.LFE12:
 790              		.size	Display0_WritePixel, .-Display0_WritePixel
 791              		.section	.text.Display0_WriteInvertState,"ax",%progbits
 792              		.align	2
 793              		.global	Display0_WriteInvertState
 794              		.thumb
 795              		.thumb_func
 796              		.type	Display0_WriteInvertState, %function
ARM GAS  C:\Users\ESTEBAN\AppData\Local\Temp\ccuG9BOe.s 			page 43


 797              	Display0_WriteInvertState:
 798              	.LFB9:
1014:Generated_Source\PSoC5/Display0.c ****     uint8 status;
 799              		.loc 1 1014 0
 800              		.cfi_startproc
 801              		@ args = 0, pretend = 0, frame = 0
 802              		@ frame_needed = 0, uses_anonymous_args = 0
 803              	.LVL97:
1024:Generated_Source\PSoC5/Display0.c ****     {
 804              		.loc 1 1024 0
 805 0000 0128     		cmp	r0, #1
 806 0002 3AD8     		bhi	.L81
1014:Generated_Source\PSoC5/Display0.c ****     uint8 status;
 807              		.loc 1 1014 0
 808 0004 2DE9F041 		push	{r4, r5, r6, r7, r8, lr}
 809              		.cfi_def_cfa_offset 24
 810              		.cfi_offset 4, -24
 811              		.cfi_offset 5, -20
 812              		.cfi_offset 6, -16
 813              		.cfi_offset 7, -12
 814              		.cfi_offset 8, -8
 815              		.cfi_offset 14, -4
1026:Generated_Source\PSoC5/Display0.c ****         {
 816              		.loc 1 1026 0
 817 0008 08B9     		cbnz	r0, .L82
1028:Generated_Source\PSoC5/Display0.c ****         }
 818              		.loc 1 1028 0
 819 000a 0027     		movs	r7, #0
 820 000c 00E0     		b	.L74
 821              	.L82:
1032:Generated_Source\PSoC5/Display0.c ****         }
 822              		.loc 1 1032 0
 823 000e 0127     		movs	r7, #1
 824              	.L74:
 825 0010 0646     		mov	r6, r0
 826              	.LVL98:
1058:Generated_Source\PSoC5/Display0.c ****         {
 827              		.loc 1 1058 0
 828 0012 4FF00008 		mov	r8, #0
 829 0016 15E0     		b	.L75
 830              	.LVL99:
 831              	.L78:
1060:Generated_Source\PSoC5/Display0.c **** 
 832              		.loc 1 1060 0
 833 0018 194B     		ldr	r3, .L85
 834 001a 33F81840 		ldrh	r4, [r3, r8, lsl #1]
 835              	.LVL100:
1062:Generated_Source\PSoC5/Display0.c ****             {
 836              		.loc 1 1062 0
 837 001e 0025     		movs	r5, #0
 838 0020 0AE0     		b	.L76
 839              	.LVL101:
 840              	.L77:
1064:Generated_Source\PSoC5/Display0.c ****                                (((uint16) j) << Display0_ROW_SHIFT);
 841              		.loc 1 1064 0 discriminator 3
 842 0022 24F47064 		bic	r4, r4, #3840
 843              	.LVL102:
ARM GAS  C:\Users\ESTEBAN\AppData\Local\Temp\ccuG9BOe.s 			page 44


 844 0026 44EA0524 		orr	r4, r4, r5, lsl #8
 845 002a A4B2     		uxth	r4, r4
 846              	.LVL103:
1067:Generated_Source\PSoC5/Display0.c ****             }
 847              		.loc 1 1067 0 discriminator 3
 848 002c 3946     		mov	r1, r7
 849 002e 2046     		mov	r0, r4
 850 0030 FFF7FEFF 		bl	Display0_WritePixel
 851              	.LVL104:
1062:Generated_Source\PSoC5/Display0.c ****             {
 852              		.loc 1 1062 0 discriminator 3
 853 0034 0135     		adds	r5, r5, #1
 854              	.LVL105:
 855 0036 ADB2     		uxth	r5, r5
 856              	.LVL106:
 857              	.L76:
1062:Generated_Source\PSoC5/Display0.c ****             {
 858              		.loc 1 1062 0 is_stmt 0 discriminator 1
 859 0038 012D     		cmp	r5, #1
 860 003a F2D9     		bls	.L77
1058:Generated_Source\PSoC5/Display0.c ****         {
 861              		.loc 1 1058 0 is_stmt 1 discriminator 2
 862 003c 08F10108 		add	r8, r8, #1
 863              	.LVL107:
 864 0040 5FFA88F8 		uxtb	r8, r8
 865              	.LVL108:
 866              	.L75:
1058:Generated_Source\PSoC5/Display0.c ****         {
 867              		.loc 1 1058 0 is_stmt 0 discriminator 1
 868 0044 B8F1010F 		cmp	r8, #1
 869 0048 E6D9     		bls	.L78
 870 004a 0024     		movs	r4, #0
 871 004c 08E0     		b	.L79
 872              	.LVL109:
 873              	.L80:
1074:Generated_Source\PSoC5/Display0.c ****                                         (((uint8)~pixelState) & ((uint8)Display0_STATE_MASK)));
 874              		.loc 1 1074 0 is_stmt 1 discriminator 3
 875 004e 87F00101 		eor	r1, r7, #1
 876 0052 0B4B     		ldr	r3, .L85
 877 0054 33F81400 		ldrh	r0, [r3, r4, lsl #1]
 878 0058 FFF7FEFF 		bl	Display0_WritePixel
 879              	.LVL110:
1072:Generated_Source\PSoC5/Display0.c ****         {
 880              		.loc 1 1072 0 discriminator 3
 881 005c 0134     		adds	r4, r4, #1
 882              	.LVL111:
 883 005e E4B2     		uxtb	r4, r4
 884              	.LVL112:
 885              	.L79:
1072:Generated_Source\PSoC5/Display0.c ****         {
 886              		.loc 1 1072 0 is_stmt 0 discriminator 1
 887 0060 012C     		cmp	r4, #1
 888 0062 F4D9     		bls	.L80
1078:Generated_Source\PSoC5/Display0.c ****                                               ((uint8)Display0_STATE_MASK)) | 
 889              		.loc 1 1078 0 is_stmt 1
 890 0064 074A     		ldr	r2, .L85+4
 891 0066 1378     		ldrb	r3, [r2]	@ zero_extendqisi2
ARM GAS  C:\Users\ESTEBAN\AppData\Local\Temp\ccuG9BOe.s 			page 45


1080:Generated_Source\PSoC5/Display0.c **** 
 892              		.loc 1 1080 0
 893 0068 B600     		lsls	r6, r6, #2
 894 006a F0B2     		uxtb	r0, r6
1078:Generated_Source\PSoC5/Display0.c ****                                               ((uint8)Display0_STATE_MASK)) | 
 895              		.loc 1 1078 0
 896 006c 03F00106 		and	r6, r3, #1
 897 0070 0643     		orrs	r6, r6, r0
 898 0072 1670     		strb	r6, [r2]
 899              	.LVL113:
1082:Generated_Source\PSoC5/Display0.c ****     }
 900              		.loc 1 1082 0
 901 0074 0020     		movs	r0, #0
 902 0076 BDE8F081 		pop	{r4, r5, r6, r7, r8, pc}
 903              	.LVL114:
 904              	.L81:
 905              		.cfi_def_cfa_offset 0
 906              		.cfi_restore 4
 907              		.cfi_restore 5
 908              		.cfi_restore 6
 909              		.cfi_restore 7
 910              		.cfi_restore 8
 911              		.cfi_restore 14
1086:Generated_Source\PSoC5/Display0.c ****     }
 912              		.loc 1 1086 0
 913 007a 0120     		movs	r0, #1
 914              	.LVL115:
 915 007c 7047     		bx	lr
 916              	.L86:
 917 007e 00BF     		.align	2
 918              	.L85:
 919 0080 00000000 		.word	.LANCHOR2
 920 0084 6A580040 		.word	1073764458
 921              		.cfi_endproc
 922              	.LFE9:
 923              		.size	Display0_WriteInvertState, .-Display0_WriteInvertState
 924              		.section	.text.Display0_ClearDisplay,"ax",%progbits
 925              		.align	2
 926              		.global	Display0_ClearDisplay
 927              		.thumb
 928              		.thumb_func
 929              		.type	Display0_ClearDisplay, %function
 930              	Display0_ClearDisplay:
 931              	.LFB11:
1140:Generated_Source\PSoC5/Display0.c ****     uint16 i;
 932              		.loc 1 1140 0
 933              		.cfi_startproc
 934              		@ args = 0, pretend = 0, frame = 0
 935              		@ frame_needed = 0, uses_anonymous_args = 0
 936              	.LVL116:
1145:Generated_Source\PSoC5/Display0.c ****     {
 937              		.loc 1 1145 0
 938 0000 0023     		movs	r3, #0
 939 0002 05E0     		b	.L88
 940              	.LVL117:
 941              	.L89:
1147:Generated_Source\PSoC5/Display0.c ****     }
ARM GAS  C:\Users\ESTEBAN\AppData\Local\Temp\ccuG9BOe.s 			page 46


 942              		.loc 1 1147 0 discriminator 3
 943 0004 0E4A     		ldr	r2, .L94
 944 0006 1A44     		add	r2, r2, r3
 945 0008 0021     		movs	r1, #0
 946 000a 1172     		strb	r1, [r2, #8]
1145:Generated_Source\PSoC5/Display0.c ****     {
 947              		.loc 1 1145 0 discriminator 3
 948 000c 0133     		adds	r3, r3, #1
 949              	.LVL118:
 950 000e 9BB2     		uxth	r3, r3
 951              	.LVL119:
 952              	.L88:
1145:Generated_Source\PSoC5/Display0.c ****     {
 953              		.loc 1 1145 0 is_stmt 0 discriminator 1
 954 0010 1F2B     		cmp	r3, #31
 955 0012 F7D9     		bls	.L89
1140:Generated_Source\PSoC5/Display0.c ****     uint16 i;
 956              		.loc 1 1140 0 is_stmt 1
 957 0014 10B5     		push	{r4, lr}
 958              		.cfi_def_cfa_offset 8
 959              		.cfi_offset 4, -8
 960              		.cfi_offset 14, -4
 961 0016 0024     		movs	r4, #0
 962 0018 07E0     		b	.L90
 963              	.LVL120:
 964              	.L91:
1157:Generated_Source\PSoC5/Display0.c ****     }
 965              		.loc 1 1157 0 discriminator 3
 966 001a 0121     		movs	r1, #1
 967 001c 094B     		ldr	r3, .L94+4
 968 001e 33F81400 		ldrh	r0, [r3, r4, lsl #1]
 969 0022 FFF7FEFF 		bl	Display0_WritePixel
 970              	.LVL121:
1151:Generated_Source\PSoC5/Display0.c ****     {
 971              		.loc 1 1151 0 discriminator 3
 972 0026 0134     		adds	r4, r4, #1
 973              	.LVL122:
 974 0028 A4B2     		uxth	r4, r4
 975              	.LVL123:
 976              	.L90:
1151:Generated_Source\PSoC5/Display0.c ****     {
 977              		.loc 1 1151 0 is_stmt 0 discriminator 1
 978 002a 012C     		cmp	r4, #1
 979 002c F5D9     		bls	.L91
1161:Generated_Source\PSoC5/Display0.c ****                 Display0_INVERT_SHIFT);
 980              		.loc 1 1161 0 is_stmt 1
 981 002e 064B     		ldr	r3, .L94+8
 982 0030 1878     		ldrb	r0, [r3]	@ zero_extendqisi2
 983 0032 8008     		lsrs	r0, r0, #2
 984              	.LVL124:
1168:Generated_Source\PSoC5/Display0.c ****     {
 985              		.loc 1 1168 0
 986 0034 0128     		cmp	r0, #1
 987 0036 01D1     		bne	.L87
1170:Generated_Source\PSoC5/Display0.c ****     }
 988              		.loc 1 1170 0
 989 0038 FFF7FEFF 		bl	Display0_WriteInvertState
ARM GAS  C:\Users\ESTEBAN\AppData\Local\Temp\ccuG9BOe.s 			page 47


 990              	.LVL125:
 991              	.L87:
 992 003c 10BD     		pop	{r4, pc}
 993              	.LVL126:
 994              	.L95:
 995 003e 00BF     		.align	2
 996              	.L94:
 997 0040 00000000 		.word	.LANCHOR1
 998 0044 00000000 		.word	.LANCHOR2
 999 0048 6A580040 		.word	1073764458
 1000              		.cfi_endproc
 1001              	.LFE11:
 1002              		.size	Display0_ClearDisplay, .-Display0_ClearDisplay
 1003              		.section	.text.Display0_Init,"ax",%progbits
 1004              		.align	2
 1005              		.global	Display0_Init
 1006              		.thumb
 1007              		.thumb_func
 1008              		.type	Display0_Init, %function
 1009              	Display0_Init:
 1010              	.LFB0:
 298:Generated_Source\PSoC5/Display0.c ****     /* LCD Timer configuration */
 1011              		.loc 1 298 0
 1012              		.cfi_startproc
 1013              		@ args = 0, pretend = 0, frame = 0
 1014              		@ frame_needed = 0, uses_anonymous_args = 0
 1015 0000 38B5     		push	{r3, r4, r5, lr}
 1016              		.cfi_def_cfa_offset 16
 1017              		.cfi_offset 3, -16
 1018              		.cfi_offset 4, -12
 1019              		.cfi_offset 5, -8
 1020              		.cfi_offset 14, -4
 323:Generated_Source\PSoC5/Display0.c **** 
 1021              		.loc 1 323 0
 1022 0002 FFF7FEFF 		bl	Display0_ClearDisplay
 1023              	.LVL127:
 326:Generated_Source\PSoC5/Display0.c ****     Display0_LCDDAC_SWITCH_REG1_REG = Display0_LCDDAC_VOLTAGE_SEL;
 1024              		.loc 1 326 0
 1025 0006 0124     		movs	r4, #1
 1026 0008 184B     		ldr	r3, .L98
 1027 000a 1C70     		strb	r4, [r3]
 327:Generated_Source\PSoC5/Display0.c ****     Display0_LCDDAC_SWITCH_REG2_REG = Display0_LCDDAC_VOLTAGE_SEL;
 1028              		.loc 1 327 0
 1029 000c 0133     		adds	r3, r3, #1
 1030 000e 1C70     		strb	r4, [r3]
 328:Generated_Source\PSoC5/Display0.c ****     Display0_LCDDAC_SWITCH_REG3_REG = Display0_LCDDAC_VOLTAGE_SEL;
 1031              		.loc 1 328 0
 1032 0010 0133     		adds	r3, r3, #1
 1033 0012 1C70     		strb	r4, [r3]
 329:Generated_Source\PSoC5/Display0.c ****     Display0_LCDDAC_SWITCH_REG4_REG = Display0_LCDDAC_VOLTAGE_SEL;
 1034              		.loc 1 329 0
 1035 0014 0133     		adds	r3, r3, #1
 1036 0016 1C70     		strb	r4, [r3]
 330:Generated_Source\PSoC5/Display0.c **** 
 1037              		.loc 1 330 0
 1038 0018 0133     		adds	r3, r3, #1
 1039 001a 1C70     		strb	r4, [r3]
ARM GAS  C:\Users\ESTEBAN\AppData\Local\Temp\ccuG9BOe.s 			page 48


 333:Generated_Source\PSoC5/Display0.c ****         | Display0_BIAS_TYPE;
 1040              		.loc 1 333 0
 1041 001c 144A     		ldr	r2, .L98+4
 1042 001e 1378     		ldrb	r3, [r2]	@ zero_extendqisi2
 1043 0020 03F00203 		and	r3, r3, #2
 1044 0024 2343     		orrs	r3, r3, r4
 1045 0026 DBB2     		uxtb	r3, r3
 1046 0028 1370     		strb	r3, [r2]
 337:Generated_Source\PSoC5/Display0.c **** 
 1047              		.loc 1 337 0
 1048 002a 3120     		movs	r0, #49
 1049 002c FFF7FEFF 		bl	Display0_SetBias
 1050              	.LVL128:
 340:Generated_Source\PSoC5/Display0.c ****                                 Display0_LCDDRV_MODE0_SHIFT)) & ((uint8) Display0_LCDDRV_MODE0_MASK
 1051              		.loc 1 340 0
 1052 0030 104A     		ldr	r2, .L98+8
 1053 0032 1378     		ldrb	r3, [r2]	@ zero_extendqisi2
 1054 0034 DBB2     		uxtb	r3, r3
 1055 0036 1370     		strb	r3, [r2]
 344:Generated_Source\PSoC5/Display0.c ****                                      (uint8) Display0_CNTL_MODE_MASK);
 1056              		.loc 1 344 0
 1057 0038 F921     		movs	r1, #249
 1058 003a 0220     		movs	r0, #2
 1059 003c FFF7FEFF 		bl	Display0_WriteControlReg
 1060              	.LVL129:
 348:Generated_Source\PSoC5/Display0.c **** 
 1061              		.loc 1 348 0
 1062 0040 0D4D     		ldr	r5, .L98+12
 1063 0042 2C60     		str	r4, [r5]
 351:Generated_Source\PSoC5/Display0.c **** 
 1064              		.loc 1 351 0
 1065 0044 0D49     		ldr	r1, .L98+16
 1066 0046 0020     		movs	r0, #0
 1067 0048 FFF7FEFF 		bl	CyIntSetVector
 1068              	.LVL130:
 354:Generated_Source\PSoC5/Display0.c ****      
 1069              		.loc 1 354 0
 1070 004c 0721     		movs	r1, #7
 1071 004e 0020     		movs	r0, #0
 1072 0050 FFF7FEFF 		bl	CyIntSetPriority
 1073              	.LVL131:
 359:Generated_Source\PSoC5/Display0.c **** 
 1074              		.loc 1 359 0
 1075 0054 0223     		movs	r3, #2
 1076 0056 2B60     		str	r3, [r5]
 362:Generated_Source\PSoC5/Display0.c **** 
 1077              		.loc 1 362 0
 1078 0058 0949     		ldr	r1, .L98+20
 1079 005a 2046     		mov	r0, r4
 1080 005c FFF7FEFF 		bl	CyIntSetVector
 1081              	.LVL132:
 365:Generated_Source\PSoC5/Display0.c ****     
 1082              		.loc 1 365 0
 1083 0060 0721     		movs	r1, #7
 1084 0062 2046     		mov	r0, r4
 1085 0064 FFF7FEFF 		bl	CyIntSetPriority
 1086              	.LVL133:
ARM GAS  C:\Users\ESTEBAN\AppData\Local\Temp\ccuG9BOe.s 			page 49


 1087 0068 38BD     		pop	{r3, r4, r5, pc}
 1088              	.L99:
 1089 006a 00BF     		.align	2
 1090              	.L98:
 1091 006c 505B0040 		.word	1073765200
 1092 0070 68580040 		.word	1073764456
 1093 0074 6A580040 		.word	1073764458
 1094 0078 80E100E0 		.word	-536813184
 1095 007c 00000000 		.word	Display0_ISR
 1096 0080 00000000 		.word	Display0_WAKEUP_ISR
 1097              		.cfi_endproc
 1098              	.LFE0:
 1099              		.size	Display0_Init, .-Display0_Init
 1100              		.section	.text.Display0_Start,"ax",%progbits
 1101              		.align	2
 1102              		.global	Display0_Start
 1103              		.thumb
 1104              		.thumb_func
 1105              		.type	Display0_Start, %function
 1106              	Display0_Start:
 1107              	.LFB4:
 816:Generated_Source\PSoC5/Display0.c ****     uint8 status;
 1108              		.loc 1 816 0
 1109              		.cfi_startproc
 1110              		@ args = 0, pretend = 0, frame = 0
 1111              		@ frame_needed = 0, uses_anonymous_args = 0
 1112 0000 08B5     		push	{r3, lr}
 1113              		.cfi_def_cfa_offset 8
 1114              		.cfi_offset 3, -8
 1115              		.cfi_offset 14, -4
 820:Generated_Source\PSoC5/Display0.c ****     {
 1116              		.loc 1 820 0
 1117 0002 064B     		ldr	r3, .L103
 1118 0004 93F82E30 		ldrb	r3, [r3, #46]	@ zero_extendqisi2
 1119 0008 2BB9     		cbnz	r3, .L101
 822:Generated_Source\PSoC5/Display0.c ****         Display0_Init();
 1120              		.loc 1 822 0
 1121 000a 0122     		movs	r2, #1
 1122 000c 034B     		ldr	r3, .L103
 1123 000e 83F82E20 		strb	r2, [r3, #46]
 823:Generated_Source\PSoC5/Display0.c ****     }
 1124              		.loc 1 823 0
 1125 0012 FFF7FEFF 		bl	Display0_Init
 1126              	.LVL134:
 1127              	.L101:
 826:Generated_Source\PSoC5/Display0.c **** 
 1128              		.loc 1 826 0
 1129 0016 FFF7FEFF 		bl	Display0_Enable
 1130              	.LVL135:
 829:Generated_Source\PSoC5/Display0.c **** 
 1131              		.loc 1 829 0
 1132 001a 08BD     		pop	{r3, pc}
 1133              	.L104:
 1134              		.align	2
 1135              	.L103:
 1136 001c 00000000 		.word	.LANCHOR1
 1137              		.cfi_endproc
ARM GAS  C:\Users\ESTEBAN\AppData\Local\Temp\ccuG9BOe.s 			page 50


 1138              	.LFE4:
 1139              		.size	Display0_Start, .-Display0_Start
 1140              		.section	.text.Display0_Write7SegDigit_0,"ax",%progbits
 1141              		.align	2
 1142              		.global	Display0_Write7SegDigit_0
 1143              		.thumb
 1144              		.thumb_func
 1145              		.type	Display0_Write7SegDigit_0, %function
 1146              	Display0_Write7SegDigit_0:
 1147              	.LFB14:
1340:Generated_Source\PSoC5/Display0.c ****     static const uint16 CYCODE Display0_disp0[2u][7u] = {{Display0_H7SEG0_A, Display0_H7SEG0_B, Dis
 1148              		.loc 1 1340 0
 1149              		.cfi_startproc
 1150              		@ args = 0, pretend = 0, frame = 0
 1151              		@ frame_needed = 0, uses_anonymous_args = 0
 1152              	.LVL136:
 1153 0000 70B5     		push	{r4, r5, r6, lr}
 1154              		.cfi_def_cfa_offset 16
 1155              		.cfi_offset 4, -16
 1156              		.cfi_offset 5, -12
 1157              		.cfi_offset 6, -8
 1158              		.cfi_offset 14, -4
 1159 0002 0646     		mov	r6, r0
1347:Generated_Source\PSoC5/Display0.c ****     {
 1160              		.loc 1 1347 0
 1161 0004 1028     		cmp	r0, #16
 1162 0006 0CD9     		bls	.L106
1352:Generated_Source\PSoC5/Display0.c ****     {
 1163              		.loc 1 1352 0
 1164 0008 3928     		cmp	r0, #57
 1165 000a 03D8     		bhi	.L107
1354:Generated_Source\PSoC5/Display0.c ****     }
 1166              		.loc 1 1354 0
 1167 000c A0F13006 		sub	r6, r0, #48
 1168 0010 F6B2     		uxtb	r6, r6
 1169              	.LVL137:
 1170 0012 06E0     		b	.L106
 1171              	.LVL138:
 1172              	.L107:
1357:Generated_Source\PSoC5/Display0.c ****     {
 1173              		.loc 1 1357 0
 1174 0014 4728     		cmp	r0, #71
 1175 0016 03D8     		bhi	.L111
1359:Generated_Source\PSoC5/Display0.c ****     }
 1176              		.loc 1 1359 0
 1177 0018 A0F13706 		sub	r6, r0, #55
 1178 001c F6B2     		uxtb	r6, r6
 1179              	.LVL139:
 1180 001e 00E0     		b	.L106
 1181              	.LVL140:
 1182              	.L111:
1364:Generated_Source\PSoC5/Display0.c ****     }
 1183              		.loc 1 1364 0
 1184 0020 0026     		movs	r6, #0
 1185              	.LVL141:
 1186              	.L106:
1367:Generated_Source\PSoC5/Display0.c ****     {
ARM GAS  C:\Users\ESTEBAN\AppData\Local\Temp\ccuG9BOe.s 			page 51


 1187              		.loc 1 1367 0
 1188 0022 0129     		cmp	r1, #1
 1189 0024 17D8     		bhi	.L105
1369:Generated_Source\PSoC5/Display0.c ****         for(i = 0u; i < Display0_7SEG_PIX_NUM; i++)
 1190              		.loc 1 1369 0
 1191 0026 C1F10101 		rsb	r1, r1, #1
 1192              	.LVL142:
 1193 002a CDB2     		uxtb	r5, r1
 1194              	.LVL143:
1370:Generated_Source\PSoC5/Display0.c ****         {
 1195              		.loc 1 1370 0
 1196 002c 0024     		movs	r4, #0
 1197 002e 10E0     		b	.L109
 1198              	.LVL144:
 1199              	.L110:
1373:Generated_Source\PSoC5/Display0.c ****             ((uint8)(Display0_7SegDigits[digit] >> i)) & ((uint8)Display0_PIXEL_STATE_ON));
 1200              		.loc 1 1373 0 discriminator 3
 1201 0030 094A     		ldr	r2, .L113
 1202 0032 C5EBC503 		rsb	r3, r5, r5, lsl #3
 1203 0036 2344     		add	r3, r3, r4
 1204 0038 02EB4303 		add	r3, r2, r3, lsl #1
 1205 003c 3244     		add	r2, r2, r6
 1206 003e 92F82010 		ldrb	r1, [r2, #32]	@ zero_extendqisi2
 1207 0042 2141     		asrs	r1, r1, r4
 1208 0044 01F00101 		and	r1, r1, #1
 1209 0048 9888     		ldrh	r0, [r3, #4]
 1210 004a FFF7FEFF 		bl	Display0_WritePixel
 1211              	.LVL145:
1370:Generated_Source\PSoC5/Display0.c ****         {
 1212              		.loc 1 1370 0 discriminator 3
 1213 004e 0134     		adds	r4, r4, #1
 1214              	.LVL146:
 1215 0050 E4B2     		uxtb	r4, r4
 1216              	.LVL147:
 1217              	.L109:
1370:Generated_Source\PSoC5/Display0.c ****         {
 1218              		.loc 1 1370 0 is_stmt 0 discriminator 1
 1219 0052 062C     		cmp	r4, #6
 1220 0054 ECD9     		bls	.L110
 1221              	.LVL148:
 1222              	.L105:
 1223 0056 70BD     		pop	{r4, r5, r6, pc}
 1224              	.LVL149:
 1225              	.L114:
 1226              		.align	2
 1227              	.L113:
 1228 0058 00000000 		.word	.LANCHOR2
 1229              		.cfi_endproc
 1230              	.LFE14:
 1231              		.size	Display0_Write7SegDigit_0, .-Display0_Write7SegDigit_0
 1232              		.section	.text.Display0_Write7SegNumber_0,"ax",%progbits
 1233              		.align	2
 1234              		.global	Display0_Write7SegNumber_0
 1235              		.thumb
 1236              		.thumb_func
 1237              		.type	Display0_Write7SegNumber_0, %function
 1238              	Display0_Write7SegNumber_0:
ARM GAS  C:\Users\ESTEBAN\AppData\Local\Temp\ccuG9BOe.s 			page 52


 1239              	.LFB15:
1411:Generated_Source\PSoC5/Display0.c ****     uint8 i;
 1240              		.loc 1 1411 0 is_stmt 1
 1241              		.cfi_startproc
 1242              		@ args = 0, pretend = 0, frame = 0
 1243              		@ frame_needed = 0, uses_anonymous_args = 0
 1244              	.LVL150:
 1245 0000 70B5     		push	{r4, r5, r6, lr}
 1246              		.cfi_def_cfa_offset 16
 1247              		.cfi_offset 4, -16
 1248              		.cfi_offset 5, -12
 1249              		.cfi_offset 6, -8
 1250              		.cfi_offset 14, -4
 1251 0002 0546     		mov	r5, r0
 1252 0004 1646     		mov	r6, r2
1417:Generated_Source\PSoC5/Display0.c ****     }
 1253              		.loc 1 1417 0
 1254 0006 01F00104 		and	r4, r1, #1
 1255              	.LVL151:
1421:Generated_Source\PSoC5/Display0.c ****     {
 1256              		.loc 1 1421 0
 1257 000a 18E0     		b	.L116
 1258              	.LVL152:
 1259              	.L119:
1423:Generated_Source\PSoC5/Display0.c ****         if((0u == value) && (0u == mode)) 
 1260              		.loc 1 1423 0
 1261 000c 0D4B     		ldr	r3, .L121
 1262 000e A3FB0523 		umull	r2, r3, r3, r5
 1263 0012 DB08     		lsrs	r3, r3, #3
 1264 0014 03EB8303 		add	r3, r3, r3, lsl #2
 1265 0018 5800     		lsls	r0, r3, #1
 1266 001a 281A     		subs	r0, r5, r0
 1267 001c C0B2     		uxtb	r0, r0
 1268              	.LVL153:
1424:Generated_Source\PSoC5/Display0.c ****         {
 1269              		.loc 1 1424 0
 1270 001e 2DB9     		cbnz	r5, .L117
1424:Generated_Source\PSoC5/Display0.c ****         {
 1271              		.loc 1 1424 0 is_stmt 0 discriminator 1
 1272 0020 26B9     		cbnz	r6, .L117
1427:Generated_Source\PSoC5/Display0.c ****         }
 1273              		.loc 1 1427 0 is_stmt 1
 1274 0022 2146     		mov	r1, r4
 1275 0024 1020     		movs	r0, #16
 1276              	.LVL154:
 1277 0026 FFF7FEFF 		bl	Display0_Write7SegDigit_0
 1278              	.LVL155:
 1279 002a 02E0     		b	.L118
 1280              	.LVL156:
 1281              	.L117:
1432:Generated_Source\PSoC5/Display0.c ****         }
 1282              		.loc 1 1432 0
 1283 002c 2146     		mov	r1, r4
 1284 002e FFF7FEFF 		bl	Display0_Write7SegDigit_0
 1285              	.LVL157:
 1286              	.L118:
1434:Generated_Source\PSoC5/Display0.c ****     }
ARM GAS  C:\Users\ESTEBAN\AppData\Local\Temp\ccuG9BOe.s 			page 53


 1287              		.loc 1 1434 0 discriminator 2
 1288 0032 044B     		ldr	r3, .L121
 1289              	.LVL158:
 1290 0034 A3FB0535 		umull	r3, r5, r3, r5
 1291              	.LVL159:
 1292 0038 ED08     		lsrs	r5, r5, #3
 1293              	.LVL160:
1421:Generated_Source\PSoC5/Display0.c ****     {
 1294              		.loc 1 1421 0 discriminator 2
 1295 003a 0134     		adds	r4, r4, #1
 1296              	.LVL161:
 1297 003c E4B2     		uxtb	r4, r4
 1298              	.LVL162:
 1299              	.L116:
1421:Generated_Source\PSoC5/Display0.c ****     {
 1300              		.loc 1 1421 0 is_stmt 0 discriminator 1
 1301 003e 012C     		cmp	r4, #1
 1302 0040 E4D9     		bls	.L119
1436:Generated_Source\PSoC5/Display0.c **** 
 1303              		.loc 1 1436 0 is_stmt 1
 1304 0042 70BD     		pop	{r4, r5, r6, pc}
 1305              	.LVL163:
 1306              	.L122:
 1307              		.align	2
 1308              	.L121:
 1309 0044 CDCCCCCC 		.word	-858993459
 1310              		.cfi_endproc
 1311              	.LFE15:
 1312              		.size	Display0_Write7SegNumber_0, .-Display0_Write7SegNumber_0
 1313              		.global	Display0_initVar
 1314              		.section	.rodata
 1315              		.align	2
 1316              		.set	.LANCHOR2,. + 0
 1317              		.type	Display0_commons, %object
 1318              		.size	Display0_commons, 4
 1319              	Display0_commons:
 1320 0000 0000     		.short	0
 1321 0002 1601     		.short	278
 1322              		.type	Display0_disp0.5234, %object
 1323              		.size	Display0_disp0.5234, 28
 1324              	Display0_disp0.5234:
 1325 0004 0101     		.short	257
 1326 0006 0201     		.short	258
 1327 0008 0301     		.short	259
 1328 000a 0401     		.short	260
 1329 000c 0501     		.short	261
 1330 000e 0601     		.short	262
 1331 0010 0701     		.short	263
 1332 0012 0100     		.short	1
 1333 0014 0200     		.short	2
 1334 0016 0300     		.short	3
 1335 0018 0400     		.short	4
 1336 001a 0500     		.short	5
 1337 001c 0600     		.short	6
 1338 001e 0700     		.short	7
 1339              		.type	Display0_7SegDigits, %object
 1340              		.size	Display0_7SegDigits, 17
ARM GAS  C:\Users\ESTEBAN\AppData\Local\Temp\ccuG9BOe.s 			page 54


 1341              	Display0_7SegDigits:
 1342 0020 3F       		.byte	63
 1343 0021 06       		.byte	6
 1344 0022 5B       		.byte	91
 1345 0023 4F       		.byte	79
 1346 0024 66       		.byte	102
 1347 0025 6D       		.byte	109
 1348 0026 7D       		.byte	125
 1349 0027 07       		.byte	7
 1350 0028 7F       		.byte	127
 1351 0029 6F       		.byte	111
 1352 002a 77       		.byte	119
 1353 002b 7C       		.byte	124
 1354 002c 39       		.byte	57
 1355 002d 5E       		.byte	94
 1356 002e 79       		.byte	121
 1357 002f 71       		.byte	113
 1358 0030 00       		.byte	0
 1359              		.data
 1360              		.align	2
 1361              		.set	.LANCHOR0,. + 0
 1362              		.type	Display0_frameTx, %object
 1363              		.size	Display0_frameTx, 2
 1364              	Display0_frameTx:
 1365 0000 80       		.byte	-128
 1366 0001 00       		.byte	0
 1367              		.bss
 1368              		.align	2
 1369              		.set	.LANCHOR1,. + 0
 1370              		.type	Display0_frameChannel, %object
 1371              		.size	Display0_frameChannel, 1
 1372              	Display0_frameChannel:
 1373 0000 00       		.space	1
 1374 0001 000000   		.space	3
 1375              		.type	Display0_frameTd, %object
 1376              		.size	Display0_frameTd, 2
 1377              	Display0_frameTd:
 1378 0004 0000     		.space	2
 1379 0006 0000     		.space	2
 1380              		.type	Display0_buffer, %object
 1381              		.size	Display0_buffer, 32
 1382              	Display0_buffer:
 1383 0008 00000000 		.space	32
 1383      00000000 
 1383      00000000 
 1383      00000000 
 1383      00000000 
 1384              		.type	Display0_lcdChannel, %object
 1385              		.size	Display0_lcdChannel, 1
 1386              	Display0_lcdChannel:
 1387 0028 00       		.space	1
 1388 0029 000000   		.space	3
 1389              		.type	Display0_lcdTd, %object
 1390              		.size	Display0_lcdTd, 2
 1391              	Display0_lcdTd:
 1392 002c 0000     		.space	2
 1393              		.type	Display0_initVar, %object
ARM GAS  C:\Users\ESTEBAN\AppData\Local\Temp\ccuG9BOe.s 			page 55


 1394              		.size	Display0_initVar, 1
 1395              	Display0_initVar:
 1396 002e 00       		.space	1
 1397              		.text
 1398              	.Letext0:
 1399              		.file 2 "Generated_Source\\PSoC5\\cytypes.h"
 1400              		.file 3 "Generated_Source\\PSoC5\\Display0.h"
 1401              		.file 4 "Generated_Source\\PSoC5/Display0_Frame_Dma_dma.h"
 1402              		.file 5 "Generated_Source\\PSoC5/CYDMAC.H"
 1403              		.file 6 "Generated_Source\\PSoC5/Display0_Lcd_Dma_dma.h"
 1404              		.file 7 "Generated_Source\\PSoC5\\CyLib.h"
 1405              		.file 8 "Generated_Source\\PSoC5/Display0_Int_Clock.h"
 1406              		.section	.debug_info,"",%progbits
 1407              	.Ldebug_info0:
 1408 0000 B00A0000 		.4byte	0xab0
 1409 0004 0400     		.2byte	0x4
 1410 0006 00000000 		.4byte	.Ldebug_abbrev0
 1411 000a 04       		.byte	0x4
 1412 000b 01       		.uleb128 0x1
 1413 000c E7030000 		.4byte	.LASF78
 1414 0010 0C       		.byte	0xc
 1415 0011 8F000000 		.4byte	.LASF79
 1416 0015 CE010000 		.4byte	.LASF80
 1417 0019 00000000 		.4byte	.Ldebug_ranges0+0
 1418 001d 00000000 		.4byte	0
 1419 0021 00000000 		.4byte	.Ldebug_line0
 1420 0025 02       		.uleb128 0x2
 1421 0026 08       		.byte	0x8
 1422 0027 07       		.byte	0x7
 1423 0028 C7000000 		.4byte	.LASF0
 1424 002c 02       		.uleb128 0x2
 1425 002d 04       		.byte	0x4
 1426 002e 07       		.byte	0x7
 1427 002f 17020000 		.4byte	.LASF1
 1428 0033 02       		.uleb128 0x2
 1429 0034 01       		.byte	0x1
 1430 0035 06       		.byte	0x6
 1431 0036 18010000 		.4byte	.LASF2
 1432 003a 02       		.uleb128 0x2
 1433 003b 01       		.byte	0x1
 1434 003c 08       		.byte	0x8
 1435 003d 91030000 		.4byte	.LASF3
 1436 0041 02       		.uleb128 0x2
 1437 0042 02       		.byte	0x2
 1438 0043 05       		.byte	0x5
 1439 0044 C4030000 		.4byte	.LASF4
 1440 0048 02       		.uleb128 0x2
 1441 0049 02       		.byte	0x2
 1442 004a 07       		.byte	0x7
 1443 004b 72020000 		.4byte	.LASF5
 1444 004f 02       		.uleb128 0x2
 1445 0050 04       		.byte	0x4
 1446 0051 05       		.byte	0x5
 1447 0052 74010000 		.4byte	.LASF6
 1448 0056 02       		.uleb128 0x2
 1449 0057 04       		.byte	0x4
 1450 0058 07       		.byte	0x7
ARM GAS  C:\Users\ESTEBAN\AppData\Local\Temp\ccuG9BOe.s 			page 56


 1451 0059 3E020000 		.4byte	.LASF7
 1452 005d 02       		.uleb128 0x2
 1453 005e 08       		.byte	0x8
 1454 005f 05       		.byte	0x5
 1455 0060 0A010000 		.4byte	.LASF8
 1456 0064 03       		.uleb128 0x3
 1457 0065 04       		.byte	0x4
 1458 0066 05       		.byte	0x5
 1459 0067 696E7400 		.ascii	"int\000"
 1460 006b 04       		.uleb128 0x4
 1461 006c 7D010000 		.4byte	.LASF9
 1462 0070 02       		.byte	0x2
 1463 0071 E401     		.2byte	0x1e4
 1464 0073 3A000000 		.4byte	0x3a
 1465 0077 04       		.uleb128 0x4
 1466 0078 1A000000 		.4byte	.LASF10
 1467 007c 02       		.byte	0x2
 1468 007d E501     		.2byte	0x1e5
 1469 007f 48000000 		.4byte	0x48
 1470 0083 04       		.uleb128 0x4
 1471 0084 A3010000 		.4byte	.LASF11
 1472 0088 02       		.byte	0x2
 1473 0089 E601     		.2byte	0x1e6
 1474 008b 56000000 		.4byte	0x56
 1475 008f 02       		.uleb128 0x2
 1476 0090 04       		.byte	0x4
 1477 0091 04       		.byte	0x4
 1478 0092 72030000 		.4byte	.LASF12
 1479 0096 02       		.uleb128 0x2
 1480 0097 08       		.byte	0x8
 1481 0098 04       		.byte	0x4
 1482 0099 9C010000 		.4byte	.LASF13
 1483 009d 02       		.uleb128 0x2
 1484 009e 01       		.byte	0x1
 1485 009f 08       		.byte	0x8
 1486 00a0 B0040000 		.4byte	.LASF14
 1487 00a4 04       		.uleb128 0x4
 1488 00a5 8C030000 		.4byte	.LASF15
 1489 00a9 02       		.byte	0x2
 1490 00aa 8E02     		.2byte	0x28e
 1491 00ac B0000000 		.4byte	0xb0
 1492 00b0 05       		.uleb128 0x5
 1493 00b1 6B000000 		.4byte	0x6b
 1494 00b5 04       		.uleb128 0x4
 1495 00b6 BA020000 		.4byte	.LASF16
 1496 00ba 02       		.byte	0x2
 1497 00bb 9002     		.2byte	0x290
 1498 00bd C1000000 		.4byte	0xc1
 1499 00c1 05       		.uleb128 0x5
 1500 00c2 83000000 		.4byte	0x83
 1501 00c6 02       		.uleb128 0x2
 1502 00c7 08       		.byte	0x8
 1503 00c8 04       		.byte	0x4
 1504 00c9 DA020000 		.4byte	.LASF17
 1505 00cd 02       		.uleb128 0x2
 1506 00ce 04       		.byte	0x4
 1507 00cf 07       		.byte	0x7
ARM GAS  C:\Users\ESTEBAN\AppData\Local\Temp\ccuG9BOe.s 			page 57


 1508 00d0 D1020000 		.4byte	.LASF18
 1509 00d4 06       		.uleb128 0x6
 1510 00d5 EE040000 		.4byte	.LASF81
 1511 00d9 02       		.byte	0x2
 1512 00da 03       		.byte	0x3
 1513 00db 40       		.byte	0x40
 1514 00dc F9000000 		.4byte	0xf9
 1515 00e0 07       		.uleb128 0x7
 1516 00e1 18050000 		.4byte	.LASF19
 1517 00e5 03       		.byte	0x3
 1518 00e6 42       		.byte	0x42
 1519 00e7 6B000000 		.4byte	0x6b
 1520 00eb 00       		.byte	0
 1521 00ec 07       		.uleb128 0x7
 1522 00ed A9040000 		.4byte	.LASF20
 1523 00f1 03       		.byte	0x3
 1524 00f2 43       		.byte	0x43
 1525 00f3 6B000000 		.4byte	0x6b
 1526 00f7 01       		.byte	0x1
 1527 00f8 00       		.byte	0
 1528 00f9 08       		.uleb128 0x8
 1529 00fa 83010000 		.4byte	.LASF27
 1530 00fe 01       		.byte	0x1
 1531 00ff BD05     		.2byte	0x5bd
 1532 0101 00000000 		.4byte	.LFB16
 1533 0105 20000000 		.4byte	.LFE16-.LFB16
 1534 0109 01       		.uleb128 0x1
 1535 010a 9C       		.byte	0x9c
 1536 010b 3A010000 		.4byte	0x13a
 1537 010f 09       		.uleb128 0x9
 1538 0110 C8010000 		.4byte	.LASF21
 1539 0114 01       		.byte	0x1
 1540 0115 BD05     		.2byte	0x5bd
 1541 0117 6B000000 		.4byte	0x6b
 1542 011b 01       		.uleb128 0x1
 1543 011c 50       		.byte	0x50
 1544 011d 09       		.uleb128 0x9
 1545 011e B2010000 		.4byte	.LASF22
 1546 0122 01       		.byte	0x1
 1547 0123 BD05     		.2byte	0x5bd
 1548 0125 6B000000 		.4byte	0x6b
 1549 0129 01       		.uleb128 0x1
 1550 012a 51       		.byte	0x51
 1551 012b 0A       		.uleb128 0xa
 1552 012c 6900     		.ascii	"i\000"
 1553 012e 01       		.byte	0x1
 1554 012f BF05     		.2byte	0x5bf
 1555 0131 6B000000 		.4byte	0x6b
 1556 0135 00000000 		.4byte	.LLST0
 1557 0139 00       		.byte	0
 1558 013a 0B       		.uleb128 0xb
 1559 013b 04030000 		.4byte	.LASF82
 1560 013f 01       		.byte	0x1
 1561 0140 DB01     		.2byte	0x1db
 1562 0142 6B000000 		.4byte	0x6b
 1563 0146 00000000 		.4byte	.LFB2
 1564 014a 3C010000 		.4byte	.LFE2-.LFB2
ARM GAS  C:\Users\ESTEBAN\AppData\Local\Temp\ccuG9BOe.s 			page 58


 1565 014e 01       		.uleb128 0x1
 1566 014f 9C       		.byte	0x9c
 1567 0150 FA020000 		.4byte	0x2fa
 1568 0154 0C       		.uleb128 0xc
 1569 0155 35050000 		.4byte	.LASF23
 1570 0159 01       		.byte	0x1
 1571 015a DD01     		.2byte	0x1dd
 1572 015c 6B000000 		.4byte	0x6b
 1573 0160 2A000000 		.4byte	.LLST1
 1574 0164 0A       		.uleb128 0xa
 1575 0165 6900     		.ascii	"i\000"
 1576 0167 01       		.byte	0x1
 1577 0168 DE01     		.2byte	0x1de
 1578 016a 6B000000 		.4byte	0x6b
 1579 016e 54000000 		.4byte	.LLST2
 1580 0172 0A       		.uleb128 0xa
 1581 0173 6A00     		.ascii	"j\000"
 1582 0175 01       		.byte	0x1
 1583 0176 DF01     		.2byte	0x1df
 1584 0178 6B000000 		.4byte	0x6b
 1585 017c 72000000 		.4byte	.LLST3
 1586 0180 0C       		.uleb128 0xc
 1587 0181 AA010000 		.4byte	.LASF24
 1588 0185 01       		.byte	0x1
 1589 0186 E001     		.2byte	0x1e0
 1590 0188 83000000 		.4byte	0x83
 1591 018c A6000000 		.4byte	.LLST4
 1592 0190 0C       		.uleb128 0xc
 1593 0191 B1000000 		.4byte	.LASF25
 1594 0195 01       		.byte	0x1
 1595 0196 E101     		.2byte	0x1e1
 1596 0198 83000000 		.4byte	0x83
 1597 019c D9000000 		.4byte	.LLST5
 1598 01a0 0D       		.uleb128 0xd
 1599 01a1 96050000 		.4byte	.LASF26
 1600 01a5 01       		.byte	0x1
 1601 01a6 E301     		.2byte	0x1e3
 1602 01a8 0F030000 		.4byte	0x30f
 1603 01ac 02       		.byte	0x2
 1604 01ad 00       		.byte	0
 1605 01ae 02       		.byte	0x2
 1606 01af 0E       		.uleb128 0xe
 1607 01b0 12000000 		.4byte	.LVL7
 1608 01b4 F8090000 		.4byte	0x9f8
 1609 01b8 D6010000 		.4byte	0x1d6
 1610 01bc 0F       		.uleb128 0xf
 1611 01bd 01       		.uleb128 0x1
 1612 01be 50       		.byte	0x50
 1613 01bf 01       		.uleb128 0x1
 1614 01c0 30       		.byte	0x30
 1615 01c1 0F       		.uleb128 0xf
 1616 01c2 01       		.uleb128 0x1
 1617 01c3 51       		.byte	0x51
 1618 01c4 01       		.uleb128 0x1
 1619 01c5 30       		.byte	0x30
 1620 01c6 0F       		.uleb128 0xf
 1621 01c7 01       		.uleb128 0x1
ARM GAS  C:\Users\ESTEBAN\AppData\Local\Temp\ccuG9BOe.s 			page 59


 1622 01c8 52       		.byte	0x52
 1623 01c9 04       		.uleb128 0x4
 1624 01ca 75       		.byte	0x75
 1625 01cb 00       		.sleb128 0
 1626 01cc 40       		.byte	0x40
 1627 01cd 25       		.byte	0x25
 1628 01ce 0F       		.uleb128 0xf
 1629 01cf 01       		.uleb128 0x1
 1630 01d0 53       		.byte	0x53
 1631 01d1 03       		.uleb128 0x3
 1632 01d2 0A       		.byte	0xa
 1633 01d3 0040     		.2byte	0x4000
 1634 01d5 00       		.byte	0
 1635 01d6 10       		.uleb128 0x10
 1636 01d7 28000000 		.4byte	.LVL9
 1637 01db 030A0000 		.4byte	0xa03
 1638 01df 0E       		.uleb128 0xe
 1639 01e0 4A000000 		.4byte	.LVL13
 1640 01e4 0E0A0000 		.4byte	0xa0e
 1641 01e8 F7010000 		.4byte	0x1f7
 1642 01ec 0F       		.uleb128 0xf
 1643 01ed 01       		.uleb128 0x1
 1644 01ee 51       		.byte	0x51
 1645 01ef 01       		.uleb128 0x1
 1646 01f0 31       		.byte	0x31
 1647 01f1 0F       		.uleb128 0xf
 1648 01f2 01       		.uleb128 0x1
 1649 01f3 53       		.byte	0x53
 1650 01f4 01       		.uleb128 0x1
 1651 01f5 31       		.byte	0x31
 1652 01f6 00       		.byte	0
 1653 01f7 0E       		.uleb128 0xe
 1654 01f8 58000000 		.4byte	.LVL15
 1655 01fc 190A0000 		.4byte	0xa19
 1656 0200 12020000 		.4byte	0x212
 1657 0204 0F       		.uleb128 0xf
 1658 0205 01       		.uleb128 0x1
 1659 0206 51       		.byte	0x51
 1660 0207 02       		.uleb128 0x2
 1661 0208 74       		.byte	0x74
 1662 0209 00       		.sleb128 0
 1663 020a 0F       		.uleb128 0xf
 1664 020b 01       		.uleb128 0x1
 1665 020c 52       		.byte	0x52
 1666 020d 03       		.uleb128 0x3
 1667 020e 0A       		.byte	0xa
 1668 020f 7B64     		.2byte	0x647b
 1669 0211 00       		.byte	0
 1670 0212 0E       		.uleb128 0xe
 1671 0213 64000000 		.4byte	.LVL16
 1672 0217 0E0A0000 		.4byte	0xa0e
 1673 021b 2A020000 		.4byte	0x22a
 1674 021f 0F       		.uleb128 0xf
 1675 0220 01       		.uleb128 0x1
 1676 0221 51       		.byte	0x51
 1677 0222 01       		.uleb128 0x1
 1678 0223 31       		.byte	0x31
ARM GAS  C:\Users\ESTEBAN\AppData\Local\Temp\ccuG9BOe.s 			page 60


 1679 0224 0F       		.uleb128 0xf
 1680 0225 01       		.uleb128 0x1
 1681 0226 53       		.byte	0x53
 1682 0227 01       		.uleb128 0x1
 1683 0228 31       		.byte	0x31
 1684 0229 00       		.byte	0
 1685 022a 0E       		.uleb128 0xe
 1686 022b 72000000 		.4byte	.LVL17
 1687 022f 190A0000 		.4byte	0xa19
 1688 0233 45020000 		.4byte	0x245
 1689 0237 0F       		.uleb128 0xf
 1690 0238 01       		.uleb128 0x1
 1691 0239 51       		.byte	0x51
 1692 023a 02       		.uleb128 0x2
 1693 023b 74       		.byte	0x74
 1694 023c 01       		.sleb128 1
 1695 023d 0F       		.uleb128 0xf
 1696 023e 01       		.uleb128 0x1
 1697 023f 52       		.byte	0x52
 1698 0240 03       		.uleb128 0x3
 1699 0241 0A       		.byte	0xa
 1700 0242 7B64     		.2byte	0x647b
 1701 0244 00       		.byte	0
 1702 0245 10       		.uleb128 0x10
 1703 0246 7C000000 		.4byte	.LVL18
 1704 024a 240A0000 		.4byte	0xa24
 1705 024e 0E       		.uleb128 0xe
 1706 024f 84000000 		.4byte	.LVL19
 1707 0253 2F0A0000 		.4byte	0xa2f
 1708 0257 61020000 		.4byte	0x261
 1709 025b 0F       		.uleb128 0xf
 1710 025c 01       		.uleb128 0x1
 1711 025d 51       		.byte	0x51
 1712 025e 01       		.uleb128 0x1
 1713 025f 31       		.byte	0x31
 1714 0260 00       		.byte	0
 1715 0261 0E       		.uleb128 0xe
 1716 0262 98000000 		.4byte	.LVL21
 1717 0266 3A0A0000 		.4byte	0xa3a
 1718 026a 88020000 		.4byte	0x288
 1719 026e 0F       		.uleb128 0xf
 1720 026f 01       		.uleb128 0x1
 1721 0270 50       		.byte	0x50
 1722 0271 01       		.uleb128 0x1
 1723 0272 30       		.byte	0x30
 1724 0273 0F       		.uleb128 0xf
 1725 0274 01       		.uleb128 0x1
 1726 0275 51       		.byte	0x51
 1727 0276 01       		.uleb128 0x1
 1728 0277 30       		.byte	0x30
 1729 0278 0F       		.uleb128 0xf
 1730 0279 01       		.uleb128 0x1
 1731 027a 52       		.byte	0x52
 1732 027b 04       		.uleb128 0x4
 1733 027c 75       		.byte	0x75
 1734 027d 00       		.sleb128 0
 1735 027e 40       		.byte	0x40
ARM GAS  C:\Users\ESTEBAN\AppData\Local\Temp\ccuG9BOe.s 			page 61


 1736 027f 25       		.byte	0x25
 1737 0280 0F       		.uleb128 0xf
 1738 0281 01       		.uleb128 0x1
 1739 0282 53       		.byte	0x53
 1740 0283 03       		.uleb128 0x3
 1741 0284 0A       		.byte	0xa
 1742 0285 0040     		.2byte	0x4000
 1743 0287 00       		.byte	0
 1744 0288 10       		.uleb128 0x10
 1745 0289 AA000000 		.4byte	.LVL24
 1746 028d 030A0000 		.4byte	0xa03
 1747 0291 0E       		.uleb128 0xe
 1748 0292 DC000000 		.4byte	.LVL30
 1749 0296 0E0A0000 		.4byte	0xa0e
 1750 029a A9020000 		.4byte	0x2a9
 1751 029e 0F       		.uleb128 0xf
 1752 029f 01       		.uleb128 0x1
 1753 02a0 51       		.byte	0x51
 1754 02a1 01       		.uleb128 0x1
 1755 02a2 32       		.byte	0x32
 1756 02a3 0F       		.uleb128 0xf
 1757 02a4 01       		.uleb128 0x1
 1758 02a5 53       		.byte	0x53
 1759 02a6 01       		.uleb128 0x1
 1760 02a7 37       		.byte	0x37
 1761 02a8 00       		.byte	0
 1762 02a9 0E       		.uleb128 0xe
 1763 02aa F6000000 		.4byte	.LVL31
 1764 02ae 0E0A0000 		.4byte	0xa0e
 1765 02b2 C1020000 		.4byte	0x2c1
 1766 02b6 0F       		.uleb128 0xf
 1767 02b7 01       		.uleb128 0x1
 1768 02b8 51       		.byte	0x51
 1769 02b9 01       		.uleb128 0x1
 1770 02ba 32       		.byte	0x32
 1771 02bb 0F       		.uleb128 0xf
 1772 02bc 01       		.uleb128 0x1
 1773 02bd 53       		.byte	0x53
 1774 02be 01       		.uleb128 0x1
 1775 02bf 37       		.byte	0x37
 1776 02c0 00       		.byte	0
 1777 02c1 0E       		.uleb128 0xe
 1778 02c2 0C010000 		.4byte	.LVL32
 1779 02c6 190A0000 		.4byte	0xa19
 1780 02ca E1020000 		.4byte	0x2e1
 1781 02ce 0F       		.uleb128 0xf
 1782 02cf 01       		.uleb128 0x1
 1783 02d0 51       		.byte	0x51
 1784 02d1 07       		.uleb128 0x7
 1785 02d2 74       		.byte	0x74
 1786 02d3 00       		.sleb128 0
 1787 02d4 34       		.byte	0x34
 1788 02d5 24       		.byte	0x24
 1789 02d6 75       		.byte	0x75
 1790 02d7 00       		.sleb128 0
 1791 02d8 22       		.byte	0x22
 1792 02d9 0F       		.uleb128 0xf
ARM GAS  C:\Users\ESTEBAN\AppData\Local\Temp\ccuG9BOe.s 			page 62


 1793 02da 01       		.uleb128 0x1
 1794 02db 52       		.byte	0x52
 1795 02dc 03       		.uleb128 0x3
 1796 02dd 0A       		.byte	0xa
 1797 02de 8050     		.2byte	0x5080
 1798 02e0 00       		.byte	0
 1799 02e1 10       		.uleb128 0x10
 1800 02e2 24010000 		.4byte	.LVL36
 1801 02e6 240A0000 		.4byte	0xa24
 1802 02ea 11       		.uleb128 0x11
 1803 02eb 2E010000 		.4byte	.LVL37
 1804 02ef 2F0A0000 		.4byte	0xa2f
 1805 02f3 0F       		.uleb128 0xf
 1806 02f4 01       		.uleb128 0x1
 1807 02f5 51       		.byte	0x51
 1808 02f6 01       		.uleb128 0x1
 1809 02f7 31       		.byte	0x31
 1810 02f8 00       		.byte	0
 1811 02f9 00       		.byte	0
 1812 02fa 12       		.uleb128 0x12
 1813 02fb 0A030000 		.4byte	0x30a
 1814 02ff 0A030000 		.4byte	0x30a
 1815 0303 13       		.uleb128 0x13
 1816 0304 CD000000 		.4byte	0xcd
 1817 0308 00       		.byte	0
 1818 0309 00       		.byte	0
 1819 030a 14       		.uleb128 0x14
 1820 030b D4000000 		.4byte	0xd4
 1821 030f 14       		.uleb128 0x14
 1822 0310 FA020000 		.4byte	0x2fa
 1823 0314 08       		.uleb128 0x8
 1824 0315 95040000 		.4byte	.LASF28
 1825 0319 01       		.byte	0x1
 1826 031a EF02     		.2byte	0x2ef
 1827 031c 00000000 		.4byte	.LFB3
 1828 0320 50000000 		.4byte	.LFE3-.LFB3
 1829 0324 01       		.uleb128 0x1
 1830 0325 9C       		.byte	0x9c
 1831 0326 6F030000 		.4byte	0x36f
 1832 032a 0A       		.uleb128 0xa
 1833 032b 6900     		.ascii	"i\000"
 1834 032d 01       		.byte	0x1
 1835 032e F102     		.2byte	0x2f1
 1836 0330 6B000000 		.4byte	0x6b
 1837 0334 01010000 		.4byte	.LLST6
 1838 0338 10       		.uleb128 0x10
 1839 0339 06000000 		.4byte	.LVL39
 1840 033d 450A0000 		.4byte	0xa45
 1841 0341 10       		.uleb128 0x10
 1842 0342 10000000 		.4byte	.LVL40
 1843 0346 500A0000 		.4byte	0xa50
 1844 034a 10       		.uleb128 0x10
 1845 034b 14000000 		.4byte	.LVL41
 1846 034f 5B0A0000 		.4byte	0xa5b
 1847 0353 10       		.uleb128 0x10
 1848 0354 1A000000 		.4byte	.LVL42
 1849 0358 500A0000 		.4byte	0xa50
ARM GAS  C:\Users\ESTEBAN\AppData\Local\Temp\ccuG9BOe.s 			page 63


 1850 035c 10       		.uleb128 0x10
 1851 035d 28000000 		.4byte	.LVL44
 1852 0361 660A0000 		.4byte	0xa66
 1853 0365 10       		.uleb128 0x10
 1854 0366 40000000 		.4byte	.LVL49
 1855 036a 660A0000 		.4byte	0xa66
 1856 036e 00       		.byte	0
 1857 036f 15       		.uleb128 0x15
 1858 0370 37000000 		.4byte	.LASF32
 1859 0374 01       		.byte	0x1
 1860 0375 8801     		.2byte	0x188
 1861 0377 6B000000 		.4byte	0x6b
 1862 037b 00000000 		.4byte	.LFB1
 1863 037f 64000000 		.4byte	.LFE1-.LFB1
 1864 0383 01       		.uleb128 0x1
 1865 0384 9C       		.byte	0x9c
 1866 0385 FC030000 		.4byte	0x3fc
 1867 0389 0C       		.uleb128 0xc
 1868 038a 35050000 		.4byte	.LASF23
 1869 038e 01       		.byte	0x1
 1870 038f 8A01     		.2byte	0x18a
 1871 0391 6B000000 		.4byte	0x6b
 1872 0395 41010000 		.4byte	.LLST7
 1873 0399 0C       		.uleb128 0xc
 1874 039a 49010000 		.4byte	.LASF29
 1875 039e 01       		.byte	0x1
 1876 039f 8B01     		.2byte	0x18b
 1877 03a1 6B000000 		.4byte	0x6b
 1878 03a5 54010000 		.4byte	.LLST8
 1879 03a9 10       		.uleb128 0x10
 1880 03aa 06000000 		.4byte	.LVL53
 1881 03ae 710A0000 		.4byte	0xa71
 1882 03b2 10       		.uleb128 0x10
 1883 03b3 1E000000 		.4byte	.LVL54
 1884 03b7 7C0A0000 		.4byte	0xa7c
 1885 03bb 10       		.uleb128 0x10
 1886 03bc 22000000 		.4byte	.LVL55
 1887 03c0 870A0000 		.4byte	0xa87
 1888 03c4 10       		.uleb128 0x10
 1889 03c5 26000000 		.4byte	.LVL56
 1890 03c9 3A010000 		.4byte	0x13a
 1891 03cd 0E       		.uleb128 0xe
 1892 03ce 42000000 		.4byte	.LVL58
 1893 03d2 F9000000 		.4byte	0xf9
 1894 03d6 E6030000 		.4byte	0x3e6
 1895 03da 0F       		.uleb128 0xf
 1896 03db 01       		.uleb128 0x1
 1897 03dc 50       		.byte	0x50
 1898 03dd 01       		.uleb128 0x1
 1899 03de 38       		.byte	0x38
 1900 03df 0F       		.uleb128 0xf
 1901 03e0 01       		.uleb128 0x1
 1902 03e1 51       		.byte	0x51
 1903 03e2 02       		.uleb128 0x2
 1904 03e3 09       		.byte	0x9
 1905 03e4 F7       		.byte	0xf7
 1906 03e5 00       		.byte	0
ARM GAS  C:\Users\ESTEBAN\AppData\Local\Temp\ccuG9BOe.s 			page 64


 1907 03e6 11       		.uleb128 0x11
 1908 03e7 4A000000 		.4byte	.LVL59
 1909 03eb F9000000 		.4byte	0xf9
 1910 03ef 0F       		.uleb128 0xf
 1911 03f0 01       		.uleb128 0x1
 1912 03f1 50       		.byte	0x50
 1913 03f2 01       		.uleb128 0x1
 1914 03f3 31       		.byte	0x31
 1915 03f4 0F       		.uleb128 0xf
 1916 03f5 01       		.uleb128 0x1
 1917 03f6 51       		.byte	0x51
 1918 03f7 02       		.uleb128 0x2
 1919 03f8 09       		.byte	0x9
 1920 03f9 FE       		.byte	0xfe
 1921 03fa 00       		.byte	0
 1922 03fb 00       		.byte	0
 1923 03fc 16       		.uleb128 0x16
 1924 03fd AC020000 		.4byte	.LASF42
 1925 0401 01       		.byte	0x1
 1926 0402 5003     		.2byte	0x350
 1927 0404 00000000 		.4byte	.LFB5
 1928 0408 54000000 		.4byte	.LFE5-.LFB5
 1929 040c 01       		.uleb128 0x1
 1930 040d 9C       		.byte	0x9c
 1931 040e 60040000 		.4byte	0x460
 1932 0412 0C       		.uleb128 0xc
 1933 0413 49010000 		.4byte	.LASF29
 1934 0417 01       		.byte	0x1
 1935 0418 5203     		.2byte	0x352
 1936 041a 6B000000 		.4byte	0x6b
 1937 041e 67010000 		.4byte	.LLST9
 1938 0422 0E       		.uleb128 0xe
 1939 0423 0A000000 		.4byte	.LVL61
 1940 0427 F9000000 		.4byte	0xf9
 1941 042b 3B040000 		.4byte	0x43b
 1942 042f 0F       		.uleb128 0xf
 1943 0430 01       		.uleb128 0x1
 1944 0431 50       		.byte	0x50
 1945 0432 01       		.uleb128 0x1
 1946 0433 30       		.byte	0x30
 1947 0434 0F       		.uleb128 0xf
 1948 0435 01       		.uleb128 0x1
 1949 0436 51       		.byte	0x51
 1950 0437 02       		.uleb128 0x2
 1951 0438 09       		.byte	0x9
 1952 0439 FE       		.byte	0xfe
 1953 043a 00       		.byte	0
 1954 043b 10       		.uleb128 0x10
 1955 043c 28000000 		.4byte	.LVL62
 1956 0440 710A0000 		.4byte	0xa71
 1957 0444 10       		.uleb128 0x10
 1958 0445 40000000 		.4byte	.LVL63
 1959 0449 7C0A0000 		.4byte	0xa7c
 1960 044d 10       		.uleb128 0x10
 1961 044e 44000000 		.4byte	.LVL64
 1962 0452 14030000 		.4byte	0x314
 1963 0456 10       		.uleb128 0x10
ARM GAS  C:\Users\ESTEBAN\AppData\Local\Temp\ccuG9BOe.s 			page 65


 1964 0457 48000000 		.4byte	.LVL65
 1965 045b 920A0000 		.4byte	0xa92
 1966 045f 00       		.byte	0
 1967 0460 17       		.uleb128 0x17
 1968 0461 83050000 		.4byte	.LASF30
 1969 0465 01       		.byte	0x1
 1970 0466 8D03     		.2byte	0x38d
 1971 0468 00000000 		.4byte	.LFB6
 1972 046c 10000000 		.4byte	.LFE6-.LFB6
 1973 0470 01       		.uleb128 0x1
 1974 0471 9C       		.byte	0x9c
 1975 0472 17       		.uleb128 0x17
 1976 0473 F6000000 		.4byte	.LASF31
 1977 0477 01       		.byte	0x1
 1978 0478 A903     		.2byte	0x3a9
 1979 047a 00000000 		.4byte	.LFB7
 1980 047e 10000000 		.4byte	.LFE7-.LFB7
 1981 0482 01       		.uleb128 0x1
 1982 0483 9C       		.byte	0x9c
 1983 0484 15       		.uleb128 0x15
 1984 0485 24020000 		.4byte	.LASF33
 1985 0489 01       		.byte	0x1
 1986 048a CA03     		.2byte	0x3ca
 1987 048c 6B000000 		.4byte	0x6b
 1988 0490 00000000 		.4byte	.LFB8
 1989 0494 14000000 		.4byte	.LFE8-.LFB8
 1990 0498 01       		.uleb128 0x1
 1991 0499 9C       		.byte	0x9c
 1992 049a BF040000 		.4byte	0x4bf
 1993 049e 18       		.uleb128 0x18
 1994 049f 3F010000 		.4byte	.LASF34
 1995 04a3 01       		.byte	0x1
 1996 04a4 CA03     		.2byte	0x3ca
 1997 04a6 6B000000 		.4byte	0x6b
 1998 04aa 7A010000 		.4byte	.LLST10
 1999 04ae 0C       		.uleb128 0xc
 2000 04af 35050000 		.4byte	.LASF23
 2001 04b3 01       		.byte	0x1
 2002 04b4 CC03     		.2byte	0x3cc
 2003 04b6 6B000000 		.4byte	0x6b
 2004 04ba B2010000 		.4byte	.LLST11
 2005 04be 00       		.byte	0
 2006 04bf 19       		.uleb128 0x19
 2007 04c0 CE030000 		.4byte	.LASF83
 2008 04c4 01       		.byte	0x1
 2009 04c5 5404     		.2byte	0x454
 2010 04c7 6B000000 		.4byte	0x6b
 2011 04cb 00000000 		.4byte	.LFB10
 2012 04cf 10000000 		.4byte	.LFE10-.LFB10
 2013 04d3 01       		.uleb128 0x1
 2014 04d4 9C       		.byte	0x9c
 2015 04d5 15       		.uleb128 0x15
 2016 04d6 DB040000 		.4byte	.LASF35
 2017 04da 01       		.byte	0x1
 2018 04db FC04     		.2byte	0x4fc
 2019 04dd 6B000000 		.4byte	0x6b
 2020 04e1 00000000 		.4byte	.LFB13
ARM GAS  C:\Users\ESTEBAN\AppData\Local\Temp\ccuG9BOe.s 			page 66


 2021 04e5 30000000 		.4byte	.LFE13-.LFB13
 2022 04e9 01       		.uleb128 0x1
 2023 04ea 9C       		.byte	0x9c
 2024 04eb 40050000 		.4byte	0x540
 2025 04ef 18       		.uleb128 0x18
 2026 04f0 E6020000 		.4byte	.LASF36
 2027 04f4 01       		.byte	0x1
 2028 04f5 FC04     		.2byte	0x4fc
 2029 04f7 77000000 		.4byte	0x77
 2030 04fb D1010000 		.4byte	.LLST12
 2031 04ff 0C       		.uleb128 0xc
 2032 0500 50020000 		.4byte	.LASF37
 2033 0504 01       		.byte	0x1
 2034 0505 FE04     		.2byte	0x4fe
 2035 0507 6B000000 		.4byte	0x6b
 2036 050b 0B020000 		.4byte	.LLST13
 2037 050f 0A       		.uleb128 0xa
 2038 0510 726F7700 		.ascii	"row\000"
 2039 0514 01       		.byte	0x1
 2040 0515 FF04     		.2byte	0x4ff
 2041 0517 6B000000 		.4byte	0x6b
 2042 051b 29020000 		.4byte	.LLST14
 2043 051f 0C       		.uleb128 0xc
 2044 0520 C3010000 		.4byte	.LASF38
 2045 0524 01       		.byte	0x1
 2046 0525 0005     		.2byte	0x500
 2047 0527 6B000000 		.4byte	0x6b
 2048 052b 3C020000 		.4byte	.LLST15
 2049 052f 0A       		.uleb128 0xa
 2050 0530 70696E00 		.ascii	"pin\000"
 2051 0534 01       		.byte	0x1
 2052 0535 0105     		.2byte	0x501
 2053 0537 6B000000 		.4byte	0x6b
 2054 053b 4F020000 		.4byte	.LLST16
 2055 053f 00       		.byte	0
 2056 0540 15       		.uleb128 0x15
 2057 0541 DB050000 		.4byte	.LASF39
 2058 0545 01       		.byte	0x1
 2059 0546 B504     		.2byte	0x4b5
 2060 0548 6B000000 		.4byte	0x6b
 2061 054c 00000000 		.4byte	.LFB12
 2062 0550 54000000 		.4byte	.LFE12-.LFB12
 2063 0554 01       		.uleb128 0x1
 2064 0555 9C       		.byte	0x9c
 2065 0556 DB050000 		.4byte	0x5db
 2066 055a 18       		.uleb128 0x18
 2067 055b E6020000 		.4byte	.LASF36
 2068 055f 01       		.byte	0x1
 2069 0560 B504     		.2byte	0x4b5
 2070 0562 77000000 		.4byte	0x77
 2071 0566 62020000 		.4byte	.LLST17
 2072 056a 18       		.uleb128 0x18
 2073 056b 50020000 		.4byte	.LASF37
 2074 056f 01       		.byte	0x1
 2075 0570 B504     		.2byte	0x4b5
 2076 0572 6B000000 		.4byte	0x6b
 2077 0576 9C020000 		.4byte	.LLST18
ARM GAS  C:\Users\ESTEBAN\AppData\Local\Temp\ccuG9BOe.s 			page 67


 2078 057a 0C       		.uleb128 0xc
 2079 057b B2010000 		.4byte	.LASF22
 2080 057f 01       		.byte	0x1
 2081 0580 B704     		.2byte	0x4b7
 2082 0582 6B000000 		.4byte	0x6b
 2083 0586 D3020000 		.4byte	.LLST19
 2084 058a 0A       		.uleb128 0xa
 2085 058b 726F7700 		.ascii	"row\000"
 2086 058f 01       		.byte	0x1
 2087 0590 B804     		.2byte	0x4b8
 2088 0592 6B000000 		.4byte	0x6b
 2089 0596 E9020000 		.4byte	.LLST20
 2090 059a 0C       		.uleb128 0xc
 2091 059b C3010000 		.4byte	.LASF38
 2092 059f 01       		.byte	0x1
 2093 05a0 B904     		.2byte	0x4b9
 2094 05a2 6B000000 		.4byte	0x6b
 2095 05a6 FC020000 		.4byte	.LLST21
 2096 05aa 0A       		.uleb128 0xa
 2097 05ab 70696E00 		.ascii	"pin\000"
 2098 05af 01       		.byte	0x1
 2099 05b0 BA04     		.2byte	0x4ba
 2100 05b2 6B000000 		.4byte	0x6b
 2101 05b6 0F030000 		.4byte	.LLST22
 2102 05ba 0C       		.uleb128 0xc
 2103 05bb 35050000 		.4byte	.LASF23
 2104 05bf 01       		.byte	0x1
 2105 05c0 BB04     		.2byte	0x4bb
 2106 05c2 6B000000 		.4byte	0x6b
 2107 05c6 22030000 		.4byte	.LLST23
 2108 05ca 11       		.uleb128 0x11
 2109 05cb 1A000000 		.4byte	.LVL83
 2110 05cf D5040000 		.4byte	0x4d5
 2111 05d3 0F       		.uleb128 0xf
 2112 05d4 01       		.uleb128 0x1
 2113 05d5 50       		.byte	0x50
 2114 05d6 02       		.uleb128 0x2
 2115 05d7 74       		.byte	0x74
 2116 05d8 00       		.sleb128 0
 2117 05d9 00       		.byte	0
 2118 05da 00       		.byte	0
 2119 05db 15       		.uleb128 0x15
 2120 05dc 47030000 		.4byte	.LASF40
 2121 05e0 01       		.byte	0x1
 2122 05e1 F503     		.2byte	0x3f5
 2123 05e3 6B000000 		.4byte	0x6b
 2124 05e7 00000000 		.4byte	.LFB9
 2125 05eb 88000000 		.4byte	.LFE9-.LFB9
 2126 05ef 01       		.uleb128 0x1
 2127 05f0 9C       		.byte	0x9c
 2128 05f1 8E060000 		.4byte	0x68e
 2129 05f5 18       		.uleb128 0x18
 2130 05f6 1F050000 		.4byte	.LASF41
 2131 05fa 01       		.byte	0x1
 2132 05fb F503     		.2byte	0x3f5
 2133 05fd 6B000000 		.4byte	0x6b
 2134 0601 41030000 		.4byte	.LLST24
ARM GAS  C:\Users\ESTEBAN\AppData\Local\Temp\ccuG9BOe.s 			page 68


 2135 0605 0C       		.uleb128 0xc
 2136 0606 35050000 		.4byte	.LASF23
 2137 060a 01       		.byte	0x1
 2138 060b F703     		.2byte	0x3f7
 2139 060d 6B000000 		.4byte	0x6b
 2140 0611 7B030000 		.4byte	.LLST25
 2141 0615 0C       		.uleb128 0xc
 2142 0616 50020000 		.4byte	.LASF37
 2143 061a 01       		.byte	0x1
 2144 061b F803     		.2byte	0x3f8
 2145 061d 6B000000 		.4byte	0x6b
 2146 0621 8F030000 		.4byte	.LLST26
 2147 0625 0C       		.uleb128 0xc
 2148 0626 E6020000 		.4byte	.LASF36
 2149 062a 01       		.byte	0x1
 2150 062b F903     		.2byte	0x3f9
 2151 062d 77000000 		.4byte	0x77
 2152 0631 A2030000 		.4byte	.LLST27
 2153 0635 0A       		.uleb128 0xa
 2154 0636 6A00     		.ascii	"j\000"
 2155 0638 01       		.byte	0x1
 2156 0639 FA03     		.2byte	0x3fa
 2157 063b 77000000 		.4byte	0x77
 2158 063f C0030000 		.4byte	.LLST28
 2159 0643 0A       		.uleb128 0xa
 2160 0644 6900     		.ascii	"i\000"
 2161 0646 01       		.byte	0x1
 2162 0647 FB03     		.2byte	0x3fb
 2163 0649 6B000000 		.4byte	0x6b
 2164 064d EA030000 		.4byte	.LLST29
 2165 0651 0E       		.uleb128 0xe
 2166 0652 34000000 		.4byte	.LVL104
 2167 0656 40050000 		.4byte	0x540
 2168 065a 6B060000 		.4byte	0x66b
 2169 065e 0F       		.uleb128 0xf
 2170 065f 01       		.uleb128 0x1
 2171 0660 50       		.byte	0x50
 2172 0661 02       		.uleb128 0x2
 2173 0662 74       		.byte	0x74
 2174 0663 00       		.sleb128 0
 2175 0664 0F       		.uleb128 0xf
 2176 0665 01       		.uleb128 0x1
 2177 0666 51       		.byte	0x51
 2178 0667 02       		.uleb128 0x2
 2179 0668 77       		.byte	0x77
 2180 0669 00       		.sleb128 0
 2181 066a 00       		.byte	0
 2182 066b 11       		.uleb128 0x11
 2183 066c 5C000000 		.4byte	.LVL110
 2184 0670 40050000 		.4byte	0x540
 2185 0674 0F       		.uleb128 0xf
 2186 0675 01       		.uleb128 0x1
 2187 0676 50       		.byte	0x50
 2188 0677 0C       		.uleb128 0xc
 2189 0678 74       		.byte	0x74
 2190 0679 00       		.sleb128 0
 2191 067a 31       		.byte	0x31
ARM GAS  C:\Users\ESTEBAN\AppData\Local\Temp\ccuG9BOe.s 			page 69


 2192 067b 24       		.byte	0x24
 2193 067c 03       		.byte	0x3
 2194 067d 00000000 		.4byte	.LANCHOR2
 2195 0681 22       		.byte	0x22
 2196 0682 94       		.byte	0x94
 2197 0683 02       		.byte	0x2
 2198 0684 0F       		.uleb128 0xf
 2199 0685 01       		.uleb128 0x1
 2200 0686 51       		.byte	0x51
 2201 0687 04       		.uleb128 0x4
 2202 0688 77       		.byte	0x77
 2203 0689 00       		.sleb128 0
 2204 068a 31       		.byte	0x31
 2205 068b 27       		.byte	0x27
 2206 068c 00       		.byte	0
 2207 068d 00       		.byte	0
 2208 068e 16       		.uleb128 0x16
 2209 068f 5E010000 		.4byte	.LASF43
 2210 0693 01       		.byte	0x1
 2211 0694 7304     		.2byte	0x473
 2212 0696 00000000 		.4byte	.LFB11
 2213 069a 4C000000 		.4byte	.LFE11-.LFB11
 2214 069e 01       		.uleb128 0x1
 2215 069f 9C       		.byte	0x9c
 2216 06a0 EF060000 		.4byte	0x6ef
 2217 06a4 0A       		.uleb128 0xa
 2218 06a5 6900     		.ascii	"i\000"
 2219 06a7 01       		.byte	0x1
 2220 06a8 7504     		.2byte	0x475
 2221 06aa 77000000 		.4byte	0x77
 2222 06ae 2A040000 		.4byte	.LLST30
 2223 06b2 0C       		.uleb128 0xc
 2224 06b3 2B050000 		.4byte	.LASF44
 2225 06b7 01       		.byte	0x1
 2226 06b8 7604     		.2byte	0x476
 2227 06ba 6B000000 		.4byte	0x6b
 2228 06be 6A040000 		.4byte	.LLST31
 2229 06c2 0E       		.uleb128 0xe
 2230 06c3 26000000 		.4byte	.LVL121
 2231 06c7 40050000 		.4byte	0x540
 2232 06cb E5060000 		.4byte	0x6e5
 2233 06cf 0F       		.uleb128 0xf
 2234 06d0 01       		.uleb128 0x1
 2235 06d1 50       		.byte	0x50
 2236 06d2 0C       		.uleb128 0xc
 2237 06d3 74       		.byte	0x74
 2238 06d4 00       		.sleb128 0
 2239 06d5 31       		.byte	0x31
 2240 06d6 24       		.byte	0x24
 2241 06d7 03       		.byte	0x3
 2242 06d8 00000000 		.4byte	.LANCHOR2
 2243 06dc 22       		.byte	0x22
 2244 06dd 94       		.byte	0x94
 2245 06de 02       		.byte	0x2
 2246 06df 0F       		.uleb128 0xf
 2247 06e0 01       		.uleb128 0x1
 2248 06e1 51       		.byte	0x51
ARM GAS  C:\Users\ESTEBAN\AppData\Local\Temp\ccuG9BOe.s 			page 70


 2249 06e2 01       		.uleb128 0x1
 2250 06e3 31       		.byte	0x31
 2251 06e4 00       		.byte	0
 2252 06e5 10       		.uleb128 0x10
 2253 06e6 3C000000 		.4byte	.LVL125
 2254 06ea DB050000 		.4byte	0x5db
 2255 06ee 00       		.byte	0
 2256 06ef 16       		.uleb128 0x16
 2257 06f0 0A050000 		.4byte	.LASF45
 2258 06f4 01       		.byte	0x1
 2259 06f5 2901     		.2byte	0x129
 2260 06f7 00000000 		.4byte	.LFB0
 2261 06fb 84000000 		.4byte	.LFE0-.LFB0
 2262 06ff 01       		.uleb128 0x1
 2263 0700 9C       		.byte	0x9c
 2264 0701 90070000 		.4byte	0x790
 2265 0705 10       		.uleb128 0x10
 2266 0706 06000000 		.4byte	.LVL127
 2267 070a 8E060000 		.4byte	0x68e
 2268 070e 0E       		.uleb128 0xe
 2269 070f 30000000 		.4byte	.LVL128
 2270 0713 84040000 		.4byte	0x484
 2271 0717 22070000 		.4byte	0x722
 2272 071b 0F       		.uleb128 0xf
 2273 071c 01       		.uleb128 0x1
 2274 071d 50       		.byte	0x50
 2275 071e 02       		.uleb128 0x2
 2276 071f 08       		.byte	0x8
 2277 0720 31       		.byte	0x31
 2278 0721 00       		.byte	0
 2279 0722 0E       		.uleb128 0xe
 2280 0723 40000000 		.4byte	.LVL129
 2281 0727 F9000000 		.4byte	0xf9
 2282 072b 3B070000 		.4byte	0x73b
 2283 072f 0F       		.uleb128 0xf
 2284 0730 01       		.uleb128 0x1
 2285 0731 50       		.byte	0x50
 2286 0732 01       		.uleb128 0x1
 2287 0733 32       		.byte	0x32
 2288 0734 0F       		.uleb128 0xf
 2289 0735 01       		.uleb128 0x1
 2290 0736 51       		.byte	0x51
 2291 0737 02       		.uleb128 0x2
 2292 0738 09       		.byte	0x9
 2293 0739 F9       		.byte	0xf9
 2294 073a 00       		.byte	0
 2295 073b 0E       		.uleb128 0xe
 2296 073c 4C000000 		.4byte	.LVL130
 2297 0740 9D0A0000 		.4byte	0xa9d
 2298 0744 4E070000 		.4byte	0x74e
 2299 0748 0F       		.uleb128 0xf
 2300 0749 01       		.uleb128 0x1
 2301 074a 50       		.byte	0x50
 2302 074b 01       		.uleb128 0x1
 2303 074c 30       		.byte	0x30
 2304 074d 00       		.byte	0
 2305 074e 0E       		.uleb128 0xe
ARM GAS  C:\Users\ESTEBAN\AppData\Local\Temp\ccuG9BOe.s 			page 71


 2306 074f 54000000 		.4byte	.LVL131
 2307 0753 A80A0000 		.4byte	0xaa8
 2308 0757 66070000 		.4byte	0x766
 2309 075b 0F       		.uleb128 0xf
 2310 075c 01       		.uleb128 0x1
 2311 075d 50       		.byte	0x50
 2312 075e 01       		.uleb128 0x1
 2313 075f 30       		.byte	0x30
 2314 0760 0F       		.uleb128 0xf
 2315 0761 01       		.uleb128 0x1
 2316 0762 51       		.byte	0x51
 2317 0763 01       		.uleb128 0x1
 2318 0764 37       		.byte	0x37
 2319 0765 00       		.byte	0
 2320 0766 0E       		.uleb128 0xe
 2321 0767 60000000 		.4byte	.LVL132
 2322 076b 9D0A0000 		.4byte	0xa9d
 2323 076f 7A070000 		.4byte	0x77a
 2324 0773 0F       		.uleb128 0xf
 2325 0774 01       		.uleb128 0x1
 2326 0775 50       		.byte	0x50
 2327 0776 02       		.uleb128 0x2
 2328 0777 74       		.byte	0x74
 2329 0778 00       		.sleb128 0
 2330 0779 00       		.byte	0
 2331 077a 11       		.uleb128 0x11
 2332 077b 68000000 		.4byte	.LVL133
 2333 077f A80A0000 		.4byte	0xaa8
 2334 0783 0F       		.uleb128 0xf
 2335 0784 01       		.uleb128 0x1
 2336 0785 50       		.byte	0x50
 2337 0786 02       		.uleb128 0x2
 2338 0787 74       		.byte	0x74
 2339 0788 00       		.sleb128 0
 2340 0789 0F       		.uleb128 0xf
 2341 078a 01       		.uleb128 0x1
 2342 078b 51       		.byte	0x51
 2343 078c 01       		.uleb128 0x1
 2344 078d 37       		.byte	0x37
 2345 078e 00       		.byte	0
 2346 078f 00       		.byte	0
 2347 0790 15       		.uleb128 0x15
 2348 0791 9F030000 		.4byte	.LASF46
 2349 0795 01       		.byte	0x1
 2350 0796 2F03     		.2byte	0x32f
 2351 0798 6B000000 		.4byte	0x6b
 2352 079c 00000000 		.4byte	.LFB4
 2353 07a0 20000000 		.4byte	.LFE4-.LFB4
 2354 07a4 01       		.uleb128 0x1
 2355 07a5 9C       		.byte	0x9c
 2356 07a6 CB070000 		.4byte	0x7cb
 2357 07aa 1A       		.uleb128 0x1a
 2358 07ab 35050000 		.4byte	.LASF23
 2359 07af 01       		.byte	0x1
 2360 07b0 3103     		.2byte	0x331
 2361 07b2 6B000000 		.4byte	0x6b
 2362 07b6 01       		.uleb128 0x1
ARM GAS  C:\Users\ESTEBAN\AppData\Local\Temp\ccuG9BOe.s 			page 72


 2363 07b7 50       		.byte	0x50
 2364 07b8 10       		.uleb128 0x10
 2365 07b9 16000000 		.4byte	.LVL134
 2366 07bd EF060000 		.4byte	0x6ef
 2367 07c1 10       		.uleb128 0x10
 2368 07c2 1A000000 		.4byte	.LVL135
 2369 07c6 6F030000 		.4byte	0x36f
 2370 07ca 00       		.byte	0
 2371 07cb 16       		.uleb128 0x16
 2372 07cc 00000000 		.4byte	.LASF47
 2373 07d0 01       		.byte	0x1
 2374 07d1 3B05     		.2byte	0x53b
 2375 07d3 00000000 		.4byte	.LFB14
 2376 07d7 5C000000 		.4byte	.LFE14-.LFB14
 2377 07db 01       		.uleb128 0x1
 2378 07dc 9C       		.byte	0x9c
 2379 07dd 5A080000 		.4byte	0x85a
 2380 07e1 18       		.uleb128 0x18
 2381 07e2 58010000 		.4byte	.LASF48
 2382 07e6 01       		.byte	0x1
 2383 07e7 3B05     		.2byte	0x53b
 2384 07e9 6B000000 		.4byte	0x6b
 2385 07ed 7D040000 		.4byte	.LLST32
 2386 07f1 18       		.uleb128 0x18
 2387 07f2 35020000 		.4byte	.LASF49
 2388 07f6 01       		.byte	0x1
 2389 07f7 3B05     		.2byte	0x53b
 2390 07f9 6B000000 		.4byte	0x6b
 2391 07fd C7040000 		.4byte	.LLST33
 2392 0801 1A       		.uleb128 0x1a
 2393 0802 50050000 		.4byte	.LASF50
 2394 0806 01       		.byte	0x1
 2395 0807 3D05     		.2byte	0x53d
 2396 0809 75080000 		.4byte	0x875
 2397 080d 05       		.uleb128 0x5
 2398 080e 03       		.byte	0x3
 2399 080f 04000000 		.4byte	Display0_disp0.5234
 2400 0813 0A       		.uleb128 0xa
 2401 0814 6900     		.ascii	"i\000"
 2402 0816 01       		.byte	0x1
 2403 0817 4005     		.2byte	0x540
 2404 0819 6B000000 		.4byte	0x6b
 2405 081d F3040000 		.4byte	.LLST34
 2406 0821 11       		.uleb128 0x11
 2407 0822 4E000000 		.4byte	.LVL145
 2408 0826 40050000 		.4byte	0x540
 2409 082a 0F       		.uleb128 0xf
 2410 082b 01       		.uleb128 0x1
 2411 082c 50       		.byte	0x50
 2412 082d 14       		.uleb128 0x14
 2413 082e 75       		.byte	0x75
 2414 082f 00       		.sleb128 0
 2415 0830 33       		.byte	0x33
 2416 0831 24       		.byte	0x24
 2417 0832 74       		.byte	0x74
 2418 0833 00       		.sleb128 0
 2419 0834 22       		.byte	0x22
ARM GAS  C:\Users\ESTEBAN\AppData\Local\Temp\ccuG9BOe.s 			page 73


 2420 0835 75       		.byte	0x75
 2421 0836 00       		.sleb128 0
 2422 0837 1C       		.byte	0x1c
 2423 0838 31       		.byte	0x31
 2424 0839 24       		.byte	0x24
 2425 083a 03       		.byte	0x3
 2426 083b 04000000 		.4byte	.LANCHOR2+4
 2427 083f 22       		.byte	0x22
 2428 0840 94       		.byte	0x94
 2429 0841 02       		.byte	0x2
 2430 0842 0F       		.uleb128 0xf
 2431 0843 01       		.uleb128 0x1
 2432 0844 51       		.byte	0x51
 2433 0845 12       		.uleb128 0x12
 2434 0846 76       		.byte	0x76
 2435 0847 00       		.sleb128 0
 2436 0848 03       		.byte	0x3
 2437 0849 20000000 		.4byte	.LANCHOR2+32
 2438 084d 22       		.byte	0x22
 2439 084e 94       		.byte	0x94
 2440 084f 01       		.byte	0x1
 2441 0850 08       		.byte	0x8
 2442 0851 FF       		.byte	0xff
 2443 0852 1A       		.byte	0x1a
 2444 0853 74       		.byte	0x74
 2445 0854 00       		.sleb128 0
 2446 0855 26       		.byte	0x26
 2447 0856 31       		.byte	0x31
 2448 0857 1A       		.byte	0x1a
 2449 0858 00       		.byte	0
 2450 0859 00       		.byte	0
 2451 085a 12       		.uleb128 0x12
 2452 085b 70080000 		.4byte	0x870
 2453 085f 70080000 		.4byte	0x870
 2454 0863 13       		.uleb128 0x13
 2455 0864 CD000000 		.4byte	0xcd
 2456 0868 01       		.byte	0x1
 2457 0869 13       		.uleb128 0x13
 2458 086a CD000000 		.4byte	0xcd
 2459 086e 06       		.byte	0x6
 2460 086f 00       		.byte	0
 2461 0870 14       		.uleb128 0x14
 2462 0871 77000000 		.4byte	0x77
 2463 0875 14       		.uleb128 0x14
 2464 0876 5A080000 		.4byte	0x85a
 2465 087a 16       		.uleb128 0x16
 2466 087b 24010000 		.4byte	.LASF51
 2467 087f 01       		.byte	0x1
 2468 0880 8205     		.2byte	0x582
 2469 0882 00000000 		.4byte	.LFB15
 2470 0886 48000000 		.4byte	.LFE15-.LFB15
 2471 088a 01       		.uleb128 0x1
 2472 088b 9C       		.byte	0x9c
 2473 088c 08090000 		.4byte	0x908
 2474 0890 18       		.uleb128 0x18
 2475 0891 C8010000 		.4byte	.LASF21
 2476 0895 01       		.byte	0x1
ARM GAS  C:\Users\ESTEBAN\AppData\Local\Temp\ccuG9BOe.s 			page 74


 2477 0896 8205     		.2byte	0x582
 2478 0898 77000000 		.4byte	0x77
 2479 089c 1D050000 		.4byte	.LLST35
 2480 08a0 18       		.uleb128 0x18
 2481 08a1 35020000 		.4byte	.LASF49
 2482 08a5 01       		.byte	0x1
 2483 08a6 8205     		.2byte	0x582
 2484 08a8 6B000000 		.4byte	0x6b
 2485 08ac 46050000 		.4byte	.LLST36
 2486 08b0 18       		.uleb128 0x18
 2487 08b1 D6040000 		.4byte	.LASF52
 2488 08b5 01       		.byte	0x1
 2489 08b6 8205     		.2byte	0x582
 2490 08b8 6B000000 		.4byte	0x6b
 2491 08bc 64050000 		.4byte	.LLST37
 2492 08c0 0A       		.uleb128 0xa
 2493 08c1 6900     		.ascii	"i\000"
 2494 08c3 01       		.byte	0x1
 2495 08c4 8405     		.2byte	0x584
 2496 08c6 6B000000 		.4byte	0x6b
 2497 08ca 85050000 		.4byte	.LLST38
 2498 08ce 0A       		.uleb128 0xa
 2499 08cf 6E756D00 		.ascii	"num\000"
 2500 08d3 01       		.byte	0x1
 2501 08d4 8505     		.2byte	0x585
 2502 08d6 6B000000 		.4byte	0x6b
 2503 08da A3050000 		.4byte	.LLST39
 2504 08de 0E       		.uleb128 0xe
 2505 08df 2A000000 		.4byte	.LVL155
 2506 08e3 CB070000 		.4byte	0x7cb
 2507 08e7 F7080000 		.4byte	0x8f7
 2508 08eb 0F       		.uleb128 0xf
 2509 08ec 01       		.uleb128 0x1
 2510 08ed 50       		.byte	0x50
 2511 08ee 01       		.uleb128 0x1
 2512 08ef 40       		.byte	0x40
 2513 08f0 0F       		.uleb128 0xf
 2514 08f1 01       		.uleb128 0x1
 2515 08f2 51       		.byte	0x51
 2516 08f3 02       		.uleb128 0x2
 2517 08f4 74       		.byte	0x74
 2518 08f5 00       		.sleb128 0
 2519 08f6 00       		.byte	0
 2520 08f7 11       		.uleb128 0x11
 2521 08f8 32000000 		.4byte	.LVL157
 2522 08fc CB070000 		.4byte	0x7cb
 2523 0900 0F       		.uleb128 0xf
 2524 0901 01       		.uleb128 0x1
 2525 0902 51       		.byte	0x51
 2526 0903 02       		.uleb128 0x2
 2527 0904 74       		.byte	0x74
 2528 0905 00       		.sleb128 0
 2529 0906 00       		.byte	0
 2530 0907 00       		.byte	0
 2531 0908 12       		.uleb128 0x12
 2532 0909 18090000 		.4byte	0x918
 2533 090d 18090000 		.4byte	0x918
ARM GAS  C:\Users\ESTEBAN\AppData\Local\Temp\ccuG9BOe.s 			page 75


 2534 0911 13       		.uleb128 0x13
 2535 0912 CD000000 		.4byte	0xcd
 2536 0916 10       		.byte	0x10
 2537 0917 00       		.byte	0
 2538 0918 14       		.uleb128 0x14
 2539 0919 6B000000 		.4byte	0x6b
 2540 091d 1B       		.uleb128 0x1b
 2541 091e 78030000 		.4byte	.LASF53
 2542 0922 01       		.byte	0x1
 2543 0923 21       		.byte	0x21
 2544 0924 2E090000 		.4byte	0x92e
 2545 0928 05       		.uleb128 0x5
 2546 0929 03       		.byte	0x3
 2547 092a 20000000 		.4byte	Display0_7SegDigits
 2548 092e 14       		.uleb128 0x14
 2549 092f 08090000 		.4byte	0x908
 2550 0933 1A       		.uleb128 0x1a
 2551 0934 AE030000 		.4byte	.LASF54
 2552 0938 01       		.byte	0x1
 2553 0939 0401     		.2byte	0x104
 2554 093b 6B000000 		.4byte	0x6b
 2555 093f 05       		.uleb128 0x5
 2556 0940 03       		.byte	0x3
 2557 0941 00000000 		.4byte	Display0_frameChannel
 2558 0945 12       		.uleb128 0x12
 2559 0946 6B000000 		.4byte	0x6b
 2560 094a 55090000 		.4byte	0x955
 2561 094e 13       		.uleb128 0x13
 2562 094f CD000000 		.4byte	0xcd
 2563 0953 1F       		.byte	0x1f
 2564 0954 00       		.byte	0
 2565 0955 1A       		.uleb128 0x1a
 2566 0956 5F050000 		.4byte	.LASF55
 2567 095a 01       		.byte	0x1
 2568 095b 0701     		.2byte	0x107
 2569 095d 45090000 		.4byte	0x945
 2570 0961 05       		.uleb128 0x5
 2571 0962 03       		.byte	0x3
 2572 0963 08000000 		.4byte	Display0_buffer
 2573 0967 12       		.uleb128 0x12
 2574 0968 6B000000 		.4byte	0x6b
 2575 096c 77090000 		.4byte	0x977
 2576 0970 13       		.uleb128 0x13
 2577 0971 CD000000 		.4byte	0xcd
 2578 0975 01       		.byte	0x1
 2579 0976 00       		.byte	0
 2580 0977 1A       		.uleb128 0x1a
 2581 0978 86040000 		.4byte	.LASF56
 2582 097c 01       		.byte	0x1
 2583 097d 0A01     		.2byte	0x10a
 2584 097f 67090000 		.4byte	0x967
 2585 0983 05       		.uleb128 0x5
 2586 0984 03       		.byte	0x3
 2587 0985 2C000000 		.4byte	Display0_lcdTd
 2588 0989 1A       		.uleb128 0x1a
 2589 098a 3C050000 		.4byte	.LASF57
 2590 098e 01       		.byte	0x1
ARM GAS  C:\Users\ESTEBAN\AppData\Local\Temp\ccuG9BOe.s 			page 76


 2591 098f 0D01     		.2byte	0x10d
 2592 0991 6B000000 		.4byte	0x6b
 2593 0995 05       		.uleb128 0x5
 2594 0996 03       		.byte	0x3
 2595 0997 28000000 		.4byte	Display0_lcdChannel
 2596 099b 12       		.uleb128 0x12
 2597 099c 77000000 		.4byte	0x77
 2598 09a0 AB090000 		.4byte	0x9ab
 2599 09a4 13       		.uleb128 0x13
 2600 09a5 CD000000 		.4byte	0xcd
 2601 09a9 01       		.byte	0x1
 2602 09aa 00       		.byte	0
 2603 09ab 1A       		.uleb128 0x1a
 2604 09ac C0020000 		.4byte	.LASF58
 2605 09b0 01       		.byte	0x1
 2606 09b1 1101     		.2byte	0x111
 2607 09b3 BD090000 		.4byte	0x9bd
 2608 09b7 05       		.uleb128 0x5
 2609 09b8 03       		.byte	0x3
 2610 09b9 00000000 		.4byte	Display0_commons
 2611 09bd 14       		.uleb128 0x14
 2612 09be 9B090000 		.4byte	0x99b
 2613 09c2 1A       		.uleb128 0x1a
 2614 09c3 36030000 		.4byte	.LASF59
 2615 09c7 01       		.byte	0x1
 2616 09c8 1301     		.2byte	0x113
 2617 09ca 67090000 		.4byte	0x967
 2618 09ce 05       		.uleb128 0x5
 2619 09cf 03       		.byte	0x3
 2620 09d0 00000000 		.4byte	Display0_frameTx
 2621 09d4 1A       		.uleb128 0x1a
 2622 09d5 75040000 		.4byte	.LASF60
 2623 09d9 01       		.byte	0x1
 2624 09da 1401     		.2byte	0x114
 2625 09dc 67090000 		.4byte	0x967
 2626 09e0 05       		.uleb128 0x5
 2627 09e1 03       		.byte	0x3
 2628 09e2 04000000 		.4byte	Display0_frameTd
 2629 09e6 1C       		.uleb128 0x1c
 2630 09e7 EF050000 		.4byte	.LASF84
 2631 09eb 01       		.byte	0x1
 2632 09ec 0101     		.2byte	0x101
 2633 09ee 6B000000 		.4byte	0x6b
 2634 09f2 05       		.uleb128 0x5
 2635 09f3 03       		.byte	0x3
 2636 09f4 00000000 		.4byte	Display0_initVar
 2637 09f8 1D       		.uleb128 0x1d
 2638 09f9 B5040000 		.4byte	.LASF61
 2639 09fd B5040000 		.4byte	.LASF61
 2640 0a01 04       		.byte	0x4
 2641 0a02 1E       		.byte	0x1e
 2642 0a03 1D       		.uleb128 0x1d
 2643 0a04 66000000 		.4byte	.LASF62
 2644 0a08 66000000 		.4byte	.LASF62
 2645 0a0c 05       		.byte	0x5
 2646 0a0d 38       		.byte	0x38
 2647 0a0e 1D       		.uleb128 0x1d
ARM GAS  C:\Users\ESTEBAN\AppData\Local\Temp\ccuG9BOe.s 			page 77


 2648 0a0f DE000000 		.4byte	.LASF63
 2649 0a13 DE000000 		.4byte	.LASF63
 2650 0a17 05       		.byte	0x5
 2651 0a18 3B       		.byte	0x3b
 2652 0a19 1D       		.uleb128 0x1d
 2653 0a1a F2020000 		.4byte	.LASF64
 2654 0a1e F2020000 		.4byte	.LASF64
 2655 0a22 05       		.byte	0x5
 2656 0a23 3F       		.byte	0x3f
 2657 0a24 1D       		.uleb128 0x1d
 2658 0a25 6F050000 		.4byte	.LASF65
 2659 0a29 6F050000 		.4byte	.LASF65
 2660 0a2d 05       		.byte	0x5
 2661 0a2e 2F       		.byte	0x2f
 2662 0a2f 1D       		.uleb128 0x1d
 2663 0a30 B9000000 		.4byte	.LASF66
 2664 0a34 B9000000 		.4byte	.LASF66
 2665 0a38 05       		.byte	0x5
 2666 0a39 29       		.byte	0x29
 2667 0a3a 1D       		.uleb128 0x1d
 2668 0a3b 47000000 		.4byte	.LASF67
 2669 0a3f 47000000 		.4byte	.LASF67
 2670 0a43 06       		.byte	0x6
 2671 0a44 1E       		.byte	0x1e
 2672 0a45 1D       		.uleb128 0x1d
 2673 0a46 1A030000 		.4byte	.LASF68
 2674 0a4a 1A030000 		.4byte	.LASF68
 2675 0a4e 06       		.byte	0x6
 2676 0a4f 1F       		.byte	0x1f
 2677 0a50 1D       		.uleb128 0x1d
 2678 0a51 00060000 		.4byte	.LASF69
 2679 0a55 00060000 		.4byte	.LASF69
 2680 0a59 05       		.byte	0x5
 2681 0a5a 28       		.byte	0x28
 2682 0a5b 1D       		.uleb128 0x1d
 2683 0a5c BD050000 		.4byte	.LASF70
 2684 0a60 BD050000 		.4byte	.LASF70
 2685 0a64 04       		.byte	0x4
 2686 0a65 1F       		.byte	0x1f
 2687 0a66 1D       		.uleb128 0x1d
 2688 0a67 B7010000 		.4byte	.LASF71
 2689 0a6b B7010000 		.4byte	.LASF71
 2690 0a6f 05       		.byte	0x5
 2691 0a70 39       		.byte	0x39
 2692 0a71 1D       		.uleb128 0x1d
 2693 0a72 5B020000 		.4byte	.LASF72
 2694 0a76 5B020000 		.4byte	.LASF72
 2695 0a7a 07       		.byte	0x7
 2696 0a7b 7D       		.byte	0x7d
 2697 0a7c 1D       		.uleb128 0x1d
 2698 0a7d 21000000 		.4byte	.LASF73
 2699 0a81 21000000 		.4byte	.LASF73
 2700 0a85 07       		.byte	0x7
 2701 0a86 7E       		.byte	0x7e
 2702 0a87 1D       		.uleb128 0x1d
 2703 0a88 76000000 		.4byte	.LASF74
 2704 0a8c 76000000 		.4byte	.LASF74
ARM GAS  C:\Users\ESTEBAN\AppData\Local\Temp\ccuG9BOe.s 			page 78


 2705 0a90 08       		.byte	0x8
 2706 0a91 27       		.byte	0x27
 2707 0a92 1D       		.uleb128 0x1d
 2708 0a93 85020000 		.4byte	.LASF75
 2709 0a97 85020000 		.4byte	.LASF75
 2710 0a9b 08       		.byte	0x8
 2711 0a9c 28       		.byte	0x28
 2712 0a9d 1D       		.uleb128 0x1d
 2713 0a9e 9D020000 		.4byte	.LASF76
 2714 0aa2 9D020000 		.4byte	.LASF76
 2715 0aa6 07       		.byte	0x7
 2716 0aa7 88       		.byte	0x88
 2717 0aa8 1D       		.uleb128 0x1d
 2718 0aa9 61030000 		.4byte	.LASF77
 2719 0aad 61030000 		.4byte	.LASF77
 2720 0ab1 07       		.byte	0x7
 2721 0ab2 8B       		.byte	0x8b
 2722 0ab3 00       		.byte	0
 2723              		.section	.debug_abbrev,"",%progbits
 2724              	.Ldebug_abbrev0:
 2725 0000 01       		.uleb128 0x1
 2726 0001 11       		.uleb128 0x11
 2727 0002 01       		.byte	0x1
 2728 0003 25       		.uleb128 0x25
 2729 0004 0E       		.uleb128 0xe
 2730 0005 13       		.uleb128 0x13
 2731 0006 0B       		.uleb128 0xb
 2732 0007 03       		.uleb128 0x3
 2733 0008 0E       		.uleb128 0xe
 2734 0009 1B       		.uleb128 0x1b
 2735 000a 0E       		.uleb128 0xe
 2736 000b 55       		.uleb128 0x55
 2737 000c 17       		.uleb128 0x17
 2738 000d 11       		.uleb128 0x11
 2739 000e 01       		.uleb128 0x1
 2740 000f 10       		.uleb128 0x10
 2741 0010 17       		.uleb128 0x17
 2742 0011 00       		.byte	0
 2743 0012 00       		.byte	0
 2744 0013 02       		.uleb128 0x2
 2745 0014 24       		.uleb128 0x24
 2746 0015 00       		.byte	0
 2747 0016 0B       		.uleb128 0xb
 2748 0017 0B       		.uleb128 0xb
 2749 0018 3E       		.uleb128 0x3e
 2750 0019 0B       		.uleb128 0xb
 2751 001a 03       		.uleb128 0x3
 2752 001b 0E       		.uleb128 0xe
 2753 001c 00       		.byte	0
 2754 001d 00       		.byte	0
 2755 001e 03       		.uleb128 0x3
 2756 001f 24       		.uleb128 0x24
 2757 0020 00       		.byte	0
 2758 0021 0B       		.uleb128 0xb
 2759 0022 0B       		.uleb128 0xb
 2760 0023 3E       		.uleb128 0x3e
 2761 0024 0B       		.uleb128 0xb
ARM GAS  C:\Users\ESTEBAN\AppData\Local\Temp\ccuG9BOe.s 			page 79


 2762 0025 03       		.uleb128 0x3
 2763 0026 08       		.uleb128 0x8
 2764 0027 00       		.byte	0
 2765 0028 00       		.byte	0
 2766 0029 04       		.uleb128 0x4
 2767 002a 16       		.uleb128 0x16
 2768 002b 00       		.byte	0
 2769 002c 03       		.uleb128 0x3
 2770 002d 0E       		.uleb128 0xe
 2771 002e 3A       		.uleb128 0x3a
 2772 002f 0B       		.uleb128 0xb
 2773 0030 3B       		.uleb128 0x3b
 2774 0031 05       		.uleb128 0x5
 2775 0032 49       		.uleb128 0x49
 2776 0033 13       		.uleb128 0x13
 2777 0034 00       		.byte	0
 2778 0035 00       		.byte	0
 2779 0036 05       		.uleb128 0x5
 2780 0037 35       		.uleb128 0x35
 2781 0038 00       		.byte	0
 2782 0039 49       		.uleb128 0x49
 2783 003a 13       		.uleb128 0x13
 2784 003b 00       		.byte	0
 2785 003c 00       		.byte	0
 2786 003d 06       		.uleb128 0x6
 2787 003e 13       		.uleb128 0x13
 2788 003f 01       		.byte	0x1
 2789 0040 03       		.uleb128 0x3
 2790 0041 0E       		.uleb128 0xe
 2791 0042 0B       		.uleb128 0xb
 2792 0043 0B       		.uleb128 0xb
 2793 0044 3A       		.uleb128 0x3a
 2794 0045 0B       		.uleb128 0xb
 2795 0046 3B       		.uleb128 0x3b
 2796 0047 0B       		.uleb128 0xb
 2797 0048 01       		.uleb128 0x1
 2798 0049 13       		.uleb128 0x13
 2799 004a 00       		.byte	0
 2800 004b 00       		.byte	0
 2801 004c 07       		.uleb128 0x7
 2802 004d 0D       		.uleb128 0xd
 2803 004e 00       		.byte	0
 2804 004f 03       		.uleb128 0x3
 2805 0050 0E       		.uleb128 0xe
 2806 0051 3A       		.uleb128 0x3a
 2807 0052 0B       		.uleb128 0xb
 2808 0053 3B       		.uleb128 0x3b
 2809 0054 0B       		.uleb128 0xb
 2810 0055 49       		.uleb128 0x49
 2811 0056 13       		.uleb128 0x13
 2812 0057 38       		.uleb128 0x38
 2813 0058 0B       		.uleb128 0xb
 2814 0059 00       		.byte	0
 2815 005a 00       		.byte	0
 2816 005b 08       		.uleb128 0x8
 2817 005c 2E       		.uleb128 0x2e
 2818 005d 01       		.byte	0x1
ARM GAS  C:\Users\ESTEBAN\AppData\Local\Temp\ccuG9BOe.s 			page 80


 2819 005e 03       		.uleb128 0x3
 2820 005f 0E       		.uleb128 0xe
 2821 0060 3A       		.uleb128 0x3a
 2822 0061 0B       		.uleb128 0xb
 2823 0062 3B       		.uleb128 0x3b
 2824 0063 05       		.uleb128 0x5
 2825 0064 27       		.uleb128 0x27
 2826 0065 19       		.uleb128 0x19
 2827 0066 11       		.uleb128 0x11
 2828 0067 01       		.uleb128 0x1
 2829 0068 12       		.uleb128 0x12
 2830 0069 06       		.uleb128 0x6
 2831 006a 40       		.uleb128 0x40
 2832 006b 18       		.uleb128 0x18
 2833 006c 9742     		.uleb128 0x2117
 2834 006e 19       		.uleb128 0x19
 2835 006f 01       		.uleb128 0x1
 2836 0070 13       		.uleb128 0x13
 2837 0071 00       		.byte	0
 2838 0072 00       		.byte	0
 2839 0073 09       		.uleb128 0x9
 2840 0074 05       		.uleb128 0x5
 2841 0075 00       		.byte	0
 2842 0076 03       		.uleb128 0x3
 2843 0077 0E       		.uleb128 0xe
 2844 0078 3A       		.uleb128 0x3a
 2845 0079 0B       		.uleb128 0xb
 2846 007a 3B       		.uleb128 0x3b
 2847 007b 05       		.uleb128 0x5
 2848 007c 49       		.uleb128 0x49
 2849 007d 13       		.uleb128 0x13
 2850 007e 02       		.uleb128 0x2
 2851 007f 18       		.uleb128 0x18
 2852 0080 00       		.byte	0
 2853 0081 00       		.byte	0
 2854 0082 0A       		.uleb128 0xa
 2855 0083 34       		.uleb128 0x34
 2856 0084 00       		.byte	0
 2857 0085 03       		.uleb128 0x3
 2858 0086 08       		.uleb128 0x8
 2859 0087 3A       		.uleb128 0x3a
 2860 0088 0B       		.uleb128 0xb
 2861 0089 3B       		.uleb128 0x3b
 2862 008a 05       		.uleb128 0x5
 2863 008b 49       		.uleb128 0x49
 2864 008c 13       		.uleb128 0x13
 2865 008d 02       		.uleb128 0x2
 2866 008e 17       		.uleb128 0x17
 2867 008f 00       		.byte	0
 2868 0090 00       		.byte	0
 2869 0091 0B       		.uleb128 0xb
 2870 0092 2E       		.uleb128 0x2e
 2871 0093 01       		.byte	0x1
 2872 0094 03       		.uleb128 0x3
 2873 0095 0E       		.uleb128 0xe
 2874 0096 3A       		.uleb128 0x3a
 2875 0097 0B       		.uleb128 0xb
ARM GAS  C:\Users\ESTEBAN\AppData\Local\Temp\ccuG9BOe.s 			page 81


 2876 0098 3B       		.uleb128 0x3b
 2877 0099 05       		.uleb128 0x5
 2878 009a 27       		.uleb128 0x27
 2879 009b 19       		.uleb128 0x19
 2880 009c 49       		.uleb128 0x49
 2881 009d 13       		.uleb128 0x13
 2882 009e 11       		.uleb128 0x11
 2883 009f 01       		.uleb128 0x1
 2884 00a0 12       		.uleb128 0x12
 2885 00a1 06       		.uleb128 0x6
 2886 00a2 40       		.uleb128 0x40
 2887 00a3 18       		.uleb128 0x18
 2888 00a4 9742     		.uleb128 0x2117
 2889 00a6 19       		.uleb128 0x19
 2890 00a7 01       		.uleb128 0x1
 2891 00a8 13       		.uleb128 0x13
 2892 00a9 00       		.byte	0
 2893 00aa 00       		.byte	0
 2894 00ab 0C       		.uleb128 0xc
 2895 00ac 34       		.uleb128 0x34
 2896 00ad 00       		.byte	0
 2897 00ae 03       		.uleb128 0x3
 2898 00af 0E       		.uleb128 0xe
 2899 00b0 3A       		.uleb128 0x3a
 2900 00b1 0B       		.uleb128 0xb
 2901 00b2 3B       		.uleb128 0x3b
 2902 00b3 05       		.uleb128 0x5
 2903 00b4 49       		.uleb128 0x49
 2904 00b5 13       		.uleb128 0x13
 2905 00b6 02       		.uleb128 0x2
 2906 00b7 17       		.uleb128 0x17
 2907 00b8 00       		.byte	0
 2908 00b9 00       		.byte	0
 2909 00ba 0D       		.uleb128 0xd
 2910 00bb 34       		.uleb128 0x34
 2911 00bc 00       		.byte	0
 2912 00bd 03       		.uleb128 0x3
 2913 00be 0E       		.uleb128 0xe
 2914 00bf 3A       		.uleb128 0x3a
 2915 00c0 0B       		.uleb128 0xb
 2916 00c1 3B       		.uleb128 0x3b
 2917 00c2 05       		.uleb128 0x5
 2918 00c3 49       		.uleb128 0x49
 2919 00c4 13       		.uleb128 0x13
 2920 00c5 1C       		.uleb128 0x1c
 2921 00c6 0A       		.uleb128 0xa
 2922 00c7 00       		.byte	0
 2923 00c8 00       		.byte	0
 2924 00c9 0E       		.uleb128 0xe
 2925 00ca 898201   		.uleb128 0x4109
 2926 00cd 01       		.byte	0x1
 2927 00ce 11       		.uleb128 0x11
 2928 00cf 01       		.uleb128 0x1
 2929 00d0 31       		.uleb128 0x31
 2930 00d1 13       		.uleb128 0x13
 2931 00d2 01       		.uleb128 0x1
 2932 00d3 13       		.uleb128 0x13
ARM GAS  C:\Users\ESTEBAN\AppData\Local\Temp\ccuG9BOe.s 			page 82


 2933 00d4 00       		.byte	0
 2934 00d5 00       		.byte	0
 2935 00d6 0F       		.uleb128 0xf
 2936 00d7 8A8201   		.uleb128 0x410a
 2937 00da 00       		.byte	0
 2938 00db 02       		.uleb128 0x2
 2939 00dc 18       		.uleb128 0x18
 2940 00dd 9142     		.uleb128 0x2111
 2941 00df 18       		.uleb128 0x18
 2942 00e0 00       		.byte	0
 2943 00e1 00       		.byte	0
 2944 00e2 10       		.uleb128 0x10
 2945 00e3 898201   		.uleb128 0x4109
 2946 00e6 00       		.byte	0
 2947 00e7 11       		.uleb128 0x11
 2948 00e8 01       		.uleb128 0x1
 2949 00e9 31       		.uleb128 0x31
 2950 00ea 13       		.uleb128 0x13
 2951 00eb 00       		.byte	0
 2952 00ec 00       		.byte	0
 2953 00ed 11       		.uleb128 0x11
 2954 00ee 898201   		.uleb128 0x4109
 2955 00f1 01       		.byte	0x1
 2956 00f2 11       		.uleb128 0x11
 2957 00f3 01       		.uleb128 0x1
 2958 00f4 31       		.uleb128 0x31
 2959 00f5 13       		.uleb128 0x13
 2960 00f6 00       		.byte	0
 2961 00f7 00       		.byte	0
 2962 00f8 12       		.uleb128 0x12
 2963 00f9 01       		.uleb128 0x1
 2964 00fa 01       		.byte	0x1
 2965 00fb 49       		.uleb128 0x49
 2966 00fc 13       		.uleb128 0x13
 2967 00fd 01       		.uleb128 0x1
 2968 00fe 13       		.uleb128 0x13
 2969 00ff 00       		.byte	0
 2970 0100 00       		.byte	0
 2971 0101 13       		.uleb128 0x13
 2972 0102 21       		.uleb128 0x21
 2973 0103 00       		.byte	0
 2974 0104 49       		.uleb128 0x49
 2975 0105 13       		.uleb128 0x13
 2976 0106 2F       		.uleb128 0x2f
 2977 0107 0B       		.uleb128 0xb
 2978 0108 00       		.byte	0
 2979 0109 00       		.byte	0
 2980 010a 14       		.uleb128 0x14
 2981 010b 26       		.uleb128 0x26
 2982 010c 00       		.byte	0
 2983 010d 49       		.uleb128 0x49
 2984 010e 13       		.uleb128 0x13
 2985 010f 00       		.byte	0
 2986 0110 00       		.byte	0
 2987 0111 15       		.uleb128 0x15
 2988 0112 2E       		.uleb128 0x2e
 2989 0113 01       		.byte	0x1
ARM GAS  C:\Users\ESTEBAN\AppData\Local\Temp\ccuG9BOe.s 			page 83


 2990 0114 3F       		.uleb128 0x3f
 2991 0115 19       		.uleb128 0x19
 2992 0116 03       		.uleb128 0x3
 2993 0117 0E       		.uleb128 0xe
 2994 0118 3A       		.uleb128 0x3a
 2995 0119 0B       		.uleb128 0xb
 2996 011a 3B       		.uleb128 0x3b
 2997 011b 05       		.uleb128 0x5
 2998 011c 27       		.uleb128 0x27
 2999 011d 19       		.uleb128 0x19
 3000 011e 49       		.uleb128 0x49
 3001 011f 13       		.uleb128 0x13
 3002 0120 11       		.uleb128 0x11
 3003 0121 01       		.uleb128 0x1
 3004 0122 12       		.uleb128 0x12
 3005 0123 06       		.uleb128 0x6
 3006 0124 40       		.uleb128 0x40
 3007 0125 18       		.uleb128 0x18
 3008 0126 9742     		.uleb128 0x2117
 3009 0128 19       		.uleb128 0x19
 3010 0129 01       		.uleb128 0x1
 3011 012a 13       		.uleb128 0x13
 3012 012b 00       		.byte	0
 3013 012c 00       		.byte	0
 3014 012d 16       		.uleb128 0x16
 3015 012e 2E       		.uleb128 0x2e
 3016 012f 01       		.byte	0x1
 3017 0130 3F       		.uleb128 0x3f
 3018 0131 19       		.uleb128 0x19
 3019 0132 03       		.uleb128 0x3
 3020 0133 0E       		.uleb128 0xe
 3021 0134 3A       		.uleb128 0x3a
 3022 0135 0B       		.uleb128 0xb
 3023 0136 3B       		.uleb128 0x3b
 3024 0137 05       		.uleb128 0x5
 3025 0138 27       		.uleb128 0x27
 3026 0139 19       		.uleb128 0x19
 3027 013a 11       		.uleb128 0x11
 3028 013b 01       		.uleb128 0x1
 3029 013c 12       		.uleb128 0x12
 3030 013d 06       		.uleb128 0x6
 3031 013e 40       		.uleb128 0x40
 3032 013f 18       		.uleb128 0x18
 3033 0140 9742     		.uleb128 0x2117
 3034 0142 19       		.uleb128 0x19
 3035 0143 01       		.uleb128 0x1
 3036 0144 13       		.uleb128 0x13
 3037 0145 00       		.byte	0
 3038 0146 00       		.byte	0
 3039 0147 17       		.uleb128 0x17
 3040 0148 2E       		.uleb128 0x2e
 3041 0149 00       		.byte	0
 3042 014a 3F       		.uleb128 0x3f
 3043 014b 19       		.uleb128 0x19
 3044 014c 03       		.uleb128 0x3
 3045 014d 0E       		.uleb128 0xe
 3046 014e 3A       		.uleb128 0x3a
ARM GAS  C:\Users\ESTEBAN\AppData\Local\Temp\ccuG9BOe.s 			page 84


 3047 014f 0B       		.uleb128 0xb
 3048 0150 3B       		.uleb128 0x3b
 3049 0151 05       		.uleb128 0x5
 3050 0152 27       		.uleb128 0x27
 3051 0153 19       		.uleb128 0x19
 3052 0154 11       		.uleb128 0x11
 3053 0155 01       		.uleb128 0x1
 3054 0156 12       		.uleb128 0x12
 3055 0157 06       		.uleb128 0x6
 3056 0158 40       		.uleb128 0x40
 3057 0159 18       		.uleb128 0x18
 3058 015a 9742     		.uleb128 0x2117
 3059 015c 19       		.uleb128 0x19
 3060 015d 00       		.byte	0
 3061 015e 00       		.byte	0
 3062 015f 18       		.uleb128 0x18
 3063 0160 05       		.uleb128 0x5
 3064 0161 00       		.byte	0
 3065 0162 03       		.uleb128 0x3
 3066 0163 0E       		.uleb128 0xe
 3067 0164 3A       		.uleb128 0x3a
 3068 0165 0B       		.uleb128 0xb
 3069 0166 3B       		.uleb128 0x3b
 3070 0167 05       		.uleb128 0x5
 3071 0168 49       		.uleb128 0x49
 3072 0169 13       		.uleb128 0x13
 3073 016a 02       		.uleb128 0x2
 3074 016b 17       		.uleb128 0x17
 3075 016c 00       		.byte	0
 3076 016d 00       		.byte	0
 3077 016e 19       		.uleb128 0x19
 3078 016f 2E       		.uleb128 0x2e
 3079 0170 00       		.byte	0
 3080 0171 3F       		.uleb128 0x3f
 3081 0172 19       		.uleb128 0x19
 3082 0173 03       		.uleb128 0x3
 3083 0174 0E       		.uleb128 0xe
 3084 0175 3A       		.uleb128 0x3a
 3085 0176 0B       		.uleb128 0xb
 3086 0177 3B       		.uleb128 0x3b
 3087 0178 05       		.uleb128 0x5
 3088 0179 27       		.uleb128 0x27
 3089 017a 19       		.uleb128 0x19
 3090 017b 49       		.uleb128 0x49
 3091 017c 13       		.uleb128 0x13
 3092 017d 11       		.uleb128 0x11
 3093 017e 01       		.uleb128 0x1
 3094 017f 12       		.uleb128 0x12
 3095 0180 06       		.uleb128 0x6
 3096 0181 40       		.uleb128 0x40
 3097 0182 18       		.uleb128 0x18
 3098 0183 9742     		.uleb128 0x2117
 3099 0185 19       		.uleb128 0x19
 3100 0186 00       		.byte	0
 3101 0187 00       		.byte	0
 3102 0188 1A       		.uleb128 0x1a
 3103 0189 34       		.uleb128 0x34
ARM GAS  C:\Users\ESTEBAN\AppData\Local\Temp\ccuG9BOe.s 			page 85


 3104 018a 00       		.byte	0
 3105 018b 03       		.uleb128 0x3
 3106 018c 0E       		.uleb128 0xe
 3107 018d 3A       		.uleb128 0x3a
 3108 018e 0B       		.uleb128 0xb
 3109 018f 3B       		.uleb128 0x3b
 3110 0190 05       		.uleb128 0x5
 3111 0191 49       		.uleb128 0x49
 3112 0192 13       		.uleb128 0x13
 3113 0193 02       		.uleb128 0x2
 3114 0194 18       		.uleb128 0x18
 3115 0195 00       		.byte	0
 3116 0196 00       		.byte	0
 3117 0197 1B       		.uleb128 0x1b
 3118 0198 34       		.uleb128 0x34
 3119 0199 00       		.byte	0
 3120 019a 03       		.uleb128 0x3
 3121 019b 0E       		.uleb128 0xe
 3122 019c 3A       		.uleb128 0x3a
 3123 019d 0B       		.uleb128 0xb
 3124 019e 3B       		.uleb128 0x3b
 3125 019f 0B       		.uleb128 0xb
 3126 01a0 49       		.uleb128 0x49
 3127 01a1 13       		.uleb128 0x13
 3128 01a2 02       		.uleb128 0x2
 3129 01a3 18       		.uleb128 0x18
 3130 01a4 00       		.byte	0
 3131 01a5 00       		.byte	0
 3132 01a6 1C       		.uleb128 0x1c
 3133 01a7 34       		.uleb128 0x34
 3134 01a8 00       		.byte	0
 3135 01a9 03       		.uleb128 0x3
 3136 01aa 0E       		.uleb128 0xe
 3137 01ab 3A       		.uleb128 0x3a
 3138 01ac 0B       		.uleb128 0xb
 3139 01ad 3B       		.uleb128 0x3b
 3140 01ae 05       		.uleb128 0x5
 3141 01af 49       		.uleb128 0x49
 3142 01b0 13       		.uleb128 0x13
 3143 01b1 3F       		.uleb128 0x3f
 3144 01b2 19       		.uleb128 0x19
 3145 01b3 02       		.uleb128 0x2
 3146 01b4 18       		.uleb128 0x18
 3147 01b5 00       		.byte	0
 3148 01b6 00       		.byte	0
 3149 01b7 1D       		.uleb128 0x1d
 3150 01b8 2E       		.uleb128 0x2e
 3151 01b9 00       		.byte	0
 3152 01ba 3F       		.uleb128 0x3f
 3153 01bb 19       		.uleb128 0x19
 3154 01bc 3C       		.uleb128 0x3c
 3155 01bd 19       		.uleb128 0x19
 3156 01be 6E       		.uleb128 0x6e
 3157 01bf 0E       		.uleb128 0xe
 3158 01c0 03       		.uleb128 0x3
 3159 01c1 0E       		.uleb128 0xe
 3160 01c2 3A       		.uleb128 0x3a
ARM GAS  C:\Users\ESTEBAN\AppData\Local\Temp\ccuG9BOe.s 			page 86


 3161 01c3 0B       		.uleb128 0xb
 3162 01c4 3B       		.uleb128 0x3b
 3163 01c5 0B       		.uleb128 0xb
 3164 01c6 00       		.byte	0
 3165 01c7 00       		.byte	0
 3166 01c8 00       		.byte	0
 3167              		.section	.debug_loc,"",%progbits
 3168              	.Ldebug_loc0:
 3169              	.LLST0:
 3170 0000 02000000 		.4byte	.LVL1
 3171 0004 06000000 		.4byte	.LVL2
 3172 0008 0200     		.2byte	0x2
 3173 000a 30       		.byte	0x30
 3174 000b 9F       		.byte	0x9f
 3175 000c 06000000 		.4byte	.LVL2
 3176 0010 12000000 		.4byte	.LVL3
 3177 0014 0100     		.2byte	0x1
 3178 0016 53       		.byte	0x53
 3179 0017 14000000 		.4byte	.LVL4
 3180 001b 20000000 		.4byte	.LFE16
 3181 001f 0100     		.2byte	0x1
 3182 0021 53       		.byte	0x53
 3183 0022 00000000 		.4byte	0
 3184 0026 00000000 		.4byte	0
 3185              	.LLST1:
 3186 002a 02000000 		.4byte	.LVL5
 3187 002e 24000000 		.4byte	.LVL8
 3188 0032 0200     		.2byte	0x2
 3189 0034 30       		.byte	0x30
 3190 0035 9F       		.byte	0x9f
 3191 0036 24000000 		.4byte	.LVL8
 3192 003a A2000000 		.4byte	.LVL22
 3193 003e 0100     		.2byte	0x1
 3194 0040 56       		.byte	0x56
 3195 0041 A6000000 		.4byte	.LVL23
 3196 0045 32010000 		.4byte	.LVL38
 3197 0049 0100     		.2byte	0x1
 3198 004b 56       		.byte	0x56
 3199 004c 00000000 		.4byte	0
 3200 0050 00000000 		.4byte	0
 3201              	.LLST2:
 3202 0054 24000000 		.4byte	.LVL8
 3203 0058 36000000 		.4byte	.LVL11
 3204 005c 0100     		.2byte	0x1
 3205 005e 54       		.byte	0x54
 3206 005f 38000000 		.4byte	.LVL12
 3207 0063 4C000000 		.4byte	.LVL14
 3208 0067 0100     		.2byte	0x1
 3209 0069 54       		.byte	0x54
 3210 006a 00000000 		.4byte	0
 3211 006e 00000000 		.4byte	0
 3212              	.LLST3:
 3213 0072 A6000000 		.4byte	.LVL23
 3214 0076 BA000000 		.4byte	.LVL26
 3215 007a 0100     		.2byte	0x1
 3216 007c 54       		.byte	0x54
 3217 007d BC000000 		.4byte	.LVL27
ARM GAS  C:\Users\ESTEBAN\AppData\Local\Temp\ccuG9BOe.s 			page 87


 3218 0081 C2000000 		.4byte	.LVL28
 3219 0085 0100     		.2byte	0x1
 3220 0087 54       		.byte	0x54
 3221 0088 C4000000 		.4byte	.LVL29
 3222 008c 0E010000 		.4byte	.LVL33
 3223 0090 0100     		.2byte	0x1
 3224 0092 54       		.byte	0x54
 3225 0093 10010000 		.4byte	.LVL34
 3226 0097 18010000 		.4byte	.LVL35
 3227 009b 0100     		.2byte	0x1
 3228 009d 54       		.byte	0x54
 3229 009e 00000000 		.4byte	0
 3230 00a2 00000000 		.4byte	0
 3231              	.LLST4:
 3232 00a6 04000000 		.4byte	.LVL6
 3233 00aa 8A000000 		.4byte	.LVL20
 3234 00ae 0600     		.2byte	0x6
 3235 00b0 03       		.byte	0x3
 3236 00b1 00000000 		.4byte	.LANCHOR0
 3237 00b5 9F       		.byte	0x9f
 3238 00b6 8A000000 		.4byte	.LVL20
 3239 00ba 32010000 		.4byte	.LVL38
 3240 00be 0100     		.2byte	0x1
 3241 00c0 55       		.byte	0x55
 3242 00c1 32010000 		.4byte	.LVL38
 3243 00c5 3C010000 		.4byte	.LFE2
 3244 00c9 0600     		.2byte	0x6
 3245 00cb 03       		.byte	0x3
 3246 00cc 08000000 		.4byte	.LANCHOR1+8
 3247 00d0 9F       		.byte	0x9f
 3248 00d1 00000000 		.4byte	0
 3249 00d5 00000000 		.4byte	0
 3250              	.LLST5:
 3251 00d9 04000000 		.4byte	.LVL6
 3252 00dd 8A000000 		.4byte	.LVL20
 3253 00e1 0600     		.2byte	0x6
 3254 00e3 0C       		.byte	0xc
 3255 00e4 7B640040 		.4byte	0x4000647b
 3256 00e8 9F       		.byte	0x9f
 3257 00e9 8A000000 		.4byte	.LVL20
 3258 00ed 3C010000 		.4byte	.LFE2
 3259 00f1 0600     		.2byte	0x6
 3260 00f3 0C       		.byte	0xc
 3261 00f4 80500040 		.4byte	0x40005080
 3262 00f8 9F       		.byte	0x9f
 3263 00f9 00000000 		.4byte	0
 3264 00fd 00000000 		.4byte	0
 3265              	.LLST6:
 3266 0101 1A000000 		.4byte	.LVL42
 3267 0105 1E000000 		.4byte	.LVL43
 3268 0109 0200     		.2byte	0x2
 3269 010b 30       		.byte	0x30
 3270 010c 9F       		.byte	0x9f
 3271 010d 1E000000 		.4byte	.LVL43
 3272 0111 2A000000 		.4byte	.LVL45
 3273 0115 0100     		.2byte	0x1
 3274 0117 54       		.byte	0x54
ARM GAS  C:\Users\ESTEBAN\AppData\Local\Temp\ccuG9BOe.s 			page 88


 3275 0118 2C000000 		.4byte	.LVL46
 3276 011c 32000000 		.4byte	.LVL47
 3277 0120 0100     		.2byte	0x1
 3278 0122 54       		.byte	0x54
 3279 0123 34000000 		.4byte	.LVL48
 3280 0127 42000000 		.4byte	.LVL50
 3281 012b 0100     		.2byte	0x1
 3282 012d 54       		.byte	0x54
 3283 012e 44000000 		.4byte	.LVL51
 3284 0132 4A000000 		.4byte	.LVL52
 3285 0136 0100     		.2byte	0x1
 3286 0138 54       		.byte	0x54
 3287 0139 00000000 		.4byte	0
 3288 013d 00000000 		.4byte	0
 3289              	.LLST7:
 3290 0141 28000000 		.4byte	.LVL57
 3291 0145 58000000 		.4byte	.LVL60
 3292 0149 0100     		.2byte	0x1
 3293 014b 54       		.byte	0x54
 3294 014c 00000000 		.4byte	0
 3295 0150 00000000 		.4byte	0
 3296              	.LLST8:
 3297 0154 06000000 		.4byte	.LVL53
 3298 0158 1D000000 		.4byte	.LVL54-1
 3299 015c 0100     		.2byte	0x1
 3300 015e 50       		.byte	0x50
 3301 015f 00000000 		.4byte	0
 3302 0163 00000000 		.4byte	0
 3303              	.LLST9:
 3304 0167 28000000 		.4byte	.LVL62
 3305 016b 3F000000 		.4byte	.LVL63-1
 3306 016f 0100     		.2byte	0x1
 3307 0171 50       		.byte	0x50
 3308 0172 00000000 		.4byte	0
 3309 0176 00000000 		.4byte	0
 3310              	.LLST10:
 3311 017a 00000000 		.4byte	.LVL66
 3312 017e 0A000000 		.4byte	.LVL68
 3313 0182 0100     		.2byte	0x1
 3314 0184 50       		.byte	0x50
 3315 0185 0A000000 		.4byte	.LVL68
 3316 0189 0C000000 		.4byte	.LVL69
 3317 018d 0200     		.2byte	0x2
 3318 018f 73       		.byte	0x73
 3319 0190 00       		.sleb128 0
 3320 0191 0C000000 		.4byte	.LVL69
 3321 0195 0E000000 		.4byte	.LVL70
 3322 0199 0100     		.2byte	0x1
 3323 019b 50       		.byte	0x50
 3324 019c 0E000000 		.4byte	.LVL70
 3325 01a0 14000000 		.4byte	.LFE8
 3326 01a4 0400     		.2byte	0x4
 3327 01a6 F3       		.byte	0xf3
 3328 01a7 01       		.uleb128 0x1
 3329 01a8 50       		.byte	0x50
 3330 01a9 9F       		.byte	0x9f
 3331 01aa 00000000 		.4byte	0
ARM GAS  C:\Users\ESTEBAN\AppData\Local\Temp\ccuG9BOe.s 			page 89


 3332 01ae 00000000 		.4byte	0
 3333              	.LLST11:
 3334 01b2 08000000 		.4byte	.LVL67
 3335 01b6 0C000000 		.4byte	.LVL69
 3336 01ba 0200     		.2byte	0x2
 3337 01bc 30       		.byte	0x30
 3338 01bd 9F       		.byte	0x9f
 3339 01be 0E000000 		.4byte	.LVL70
 3340 01c2 14000000 		.4byte	.LFE8
 3341 01c6 0100     		.2byte	0x1
 3342 01c8 50       		.byte	0x50
 3343 01c9 00000000 		.4byte	0
 3344 01cd 00000000 		.4byte	0
 3345              	.LLST12:
 3346 01d1 00000000 		.4byte	.LVL71
 3347 01d5 14000000 		.4byte	.LVL74
 3348 01d9 0100     		.2byte	0x1
 3349 01db 50       		.byte	0x50
 3350 01dc 14000000 		.4byte	.LVL74
 3351 01e0 28000000 		.4byte	.LVL79
 3352 01e4 0400     		.2byte	0x4
 3353 01e6 F3       		.byte	0xf3
 3354 01e7 01       		.uleb128 0x1
 3355 01e8 50       		.byte	0x50
 3356 01e9 9F       		.byte	0x9f
 3357 01ea 28000000 		.4byte	.LVL79
 3358 01ee 2A000000 		.4byte	.LVL80
 3359 01f2 0100     		.2byte	0x1
 3360 01f4 50       		.byte	0x50
 3361 01f5 2A000000 		.4byte	.LVL80
 3362 01f9 30000000 		.4byte	.LFE13
 3363 01fd 0400     		.2byte	0x4
 3364 01ff F3       		.byte	0xf3
 3365 0200 01       		.uleb128 0x1
 3366 0201 50       		.byte	0x50
 3367 0202 9F       		.byte	0x9f
 3368 0203 00000000 		.4byte	0
 3369 0207 00000000 		.4byte	0
 3370              	.LLST13:
 3371 020b 26000000 		.4byte	.LVL78
 3372 020f 28000000 		.4byte	.LVL79
 3373 0213 0100     		.2byte	0x1
 3374 0215 50       		.byte	0x50
 3375 0216 2A000000 		.4byte	.LVL80
 3376 021a 30000000 		.4byte	.LFE13
 3377 021e 0100     		.2byte	0x1
 3378 0220 50       		.byte	0x50
 3379 0221 00000000 		.4byte	0
 3380 0225 00000000 		.4byte	0
 3381              	.LLST14:
 3382 0229 0C000000 		.4byte	.LVL72
 3383 022d 1A000000 		.4byte	.LVL76
 3384 0231 0100     		.2byte	0x1
 3385 0233 52       		.byte	0x52
 3386 0234 00000000 		.4byte	0
 3387 0238 00000000 		.4byte	0
 3388              	.LLST15:
ARM GAS  C:\Users\ESTEBAN\AppData\Local\Temp\ccuG9BOe.s 			page 90


 3389 023c 10000000 		.4byte	.LVL73
 3390 0240 18000000 		.4byte	.LVL75
 3391 0244 0100     		.2byte	0x1
 3392 0246 53       		.byte	0x53
 3393 0247 00000000 		.4byte	0
 3394 024b 00000000 		.4byte	0
 3395              	.LLST16:
 3396 024f 14000000 		.4byte	.LVL74
 3397 0253 22000000 		.4byte	.LVL77
 3398 0257 0100     		.2byte	0x1
 3399 0259 50       		.byte	0x50
 3400 025a 00000000 		.4byte	0
 3401 025e 00000000 		.4byte	0
 3402              	.LLST17:
 3403 0262 00000000 		.4byte	.LVL81
 3404 0266 16000000 		.4byte	.LVL82
 3405 026a 0100     		.2byte	0x1
 3406 026c 50       		.byte	0x50
 3407 026d 16000000 		.4byte	.LVL82
 3408 0271 4A000000 		.4byte	.LVL95
 3409 0275 0400     		.2byte	0x4
 3410 0277 F3       		.byte	0xf3
 3411 0278 01       		.uleb128 0x1
 3412 0279 50       		.byte	0x50
 3413 027a 9F       		.byte	0x9f
 3414 027b 4A000000 		.4byte	.LVL95
 3415 027f 4C000000 		.4byte	.LVL96
 3416 0283 0100     		.2byte	0x1
 3417 0285 50       		.byte	0x50
 3418 0286 4C000000 		.4byte	.LVL96
 3419 028a 54000000 		.4byte	.LFE12
 3420 028e 0400     		.2byte	0x4
 3421 0290 F3       		.byte	0xf3
 3422 0291 01       		.uleb128 0x1
 3423 0292 50       		.byte	0x50
 3424 0293 9F       		.byte	0x9f
 3425 0294 00000000 		.4byte	0
 3426 0298 00000000 		.4byte	0
 3427              	.LLST18:
 3428 029c 00000000 		.4byte	.LVL81
 3429 02a0 19000000 		.4byte	.LVL83-1
 3430 02a4 0100     		.2byte	0x1
 3431 02a6 51       		.byte	0x51
 3432 02a7 19000000 		.4byte	.LVL83-1
 3433 02ab 1A000000 		.4byte	.LVL83
 3434 02af 0400     		.2byte	0x4
 3435 02b1 F3       		.byte	0xf3
 3436 02b2 01       		.uleb128 0x1
 3437 02b3 51       		.byte	0x51
 3438 02b4 9F       		.byte	0x9f
 3439 02b5 1A000000 		.4byte	.LVL83
 3440 02b9 1C000000 		.4byte	.LVL84
 3441 02bd 0100     		.2byte	0x1
 3442 02bf 50       		.byte	0x50
 3443 02c0 1E000000 		.4byte	.LVL85
 3444 02c4 54000000 		.4byte	.LFE12
 3445 02c8 0100     		.2byte	0x1
ARM GAS  C:\Users\ESTEBAN\AppData\Local\Temp\ccuG9BOe.s 			page 91


 3446 02ca 51       		.byte	0x51
 3447 02cb 00000000 		.4byte	0
 3448 02cf 00000000 		.4byte	0
 3449              	.LLST19:
 3450 02d3 30000000 		.4byte	.LVL89
 3451 02d7 42000000 		.4byte	.LVL93
 3452 02db 0400     		.2byte	0x4
 3453 02dd 72       		.byte	0x72
 3454 02de 00       		.sleb128 0
 3455 02df 20       		.byte	0x20
 3456 02e0 9F       		.byte	0x9f
 3457 02e1 00000000 		.4byte	0
 3458 02e5 00000000 		.4byte	0
 3459              	.LLST20:
 3460 02e9 22000000 		.4byte	.LVL86
 3461 02ed 36000000 		.4byte	.LVL91
 3462 02f1 0100     		.2byte	0x1
 3463 02f3 50       		.byte	0x50
 3464 02f4 00000000 		.4byte	0
 3465 02f8 00000000 		.4byte	0
 3466              	.LLST21:
 3467 02fc 26000000 		.4byte	.LVL87
 3468 0300 34000000 		.4byte	.LVL90
 3469 0304 0100     		.2byte	0x1
 3470 0306 53       		.byte	0x53
 3471 0307 00000000 		.4byte	0
 3472 030b 00000000 		.4byte	0
 3473              	.LLST22:
 3474 030f 2A000000 		.4byte	.LVL88
 3475 0313 3E000000 		.4byte	.LVL92
 3476 0317 0100     		.2byte	0x1
 3477 0319 54       		.byte	0x54
 3478 031a 00000000 		.4byte	0
 3479 031e 00000000 		.4byte	0
 3480              	.LLST23:
 3481 0322 46000000 		.4byte	.LVL94
 3482 0326 4A000000 		.4byte	.LVL95
 3483 032a 0200     		.2byte	0x2
 3484 032c 30       		.byte	0x30
 3485 032d 9F       		.byte	0x9f
 3486 032e 4C000000 		.4byte	.LVL96
 3487 0332 54000000 		.4byte	.LFE12
 3488 0336 0100     		.2byte	0x1
 3489 0338 50       		.byte	0x50
 3490 0339 00000000 		.4byte	0
 3491 033d 00000000 		.4byte	0
 3492              	.LLST24:
 3493 0341 00000000 		.4byte	.LVL97
 3494 0345 18000000 		.4byte	.LVL99
 3495 0349 0100     		.2byte	0x1
 3496 034b 50       		.byte	0x50
 3497 034c 18000000 		.4byte	.LVL99
 3498 0350 7A000000 		.4byte	.LVL114
 3499 0354 0400     		.2byte	0x4
 3500 0356 F3       		.byte	0xf3
 3501 0357 01       		.uleb128 0x1
 3502 0358 50       		.byte	0x50
ARM GAS  C:\Users\ESTEBAN\AppData\Local\Temp\ccuG9BOe.s 			page 92


 3503 0359 9F       		.byte	0x9f
 3504 035a 7A000000 		.4byte	.LVL114
 3505 035e 7C000000 		.4byte	.LVL115
 3506 0362 0100     		.2byte	0x1
 3507 0364 50       		.byte	0x50
 3508 0365 7C000000 		.4byte	.LVL115
 3509 0369 88000000 		.4byte	.LFE9
 3510 036d 0400     		.2byte	0x4
 3511 036f F3       		.byte	0xf3
 3512 0370 01       		.uleb128 0x1
 3513 0371 50       		.byte	0x50
 3514 0372 9F       		.byte	0x9f
 3515 0373 00000000 		.4byte	0
 3516 0377 00000000 		.4byte	0
 3517              	.LLST25:
 3518 037b 74000000 		.4byte	.LVL113
 3519 037f 7A000000 		.4byte	.LVL114
 3520 0383 0200     		.2byte	0x2
 3521 0385 30       		.byte	0x30
 3522 0386 9F       		.byte	0x9f
 3523 0387 00000000 		.4byte	0
 3524 038b 00000000 		.4byte	0
 3525              	.LLST26:
 3526 038f 12000000 		.4byte	.LVL98
 3527 0393 7A000000 		.4byte	.LVL114
 3528 0397 0100     		.2byte	0x1
 3529 0399 57       		.byte	0x57
 3530 039a 00000000 		.4byte	0
 3531 039e 00000000 		.4byte	0
 3532              	.LLST27:
 3533 03a2 1E000000 		.4byte	.LVL100
 3534 03a6 26000000 		.4byte	.LVL102
 3535 03aa 0100     		.2byte	0x1
 3536 03ac 54       		.byte	0x54
 3537 03ad 2C000000 		.4byte	.LVL103
 3538 03b1 44000000 		.4byte	.LVL108
 3539 03b5 0100     		.2byte	0x1
 3540 03b7 54       		.byte	0x54
 3541 03b8 00000000 		.4byte	0
 3542 03bc 00000000 		.4byte	0
 3543              	.LLST28:
 3544 03c0 1E000000 		.4byte	.LVL100
 3545 03c4 22000000 		.4byte	.LVL101
 3546 03c8 0200     		.2byte	0x2
 3547 03ca 30       		.byte	0x30
 3548 03cb 9F       		.byte	0x9f
 3549 03cc 22000000 		.4byte	.LVL101
 3550 03d0 36000000 		.4byte	.LVL105
 3551 03d4 0100     		.2byte	0x1
 3552 03d6 55       		.byte	0x55
 3553 03d7 38000000 		.4byte	.LVL106
 3554 03db 44000000 		.4byte	.LVL108
 3555 03df 0100     		.2byte	0x1
 3556 03e1 55       		.byte	0x55
 3557 03e2 00000000 		.4byte	0
 3558 03e6 00000000 		.4byte	0
 3559              	.LLST29:
ARM GAS  C:\Users\ESTEBAN\AppData\Local\Temp\ccuG9BOe.s 			page 93


 3560 03ea 12000000 		.4byte	.LVL98
 3561 03ee 18000000 		.4byte	.LVL99
 3562 03f2 0200     		.2byte	0x2
 3563 03f4 30       		.byte	0x30
 3564 03f5 9F       		.byte	0x9f
 3565 03f6 18000000 		.4byte	.LVL99
 3566 03fa 40000000 		.4byte	.LVL107
 3567 03fe 0100     		.2byte	0x1
 3568 0400 58       		.byte	0x58
 3569 0401 44000000 		.4byte	.LVL108
 3570 0405 4E000000 		.4byte	.LVL109
 3571 0409 0100     		.2byte	0x1
 3572 040b 58       		.byte	0x58
 3573 040c 4E000000 		.4byte	.LVL109
 3574 0410 5E000000 		.4byte	.LVL111
 3575 0414 0100     		.2byte	0x1
 3576 0416 54       		.byte	0x54
 3577 0417 60000000 		.4byte	.LVL112
 3578 041b 7A000000 		.4byte	.LVL114
 3579 041f 0100     		.2byte	0x1
 3580 0421 54       		.byte	0x54
 3581 0422 00000000 		.4byte	0
 3582 0426 00000000 		.4byte	0
 3583              	.LLST30:
 3584 042a 00000000 		.4byte	.LVL116
 3585 042e 04000000 		.4byte	.LVL117
 3586 0432 0200     		.2byte	0x2
 3587 0434 30       		.byte	0x30
 3588 0435 9F       		.byte	0x9f
 3589 0436 04000000 		.4byte	.LVL117
 3590 043a 0E000000 		.4byte	.LVL118
 3591 043e 0100     		.2byte	0x1
 3592 0440 53       		.byte	0x53
 3593 0441 10000000 		.4byte	.LVL119
 3594 0445 1A000000 		.4byte	.LVL120
 3595 0449 0100     		.2byte	0x1
 3596 044b 53       		.byte	0x53
 3597 044c 1A000000 		.4byte	.LVL120
 3598 0450 28000000 		.4byte	.LVL122
 3599 0454 0100     		.2byte	0x1
 3600 0456 54       		.byte	0x54
 3601 0457 2A000000 		.4byte	.LVL123
 3602 045b 3E000000 		.4byte	.LVL126
 3603 045f 0100     		.2byte	0x1
 3604 0461 54       		.byte	0x54
 3605 0462 00000000 		.4byte	0
 3606 0466 00000000 		.4byte	0
 3607              	.LLST31:
 3608 046a 34000000 		.4byte	.LVL124
 3609 046e 3B000000 		.4byte	.LVL125-1
 3610 0472 0100     		.2byte	0x1
 3611 0474 50       		.byte	0x50
 3612 0475 00000000 		.4byte	0
 3613 0479 00000000 		.4byte	0
 3614              	.LLST32:
 3615 047d 00000000 		.4byte	.LVL136
 3616 0481 12000000 		.4byte	.LVL137
ARM GAS  C:\Users\ESTEBAN\AppData\Local\Temp\ccuG9BOe.s 			page 94


 3617 0485 0100     		.2byte	0x1
 3618 0487 50       		.byte	0x50
 3619 0488 12000000 		.4byte	.LVL137
 3620 048c 14000000 		.4byte	.LVL138
 3621 0490 0100     		.2byte	0x1
 3622 0492 56       		.byte	0x56
 3623 0493 14000000 		.4byte	.LVL138
 3624 0497 1E000000 		.4byte	.LVL139
 3625 049b 0100     		.2byte	0x1
 3626 049d 50       		.byte	0x50
 3627 049e 1E000000 		.4byte	.LVL139
 3628 04a2 20000000 		.4byte	.LVL140
 3629 04a6 0100     		.2byte	0x1
 3630 04a8 56       		.byte	0x56
 3631 04a9 20000000 		.4byte	.LVL140
 3632 04ad 22000000 		.4byte	.LVL141
 3633 04b1 0100     		.2byte	0x1
 3634 04b3 50       		.byte	0x50
 3635 04b4 22000000 		.4byte	.LVL141
 3636 04b8 58000000 		.4byte	.LVL149
 3637 04bc 0100     		.2byte	0x1
 3638 04be 56       		.byte	0x56
 3639 04bf 00000000 		.4byte	0
 3640 04c3 00000000 		.4byte	0
 3641              	.LLST33:
 3642 04c7 00000000 		.4byte	.LVL136
 3643 04cb 2A000000 		.4byte	.LVL142
 3644 04cf 0100     		.2byte	0x1
 3645 04d1 51       		.byte	0x51
 3646 04d2 2A000000 		.4byte	.LVL142
 3647 04d6 2C000000 		.4byte	.LVL143
 3648 04da 0400     		.2byte	0x4
 3649 04dc F3       		.byte	0xf3
 3650 04dd 01       		.uleb128 0x1
 3651 04de 51       		.byte	0x51
 3652 04df 9F       		.byte	0x9f
 3653 04e0 2C000000 		.4byte	.LVL143
 3654 04e4 56000000 		.4byte	.LVL148
 3655 04e8 0100     		.2byte	0x1
 3656 04ea 55       		.byte	0x55
 3657 04eb 00000000 		.4byte	0
 3658 04ef 00000000 		.4byte	0
 3659              	.LLST34:
 3660 04f3 2C000000 		.4byte	.LVL143
 3661 04f7 30000000 		.4byte	.LVL144
 3662 04fb 0200     		.2byte	0x2
 3663 04fd 30       		.byte	0x30
 3664 04fe 9F       		.byte	0x9f
 3665 04ff 30000000 		.4byte	.LVL144
 3666 0503 50000000 		.4byte	.LVL146
 3667 0507 0100     		.2byte	0x1
 3668 0509 54       		.byte	0x54
 3669 050a 52000000 		.4byte	.LVL147
 3670 050e 56000000 		.4byte	.LVL148
 3671 0512 0100     		.2byte	0x1
 3672 0514 54       		.byte	0x54
 3673 0515 00000000 		.4byte	0
ARM GAS  C:\Users\ESTEBAN\AppData\Local\Temp\ccuG9BOe.s 			page 95


 3674 0519 00000000 		.4byte	0
 3675              	.LLST35:
 3676 051d 00000000 		.4byte	.LVL150
 3677 0521 0C000000 		.4byte	.LVL152
 3678 0525 0100     		.2byte	0x1
 3679 0527 50       		.byte	0x50
 3680 0528 0C000000 		.4byte	.LVL152
 3681 052c 38000000 		.4byte	.LVL159
 3682 0530 0100     		.2byte	0x1
 3683 0532 55       		.byte	0x55
 3684 0533 3A000000 		.4byte	.LVL160
 3685 0537 44000000 		.4byte	.LVL163
 3686 053b 0100     		.2byte	0x1
 3687 053d 55       		.byte	0x55
 3688 053e 00000000 		.4byte	0
 3689 0542 00000000 		.4byte	0
 3690              	.LLST36:
 3691 0546 00000000 		.4byte	.LVL150
 3692 054a 0A000000 		.4byte	.LVL151
 3693 054e 0100     		.2byte	0x1
 3694 0550 51       		.byte	0x51
 3695 0551 0A000000 		.4byte	.LVL151
 3696 0555 0C000000 		.4byte	.LVL152
 3697 0559 0100     		.2byte	0x1
 3698 055b 54       		.byte	0x54
 3699 055c 00000000 		.4byte	0
 3700 0560 00000000 		.4byte	0
 3701              	.LLST37:
 3702 0564 00000000 		.4byte	.LVL150
 3703 0568 0C000000 		.4byte	.LVL152
 3704 056c 0100     		.2byte	0x1
 3705 056e 52       		.byte	0x52
 3706 056f 0C000000 		.4byte	.LVL152
 3707 0573 48000000 		.4byte	.LFE15
 3708 0577 0400     		.2byte	0x4
 3709 0579 F3       		.byte	0xf3
 3710 057a 01       		.uleb128 0x1
 3711 057b 52       		.byte	0x52
 3712 057c 9F       		.byte	0x9f
 3713 057d 00000000 		.4byte	0
 3714 0581 00000000 		.4byte	0
 3715              	.LLST38:
 3716 0585 0A000000 		.4byte	.LVL151
 3717 0589 3C000000 		.4byte	.LVL161
 3718 058d 0100     		.2byte	0x1
 3719 058f 54       		.byte	0x54
 3720 0590 3E000000 		.4byte	.LVL162
 3721 0594 44000000 		.4byte	.LVL163
 3722 0598 0100     		.2byte	0x1
 3723 059a 54       		.byte	0x54
 3724 059b 00000000 		.4byte	0
 3725 059f 00000000 		.4byte	0
 3726              	.LLST39:
 3727 05a3 1E000000 		.4byte	.LVL153
 3728 05a7 26000000 		.4byte	.LVL154
 3729 05ab 0100     		.2byte	0x1
 3730 05ad 50       		.byte	0x50
ARM GAS  C:\Users\ESTEBAN\AppData\Local\Temp\ccuG9BOe.s 			page 96


 3731 05ae 26000000 		.4byte	.LVL154
 3732 05b2 29000000 		.4byte	.LVL155-1
 3733 05b6 0800     		.2byte	0x8
 3734 05b8 75       		.byte	0x75
 3735 05b9 00       		.sleb128 0
 3736 05ba 73       		.byte	0x73
 3737 05bb 00       		.sleb128 0
 3738 05bc 31       		.byte	0x31
 3739 05bd 24       		.byte	0x24
 3740 05be 1C       		.byte	0x1c
 3741 05bf 9F       		.byte	0x9f
 3742 05c0 29000000 		.4byte	.LVL155-1
 3743 05c4 2C000000 		.4byte	.LVL156
 3744 05c8 2300     		.2byte	0x23
 3745 05ca 75       		.byte	0x75
 3746 05cb 00       		.sleb128 0
 3747 05cc 75       		.byte	0x75
 3748 05cd 00       		.sleb128 0
 3749 05ce F7       		.byte	0xf7
 3750 05cf 2C       		.uleb128 0x2c
 3751 05d0 F7       		.byte	0xf7
 3752 05d1 25       		.uleb128 0x25
 3753 05d2 F4       		.byte	0xf4
 3754 05d3 25       		.uleb128 0x25
 3755 05d4 08       		.byte	0x8
 3756 05d5 CDCCCCCC 		.8byte	0xcccccccd
 3756      00000000 
 3757 05dd 1E       		.byte	0x1e
 3758 05de 08       		.byte	0x8
 3759 05df 20       		.byte	0x20
 3760 05e0 F7       		.byte	0xf7
 3761 05e1 25       		.uleb128 0x25
 3762 05e2 25       		.byte	0x25
 3763 05e3 F7       		.byte	0xf7
 3764 05e4 2C       		.uleb128 0x2c
 3765 05e5 33       		.byte	0x33
 3766 05e6 25       		.byte	0x25
 3767 05e7 35       		.byte	0x35
 3768 05e8 1E       		.byte	0x1e
 3769 05e9 31       		.byte	0x31
 3770 05ea 24       		.byte	0x24
 3771 05eb 1C       		.byte	0x1c
 3772 05ec 9F       		.byte	0x9f
 3773 05ed 2C000000 		.4byte	.LVL156
 3774 05f1 31000000 		.4byte	.LVL157-1
 3775 05f5 0100     		.2byte	0x1
 3776 05f7 50       		.byte	0x50
 3777 05f8 31000000 		.4byte	.LVL157-1
 3778 05fc 34000000 		.4byte	.LVL158
 3779 0600 2300     		.2byte	0x23
 3780 0602 75       		.byte	0x75
 3781 0603 00       		.sleb128 0
 3782 0604 75       		.byte	0x75
 3783 0605 00       		.sleb128 0
 3784 0606 F7       		.byte	0xf7
 3785 0607 2C       		.uleb128 0x2c
 3786 0608 F7       		.byte	0xf7
ARM GAS  C:\Users\ESTEBAN\AppData\Local\Temp\ccuG9BOe.s 			page 97


 3787 0609 25       		.uleb128 0x25
 3788 060a F4       		.byte	0xf4
 3789 060b 25       		.uleb128 0x25
 3790 060c 08       		.byte	0x8
 3791 060d CDCCCCCC 		.8byte	0xcccccccd
 3791      00000000 
 3792 0615 1E       		.byte	0x1e
 3793 0616 08       		.byte	0x8
 3794 0617 20       		.byte	0x20
 3795 0618 F7       		.byte	0xf7
 3796 0619 25       		.uleb128 0x25
 3797 061a 25       		.byte	0x25
 3798 061b F7       		.byte	0xf7
 3799 061c 2C       		.uleb128 0x2c
 3800 061d 33       		.byte	0x33
 3801 061e 25       		.byte	0x25
 3802 061f 35       		.byte	0x35
 3803 0620 1E       		.byte	0x1e
 3804 0621 31       		.byte	0x31
 3805 0622 24       		.byte	0x24
 3806 0623 1C       		.byte	0x1c
 3807 0624 9F       		.byte	0x9f
 3808 0625 34000000 		.4byte	.LVL158
 3809 0629 38000000 		.4byte	.LVL159
 3810 062d 1E00     		.2byte	0x1e
 3811 062f 75       		.byte	0x75
 3812 0630 00       		.sleb128 0
 3813 0631 75       		.byte	0x75
 3814 0632 00       		.sleb128 0
 3815 0633 F7       		.byte	0xf7
 3816 0634 2C       		.uleb128 0x2c
 3817 0635 F7       		.byte	0xf7
 3818 0636 25       		.uleb128 0x25
 3819 0637 73       		.byte	0x73
 3820 0638 00       		.sleb128 0
 3821 0639 F7       		.byte	0xf7
 3822 063a 2C       		.uleb128 0x2c
 3823 063b F7       		.byte	0xf7
 3824 063c 25       		.uleb128 0x25
 3825 063d 1E       		.byte	0x1e
 3826 063e 08       		.byte	0x8
 3827 063f 20       		.byte	0x20
 3828 0640 F7       		.byte	0xf7
 3829 0641 25       		.uleb128 0x25
 3830 0642 25       		.byte	0x25
 3831 0643 F7       		.byte	0xf7
 3832 0644 2C       		.uleb128 0x2c
 3833 0645 33       		.byte	0x33
 3834 0646 25       		.byte	0x25
 3835 0647 35       		.byte	0x35
 3836 0648 1E       		.byte	0x1e
 3837 0649 31       		.byte	0x31
 3838 064a 24       		.byte	0x24
 3839 064b 1C       		.byte	0x1c
 3840 064c 9F       		.byte	0x9f
 3841 064d 00000000 		.4byte	0
 3842 0651 00000000 		.4byte	0
ARM GAS  C:\Users\ESTEBAN\AppData\Local\Temp\ccuG9BOe.s 			page 98


 3843              		.section	.debug_aranges,"",%progbits
 3844 0000 9C000000 		.4byte	0x9c
 3845 0004 0200     		.2byte	0x2
 3846 0006 00000000 		.4byte	.Ldebug_info0
 3847 000a 04       		.byte	0x4
 3848 000b 00       		.byte	0
 3849 000c 0000     		.2byte	0
 3850 000e 0000     		.2byte	0
 3851 0010 00000000 		.4byte	.LFB16
 3852 0014 20000000 		.4byte	.LFE16-.LFB16
 3853 0018 00000000 		.4byte	.LFB2
 3854 001c 3C010000 		.4byte	.LFE2-.LFB2
 3855 0020 00000000 		.4byte	.LFB3
 3856 0024 50000000 		.4byte	.LFE3-.LFB3
 3857 0028 00000000 		.4byte	.LFB1
 3858 002c 64000000 		.4byte	.LFE1-.LFB1
 3859 0030 00000000 		.4byte	.LFB5
 3860 0034 54000000 		.4byte	.LFE5-.LFB5
 3861 0038 00000000 		.4byte	.LFB6
 3862 003c 10000000 		.4byte	.LFE6-.LFB6
 3863 0040 00000000 		.4byte	.LFB7
 3864 0044 10000000 		.4byte	.LFE7-.LFB7
 3865 0048 00000000 		.4byte	.LFB8
 3866 004c 14000000 		.4byte	.LFE8-.LFB8
 3867 0050 00000000 		.4byte	.LFB10
 3868 0054 10000000 		.4byte	.LFE10-.LFB10
 3869 0058 00000000 		.4byte	.LFB13
 3870 005c 30000000 		.4byte	.LFE13-.LFB13
 3871 0060 00000000 		.4byte	.LFB12
 3872 0064 54000000 		.4byte	.LFE12-.LFB12
 3873 0068 00000000 		.4byte	.LFB9
 3874 006c 88000000 		.4byte	.LFE9-.LFB9
 3875 0070 00000000 		.4byte	.LFB11
 3876 0074 4C000000 		.4byte	.LFE11-.LFB11
 3877 0078 00000000 		.4byte	.LFB0
 3878 007c 84000000 		.4byte	.LFE0-.LFB0
 3879 0080 00000000 		.4byte	.LFB4
 3880 0084 20000000 		.4byte	.LFE4-.LFB4
 3881 0088 00000000 		.4byte	.LFB14
 3882 008c 5C000000 		.4byte	.LFE14-.LFB14
 3883 0090 00000000 		.4byte	.LFB15
 3884 0094 48000000 		.4byte	.LFE15-.LFB15
 3885 0098 00000000 		.4byte	0
 3886 009c 00000000 		.4byte	0
 3887              		.section	.debug_ranges,"",%progbits
 3888              	.Ldebug_ranges0:
 3889 0000 00000000 		.4byte	.LFB16
 3890 0004 20000000 		.4byte	.LFE16
 3891 0008 00000000 		.4byte	.LFB2
 3892 000c 3C010000 		.4byte	.LFE2
 3893 0010 00000000 		.4byte	.LFB3
 3894 0014 50000000 		.4byte	.LFE3
 3895 0018 00000000 		.4byte	.LFB1
 3896 001c 64000000 		.4byte	.LFE1
 3897 0020 00000000 		.4byte	.LFB5
 3898 0024 54000000 		.4byte	.LFE5
 3899 0028 00000000 		.4byte	.LFB6
ARM GAS  C:\Users\ESTEBAN\AppData\Local\Temp\ccuG9BOe.s 			page 99


 3900 002c 10000000 		.4byte	.LFE6
 3901 0030 00000000 		.4byte	.LFB7
 3902 0034 10000000 		.4byte	.LFE7
 3903 0038 00000000 		.4byte	.LFB8
 3904 003c 14000000 		.4byte	.LFE8
 3905 0040 00000000 		.4byte	.LFB10
 3906 0044 10000000 		.4byte	.LFE10
 3907 0048 00000000 		.4byte	.LFB13
 3908 004c 30000000 		.4byte	.LFE13
 3909 0050 00000000 		.4byte	.LFB12
 3910 0054 54000000 		.4byte	.LFE12
 3911 0058 00000000 		.4byte	.LFB9
 3912 005c 88000000 		.4byte	.LFE9
 3913 0060 00000000 		.4byte	.LFB11
 3914 0064 4C000000 		.4byte	.LFE11
 3915 0068 00000000 		.4byte	.LFB0
 3916 006c 84000000 		.4byte	.LFE0
 3917 0070 00000000 		.4byte	.LFB4
 3918 0074 20000000 		.4byte	.LFE4
 3919 0078 00000000 		.4byte	.LFB14
 3920 007c 5C000000 		.4byte	.LFE14
 3921 0080 00000000 		.4byte	.LFB15
 3922 0084 48000000 		.4byte	.LFE15
 3923 0088 00000000 		.4byte	0
 3924 008c 00000000 		.4byte	0
 3925              		.section	.debug_line,"",%progbits
 3926              	.Ldebug_line0:
 3927 0000 88030000 		.section	.debug_str,"MS",%progbits,1
 3927      0200B800 
 3927      00000201 
 3927      FB0E0D00 
 3927      01010101 
 3928              	.LASF47:
 3929 0000 44697370 		.ascii	"Display0_Write7SegDigit_0\000"
 3929      6C617930 
 3929      5F577269 
 3929      74653753 
 3929      65674469 
 3930              	.LASF10:
 3931 001a 75696E74 		.ascii	"uint16\000"
 3931      313600
 3932              	.LASF73:
 3933 0021 43794578 		.ascii	"CyExitCriticalSection\000"
 3933      69744372 
 3933      69746963 
 3933      616C5365 
 3933      6374696F 
 3934              	.LASF32:
 3935 0037 44697370 		.ascii	"Display0_Enable\000"
 3935      6C617930 
 3935      5F456E61 
 3935      626C6500 
 3936              	.LASF67:
 3937 0047 44697370 		.ascii	"Display0_Lcd_Dma_DmaInitialize\000"
 3937      6C617930 
 3937      5F4C6364 
 3937      5F446D61 
ARM GAS  C:\Users\ESTEBAN\AppData\Local\Temp\ccuG9BOe.s 			page 100


 3937      5F446D61 
 3938              	.LASF62:
 3939 0066 4379446D 		.ascii	"CyDmaTdAllocate\000"
 3939      61546441 
 3939      6C6C6F63 
 3939      61746500 
 3940              	.LASF74:
 3941 0076 44697370 		.ascii	"Display0_Int_Clock_Start\000"
 3941      6C617930 
 3941      5F496E74 
 3941      5F436C6F 
 3941      636B5F53 
 3942              	.LASF79:
 3943 008f 47656E65 		.ascii	"Generated_Source\\PSoC5\\Display0.c\000"
 3943      72617465 
 3943      645F536F 
 3943      75726365 
 3943      5C50536F 
 3944              	.LASF25:
 3945 00b1 64737441 		.ascii	"dstAddr\000"
 3945      64647200 
 3946              	.LASF66:
 3947 00b9 4379446D 		.ascii	"CyDmaChEnable\000"
 3947      61436845 
 3947      6E61626C 
 3947      6500
 3948              	.LASF0:
 3949 00c7 6C6F6E67 		.ascii	"long long unsigned int\000"
 3949      206C6F6E 
 3949      6720756E 
 3949      7369676E 
 3949      65642069 
 3950              	.LASF63:
 3951 00de 4379446D 		.ascii	"CyDmaTdSetConfiguration\000"
 3951      61546453 
 3951      6574436F 
 3951      6E666967 
 3951      75726174 
 3952              	.LASF31:
 3953 00f6 44697370 		.ascii	"Display0_DisableInt\000"
 3953      6C617930 
 3953      5F446973 
 3953      61626C65 
 3953      496E7400 
 3954              	.LASF8:
 3955 010a 6C6F6E67 		.ascii	"long long int\000"
 3955      206C6F6E 
 3955      6720696E 
 3955      7400
 3956              	.LASF2:
 3957 0118 7369676E 		.ascii	"signed char\000"
 3957      65642063 
 3957      68617200 
 3958              	.LASF51:
 3959 0124 44697370 		.ascii	"Display0_Write7SegNumber_0\000"
 3959      6C617930 
 3959      5F577269 
ARM GAS  C:\Users\ESTEBAN\AppData\Local\Temp\ccuG9BOe.s 			page 101


 3959      74653753 
 3959      65674E75 
 3960              	.LASF34:
 3961 013f 62696173 		.ascii	"biasLevel\000"
 3961      4C657665 
 3961      6C00
 3962              	.LASF29:
 3963 0149 696E7465 		.ascii	"interruptState\000"
 3963      72727570 
 3963      74537461 
 3963      746500
 3964              	.LASF48:
 3965 0158 64696769 		.ascii	"digit\000"
 3965      7400
 3966              	.LASF43:
 3967 015e 44697370 		.ascii	"Display0_ClearDisplay\000"
 3967      6C617930 
 3967      5F436C65 
 3967      61724469 
 3967      73706C61 
 3968              	.LASF6:
 3969 0174 6C6F6E67 		.ascii	"long int\000"
 3969      20696E74 
 3969      00
 3970              	.LASF9:
 3971 017d 75696E74 		.ascii	"uint8\000"
 3971      3800
 3972              	.LASF27:
 3973 0183 44697370 		.ascii	"Display0_WriteControlReg\000"
 3973      6C617930 
 3973      5F577269 
 3973      7465436F 
 3973      6E74726F 
 3974              	.LASF13:
 3975 019c 646F7562 		.ascii	"double\000"
 3975      6C6500
 3976              	.LASF11:
 3977 01a3 75696E74 		.ascii	"uint32\000"
 3977      333200
 3978              	.LASF24:
 3979 01aa 73726341 		.ascii	"srcAddr\000"
 3979      64647200 
 3980              	.LASF22:
 3981 01b2 6D61736B 		.ascii	"mask\000"
 3981      00
 3982              	.LASF71:
 3983 01b7 4379446D 		.ascii	"CyDmaTdFree\000"
 3983      61546446 
 3983      72656500 
 3984              	.LASF38:
 3985 01c3 706F7274 		.ascii	"port\000"
 3985      00
 3986              	.LASF21:
 3987 01c8 76616C75 		.ascii	"value\000"
 3987      6500
 3988              	.LASF80:
 3989 01ce 443A5C55 		.ascii	"D:\\Users\\ESTEBAN\\Desktop\\Materias\\Codigos\\Psc"
ARM GAS  C:\Users\ESTEBAN\AppData\Local\Temp\ccuG9BOe.s 			page 102


 3989      73657273 
 3989      5C455354 
 3989      4542414E 
 3989      5C446573 
 3990 01fb 6F635C61 		.ascii	"oc\\as\\LABVIEW\\labview.cydsn\000"
 3990      735C4C41 
 3990      42564945 
 3990      575C6C61 
 3990      62766965 
 3991              	.LASF1:
 3992 0217 756E7369 		.ascii	"unsigned int\000"
 3992      676E6564 
 3992      20696E74 
 3992      00
 3993              	.LASF33:
 3994 0224 44697370 		.ascii	"Display0_SetBias\000"
 3994      6C617930 
 3994      5F536574 
 3994      42696173 
 3994      00
 3995              	.LASF49:
 3996 0235 706F7369 		.ascii	"position\000"
 3996      74696F6E 
 3996      00
 3997              	.LASF7:
 3998 023e 6C6F6E67 		.ascii	"long unsigned int\000"
 3998      20756E73 
 3998      69676E65 
 3998      6420696E 
 3998      7400
 3999              	.LASF37:
 4000 0250 70697865 		.ascii	"pixelState\000"
 4000      6C537461 
 4000      746500
 4001              	.LASF72:
 4002 025b 4379456E 		.ascii	"CyEnterCriticalSection\000"
 4002      74657243 
 4002      72697469 
 4002      63616C53 
 4002      65637469 
 4003              	.LASF5:
 4004 0272 73686F72 		.ascii	"short unsigned int\000"
 4004      7420756E 
 4004      7369676E 
 4004      65642069 
 4004      6E7400
 4005              	.LASF75:
 4006 0285 44697370 		.ascii	"Display0_Int_Clock_Stop\000"
 4006      6C617930 
 4006      5F496E74 
 4006      5F436C6F 
 4006      636B5F53 
 4007              	.LASF76:
 4008 029d 4379496E 		.ascii	"CyIntSetVector\000"
 4008      74536574 
 4008      56656374 
 4008      6F7200
ARM GAS  C:\Users\ESTEBAN\AppData\Local\Temp\ccuG9BOe.s 			page 103


 4009              	.LASF42:
 4010 02ac 44697370 		.ascii	"Display0_Stop\000"
 4010      6C617930 
 4010      5F53746F 
 4010      7000
 4011              	.LASF16:
 4012 02ba 72656733 		.ascii	"reg32\000"
 4012      3200
 4013              	.LASF58:
 4014 02c0 44697370 		.ascii	"Display0_commons\000"
 4014      6C617930 
 4014      5F636F6D 
 4014      6D6F6E73 
 4014      00
 4015              	.LASF18:
 4016 02d1 73697A65 		.ascii	"sizetype\000"
 4016      74797065 
 4016      00
 4017              	.LASF17:
 4018 02da 6C6F6E67 		.ascii	"long double\000"
 4018      20646F75 
 4018      626C6500 
 4019              	.LASF36:
 4020 02e6 70697865 		.ascii	"pixelNumber\000"
 4020      6C4E756D 
 4020      62657200 
 4021              	.LASF64:
 4022 02f2 4379446D 		.ascii	"CyDmaTdSetAddress\000"
 4022      61546453 
 4022      65744164 
 4022      64726573 
 4022      7300
 4023              	.LASF82:
 4024 0304 44697370 		.ascii	"Display0_DmaConfigure\000"
 4024      6C617930 
 4024      5F446D61 
 4024      436F6E66 
 4024      69677572 
 4025              	.LASF68:
 4026 031a 44697370 		.ascii	"Display0_Lcd_Dma_DmaRelease\000"
 4026      6C617930 
 4026      5F4C6364 
 4026      5F446D61 
 4026      5F446D61 
 4027              	.LASF59:
 4028 0336 44697370 		.ascii	"Display0_frameTx\000"
 4028      6C617930 
 4028      5F667261 
 4028      6D655478 
 4028      00
 4029              	.LASF40:
 4030 0347 44697370 		.ascii	"Display0_WriteInvertState\000"
 4030      6C617930 
 4030      5F577269 
 4030      7465496E 
 4030      76657274 
 4031              	.LASF77:
ARM GAS  C:\Users\ESTEBAN\AppData\Local\Temp\ccuG9BOe.s 			page 104


 4032 0361 4379496E 		.ascii	"CyIntSetPriority\000"
 4032      74536574 
 4032      5072696F 
 4032      72697479 
 4032      00
 4033              	.LASF12:
 4034 0372 666C6F61 		.ascii	"float\000"
 4034      7400
 4035              	.LASF53:
 4036 0378 44697370 		.ascii	"Display0_7SegDigits\000"
 4036      6C617930 
 4036      5F375365 
 4036      67446967 
 4036      69747300 
 4037              	.LASF15:
 4038 038c 72656738 		.ascii	"reg8\000"
 4038      00
 4039              	.LASF3:
 4040 0391 756E7369 		.ascii	"unsigned char\000"
 4040      676E6564 
 4040      20636861 
 4040      7200
 4041              	.LASF46:
 4042 039f 44697370 		.ascii	"Display0_Start\000"
 4042      6C617930 
 4042      5F537461 
 4042      727400
 4043              	.LASF54:
 4044 03ae 44697370 		.ascii	"Display0_frameChannel\000"
 4044      6C617930 
 4044      5F667261 
 4044      6D654368 
 4044      616E6E65 
 4045              	.LASF4:
 4046 03c4 73686F72 		.ascii	"short int\000"
 4046      7420696E 
 4046      7400
 4047              	.LASF83:
 4048 03ce 44697370 		.ascii	"Display0_ReadInvertState\000"
 4048      6C617930 
 4048      5F526561 
 4048      64496E76 
 4048      65727453 
 4049              	.LASF78:
 4050 03e7 474E5520 		.ascii	"GNU C11 5.4.1 20160609 (release) [ARM/embedded-5-br"
 4050      43313120 
 4050      352E342E 
 4050      31203230 
 4050      31363036 
 4051 041a 616E6368 		.ascii	"anch revision 237715] -mcpu=cortex-m3 -mthumb -g -O"
 4051      20726576 
 4051      6973696F 
 4051      6E203233 
 4051      37373135 
 4052 044d 67202D66 		.ascii	"g -ffunction-sections -ffat-lto-objects\000"
 4052      66756E63 
 4052      74696F6E 
ARM GAS  C:\Users\ESTEBAN\AppData\Local\Temp\ccuG9BOe.s 			page 105


 4052      2D736563 
 4052      74696F6E 
 4053              	.LASF60:
 4054 0475 44697370 		.ascii	"Display0_frameTd\000"
 4054      6C617930 
 4054      5F667261 
 4054      6D655464 
 4054      00
 4055              	.LASF56:
 4056 0486 44697370 		.ascii	"Display0_lcdTd\000"
 4056      6C617930 
 4056      5F6C6364 
 4056      546400
 4057              	.LASF28:
 4058 0495 44697370 		.ascii	"Display0_DmaDispose\000"
 4058      6C617930 
 4058      5F446D61 
 4058      44697370 
 4058      6F736500 
 4059              	.LASF20:
 4060 04a9 6C656E67 		.ascii	"length\000"
 4060      746800
 4061              	.LASF14:
 4062 04b0 63686172 		.ascii	"char\000"
 4062      00
 4063              	.LASF61:
 4064 04b5 44697370 		.ascii	"Display0_Frame_Dma_DmaInitialize\000"
 4064      6C617930 
 4064      5F467261 
 4064      6D655F44 
 4064      6D615F44 
 4065              	.LASF52:
 4066 04d6 6D6F6465 		.ascii	"mode\000"
 4066      00
 4067              	.LASF35:
 4068 04db 44697370 		.ascii	"Display0_ReadPixel\000"
 4068      6C617930 
 4068      5F526561 
 4068      64506978 
 4068      656C00
 4069              	.LASF81:
 4070 04ee 44697370 		.ascii	"Display0_DMA_TD_PROTO_ENTRY\000"
 4070      6C617930 
 4070      5F444D41 
 4070      5F54445F 
 4070      50524F54 
 4071              	.LASF45:
 4072 050a 44697370 		.ascii	"Display0_Init\000"
 4072      6C617930 
 4072      5F496E69 
 4072      7400
 4073              	.LASF19:
 4074 0518 6F666673 		.ascii	"offset\000"
 4074      657400
 4075              	.LASF41:
 4076 051f 696E7665 		.ascii	"invertState\000"
 4076      72745374 
ARM GAS  C:\Users\ESTEBAN\AppData\Local\Temp\ccuG9BOe.s 			page 106


 4076      61746500 
 4077              	.LASF44:
 4078 052b 64697370 		.ascii	"dispState\000"
 4078      53746174 
 4078      6500
 4079              	.LASF23:
 4080 0535 73746174 		.ascii	"status\000"
 4080      757300
 4081              	.LASF57:
 4082 053c 44697370 		.ascii	"Display0_lcdChannel\000"
 4082      6C617930 
 4082      5F6C6364 
 4082      4368616E 
 4082      6E656C00 
 4083              	.LASF50:
 4084 0550 44697370 		.ascii	"Display0_disp0\000"
 4084      6C617930 
 4084      5F646973 
 4084      703000
 4085              	.LASF55:
 4086 055f 44697370 		.ascii	"Display0_buffer\000"
 4086      6C617930 
 4086      5F627566 
 4086      66657200 
 4087              	.LASF65:
 4088 056f 4379446D 		.ascii	"CyDmaChSetInitialTd\000"
 4088      61436853 
 4088      6574496E 
 4088      69746961 
 4088      6C546400 
 4089              	.LASF30:
 4090 0583 44697370 		.ascii	"Display0_EnableInt\000"
 4090      6C617930 
 4090      5F456E61 
 4090      626C6549 
 4090      6E7400
 4091              	.LASF26:
 4092 0596 44697370 		.ascii	"Display0_SegLcdPort_DMA_TD_PROTO_BLOCK\000"
 4092      6C617930 
 4092      5F536567 
 4092      4C636450 
 4092      6F72745F 
 4093              	.LASF70:
 4094 05bd 44697370 		.ascii	"Display0_Frame_Dma_DmaRelease\000"
 4094      6C617930 
 4094      5F467261 
 4094      6D655F44 
 4094      6D615F44 
 4095              	.LASF39:
 4096 05db 44697370 		.ascii	"Display0_WritePixel\000"
 4096      6C617930 
 4096      5F577269 
 4096      74655069 
 4096      78656C00 
 4097              	.LASF84:
 4098 05ef 44697370 		.ascii	"Display0_initVar\000"
 4098      6C617930 
ARM GAS  C:\Users\ESTEBAN\AppData\Local\Temp\ccuG9BOe.s 			page 107


 4098      5F696E69 
 4098      74566172 
 4098      00
 4099              	.LASF69:
 4100 0600 4379446D 		.ascii	"CyDmaChFree\000"
 4100      61436846 
 4100      72656500 
 4101              		.ident	"GCC: (GNU Tools for ARM Embedded Processors) 5.4.1 20160609 (release) [ARM/embedded-5-bran
