ARM GAS  C:\Users\ESTEBAN\AppData\Local\Temp\cccxc1Al.s 			page 1


   1              		.syntax unified
   2              		.cpu cortex-m3
   3              		.fpu softvfp
   4              		.eabi_attribute 20, 1
   5              		.eabi_attribute 21, 1
   6              		.eabi_attribute 23, 3
   7              		.eabi_attribute 24, 1
   8              		.eabi_attribute 25, 1
   9              		.eabi_attribute 26, 1
  10              		.eabi_attribute 30, 1
  11              		.eabi_attribute 34, 1
  12              		.eabi_attribute 18, 4
  13              		.thumb
  14              		.syntax unified
  15              		.file	"main.c"
  16              		.text
  17              	.Ltext0:
  18              		.cfi_sections	.debug_frame
  19              		.global	__aeabi_f2d
  20              		.section	.text.Enviar,"ax",%progbits
  21              		.align	2
  22              		.global	Enviar
  23              		.thumb
  24              		.thumb_func
  25              		.type	Enviar, %function
  26              	Enviar:
  27              	.LFB64:
  28              		.file 1 "main.c"
   1:main.c        **** /* ========================================
   2:main.c        ****  *
   3:main.c        ****  * Copyright YOUR COMPANY, THE YEAR
   4:main.c        ****  * All Rights Reserved
   5:main.c        ****  * UNPUBLISHED, LICENSED SOFTWARE.
   6:main.c        ****  *
   7:main.c        ****  * CONFIDENTIAL AND PROPRIETARY INFORMATION
   8:main.c        ****  * WHICH IS THE PROPERTY OF your company.
   9:main.c        ****  *
  10:main.c        ****  * ========================================
  11:main.c        **** */
  12:main.c        **** #include "project.h"
  13:main.c        **** #include <stdio.h>
  14:main.c        **** 
  15:main.c        **** int enteros[3];
  16:main.c        **** float32 voltiosADC[3];
  17:main.c        **** char str[12];
  18:main.c        **** char recibir;
  19:main.c        **** int canal=0;
  20:main.c        **** CY_ISR(Enviar){
  29              		.loc 1 20 0
  30              		.cfi_startproc
  31              		@ args = 0, pretend = 0, frame = 0
  32              		@ frame_needed = 0, uses_anonymous_args = 0
  33 0000 10B5     		push	{r4, lr}
  34              		.cfi_def_cfa_offset 8
  35              		.cfi_offset 4, -8
  36              		.cfi_offset 14, -4
  21:main.c        **** if(canal==0){
ARM GAS  C:\Users\ESTEBAN\AppData\Local\Temp\cccxc1Al.s 			page 2


  37              		.loc 1 21 0
  38 0002 1B4B     		ldr	r3, .L6
  39 0004 1B68     		ldr	r3, [r3]
  40 0006 6BB9     		cbnz	r3, .L2
  22:main.c        ****   sprintf(str,"%.3f \n \r" ,voltiosADC[0]);
  41              		.loc 1 22 0
  42 0008 1A4B     		ldr	r3, .L6+4
  43 000a 1868     		ldr	r0, [r3]	@ float
  44 000c FFF7FEFF 		bl	__aeabi_f2d
  45              	.LVL0:
  46 0010 194C     		ldr	r4, .L6+8
  47 0012 0246     		mov	r2, r0
  48 0014 0B46     		mov	r3, r1
  49 0016 1949     		ldr	r1, .L6+12
  50 0018 2046     		mov	r0, r4
  51 001a FFF7FEFF 		bl	sprintf
  52              	.LVL1:
  23:main.c        ****   UART_PutString(str);
  53              		.loc 1 23 0
  54 001e 2046     		mov	r0, r4
  55 0020 FFF7FEFF 		bl	UART_PutString
  56              	.LVL2:
  57              	.L2:
  24:main.c        **** }
  25:main.c        **** if(canal==1){
  58              		.loc 1 25 0
  59 0024 124B     		ldr	r3, .L6
  60 0026 1B68     		ldr	r3, [r3]
  61 0028 012B     		cmp	r3, #1
  62 002a 0DD1     		bne	.L3
  26:main.c        ****   sprintf(str,"%.3f \n \r" ,voltiosADC[1]);
  63              		.loc 1 26 0
  64 002c 114B     		ldr	r3, .L6+4
  65 002e 5868     		ldr	r0, [r3, #4]	@ float
  66 0030 FFF7FEFF 		bl	__aeabi_f2d
  67              	.LVL3:
  68 0034 104C     		ldr	r4, .L6+8
  69 0036 0246     		mov	r2, r0
  70 0038 0B46     		mov	r3, r1
  71 003a 1049     		ldr	r1, .L6+12
  72 003c 2046     		mov	r0, r4
  73 003e FFF7FEFF 		bl	sprintf
  74              	.LVL4:
  27:main.c        ****   UART_PutString(str);
  75              		.loc 1 27 0
  76 0042 2046     		mov	r0, r4
  77 0044 FFF7FEFF 		bl	UART_PutString
  78              	.LVL5:
  79              	.L3:
  28:main.c        **** }
  29:main.c        **** if(canal==2){
  80              		.loc 1 29 0
  81 0048 094B     		ldr	r3, .L6
  82 004a 1B68     		ldr	r3, [r3]
  83 004c 022B     		cmp	r3, #2
  84 004e 0DD1     		bne	.L1
  30:main.c        ****   sprintf(str,"%.3f \n \r" ,voltiosADC[2]);
ARM GAS  C:\Users\ESTEBAN\AppData\Local\Temp\cccxc1Al.s 			page 3


  85              		.loc 1 30 0
  86 0050 084B     		ldr	r3, .L6+4
  87 0052 9868     		ldr	r0, [r3, #8]	@ float
  88 0054 FFF7FEFF 		bl	__aeabi_f2d
  89              	.LVL6:
  90 0058 074C     		ldr	r4, .L6+8
  91 005a 0246     		mov	r2, r0
  92 005c 0B46     		mov	r3, r1
  93 005e 0749     		ldr	r1, .L6+12
  94 0060 2046     		mov	r0, r4
  95 0062 FFF7FEFF 		bl	sprintf
  96              	.LVL7:
  31:main.c        ****   UART_PutString(str);
  97              		.loc 1 31 0
  98 0066 2046     		mov	r0, r4
  99 0068 FFF7FEFF 		bl	UART_PutString
 100              	.LVL8:
 101              	.L1:
 102 006c 10BD     		pop	{r4, pc}
 103              	.L7:
 104 006e 00BF     		.align	2
 105              	.L6:
 106 0070 00000000 		.word	.LANCHOR0
 107 0074 00000000 		.word	voltiosADC
 108 0078 00000000 		.word	str
 109 007c 00000000 		.word	.LC0
 110              		.cfi_endproc
 111              	.LFE64:
 112              		.size	Enviar, .-Enviar
 113              		.section	.text.InterruptRX,"ax",%progbits
 114              		.align	2
 115              		.global	InterruptRX
 116              		.thumb
 117              		.thumb_func
 118              		.type	InterruptRX, %function
 119              	InterruptRX:
 120              	.LFB65:
  32:main.c        **** }
  33:main.c        **** }
  34:main.c        **** 
  35:main.c        **** 
  36:main.c        **** CY_ISR(InterruptRX){
 121              		.loc 1 36 0
 122              		.cfi_startproc
 123              		@ args = 0, pretend = 0, frame = 0
 124              		@ frame_needed = 0, uses_anonymous_args = 0
 125 0000 08B5     		push	{r3, lr}
 126              		.cfi_def_cfa_offset 8
 127              		.cfi_offset 3, -8
 128              		.cfi_offset 14, -4
  37:main.c        **** 
  38:main.c        ****     recibir=UART_GetChar();
 129              		.loc 1 38 0
 130 0002 FFF7FEFF 		bl	UART_GetChar
 131              	.LVL9:
 132 0006 094B     		ldr	r3, .L13
 133 0008 1870     		strb	r0, [r3]
ARM GAS  C:\Users\ESTEBAN\AppData\Local\Temp\cccxc1Al.s 			page 4


  39:main.c        ****  if(recibir=='0'){
 134              		.loc 1 39 0
 135 000a 3028     		cmp	r0, #48
 136 000c 02D1     		bne	.L9
  40:main.c        ****     canal=0;
 137              		.loc 1 40 0
 138 000e 0022     		movs	r2, #0
 139 0010 074B     		ldr	r3, .L13+4
 140 0012 1A60     		str	r2, [r3]
 141              	.L9:
  41:main.c        ****  }
  42:main.c        **** if(recibir=='1'){
 142              		.loc 1 42 0
 143 0014 3128     		cmp	r0, #49
 144 0016 02D1     		bne	.L10
  43:main.c        ****     canal=1;
 145              		.loc 1 43 0
 146 0018 0122     		movs	r2, #1
 147 001a 054B     		ldr	r3, .L13+4
 148 001c 1A60     		str	r2, [r3]
 149              	.L10:
  44:main.c        ****  }
  45:main.c        **** if(recibir=='2'){
 150              		.loc 1 45 0
 151 001e 3228     		cmp	r0, #50
 152 0020 02D1     		bne	.L8
  46:main.c        ****     canal=2;
 153              		.loc 1 46 0
 154 0022 0222     		movs	r2, #2
 155 0024 024B     		ldr	r3, .L13+4
 156 0026 1A60     		str	r2, [r3]
 157              	.L8:
 158 0028 08BD     		pop	{r3, pc}
 159              	.L14:
 160 002a 00BF     		.align	2
 161              	.L13:
 162 002c 00000000 		.word	recibir
 163 0030 00000000 		.word	.LANCHOR0
 164              		.cfi_endproc
 165              	.LFE65:
 166              		.size	InterruptRX, .-InterruptRX
 167              		.section	.text.main,"ax",%progbits
 168              		.align	2
 169              		.global	main
 170              		.thumb
 171              		.thumb_func
 172              		.type	main, %function
 173              	main:
 174              	.LFB66:
  47:main.c        ****  }
  48:main.c        **** 
  49:main.c        **** }
  50:main.c        **** 
  51:main.c        **** 
  52:main.c        **** int main(void)
  53:main.c        **** {
 175              		.loc 1 53 0
ARM GAS  C:\Users\ESTEBAN\AppData\Local\Temp\cccxc1Al.s 			page 5


 176              		.cfi_startproc
 177              		@ Volatile: function does not return.
 178              		@ args = 0, pretend = 0, frame = 0
 179              		@ frame_needed = 0, uses_anonymous_args = 0
 180 0000 08B5     		push	{r3, lr}
 181              		.cfi_def_cfa_offset 8
 182              		.cfi_offset 3, -8
 183              		.cfi_offset 14, -4
  54:main.c        ****     CyGlobalIntEnable; 
 184              		.loc 1 54 0
 185              		.syntax unified
 186              	@ 54 "main.c" 1
 187 0002 62B6     		CPSIE   i
 188              	@ 0 "" 2
  55:main.c        ****     PWM_Start();
 189              		.loc 1 55 0
 190              		.thumb
 191              		.syntax unified
 192 0004 FFF7FEFF 		bl	PWM_Start
 193              	.LVL10:
  56:main.c        ****     MUX_Start();
 194              		.loc 1 56 0
 195 0008 FFF7FEFF 		bl	MUX_Start
 196              	.LVL11:
  57:main.c        ****     UART_Start();
 197              		.loc 1 57 0
 198 000c FFF7FEFF 		bl	UART_Start
 199              	.LVL12:
  58:main.c        ****     ADC_Start();
 200              		.loc 1 58 0
 201 0010 FFF7FEFF 		bl	ADC_Start
 202              	.LVL13:
  59:main.c        ****     
  60:main.c        ****     isrRX_StartEx(InterruptRX);
 203              		.loc 1 60 0
 204 0014 1D48     		ldr	r0, .L18
 205 0016 FFF7FEFF 		bl	isrRX_StartEx
 206              	.LVL14:
  61:main.c        ****     isrEnvio_StartEx(Enviar);
 207              		.loc 1 61 0
 208 001a 1D48     		ldr	r0, .L18+4
 209 001c FFF7FEFF 		bl	isrEnvio_StartEx
 210              	.LVL15:
 211              	.L16:
  62:main.c        ****     for(;;)
  63:main.c        ****     {
  64:main.c        ****         MUX_FastSelect(0);
 212              		.loc 1 64 0 discriminator 1
 213 0020 0020     		movs	r0, #0
 214 0022 FFF7FEFF 		bl	MUX_FastSelect
 215              	.LVL16:
  65:main.c        ****         ADC_StartConvert();
 216              		.loc 1 65 0 discriminator 1
 217 0026 FFF7FEFF 		bl	ADC_StartConvert
 218              	.LVL17:
  66:main.c        ****         ADC_IsEndConversion(ADC_WAIT_FOR_RESULT);
 219              		.loc 1 66 0 discriminator 1
ARM GAS  C:\Users\ESTEBAN\AppData\Local\Temp\cccxc1Al.s 			page 6


 220 002a 0020     		movs	r0, #0
 221 002c FFF7FEFF 		bl	ADC_IsEndConversion
 222              	.LVL18:
  67:main.c        ****         enteros[0]=ADC_GetResult32();
 223              		.loc 1 67 0 discriminator 1
 224 0030 FFF7FEFF 		bl	ADC_GetResult32
 225              	.LVL19:
 226 0034 174C     		ldr	r4, .L18+8
 227 0036 2060     		str	r0, [r4]
  68:main.c        ****         ADC_StopConvert();
 228              		.loc 1 68 0 discriminator 1
 229 0038 FFF7FEFF 		bl	ADC_StopConvert
 230              	.LVL20:
  69:main.c        ****         
  70:main.c        ****         MUX_FastSelect(1);
 231              		.loc 1 70 0 discriminator 1
 232 003c 0120     		movs	r0, #1
 233 003e FFF7FEFF 		bl	MUX_FastSelect
 234              	.LVL21:
  71:main.c        ****         ADC_StartConvert();
 235              		.loc 1 71 0 discriminator 1
 236 0042 FFF7FEFF 		bl	ADC_StartConvert
 237              	.LVL22:
  72:main.c        ****         ADC_IsEndConversion(ADC_WAIT_FOR_RESULT);
 238              		.loc 1 72 0 discriminator 1
 239 0046 0020     		movs	r0, #0
 240 0048 FFF7FEFF 		bl	ADC_IsEndConversion
 241              	.LVL23:
  73:main.c        ****         enteros[1]=ADC_GetResult32();
 242              		.loc 1 73 0 discriminator 1
 243 004c FFF7FEFF 		bl	ADC_GetResult32
 244              	.LVL24:
 245 0050 6060     		str	r0, [r4, #4]
  74:main.c        ****         ADC_StopConvert();
 246              		.loc 1 74 0 discriminator 1
 247 0052 FFF7FEFF 		bl	ADC_StopConvert
 248              	.LVL25:
  75:main.c        ****         
  76:main.c        ****         MUX_FastSelect(2);
 249              		.loc 1 76 0 discriminator 1
 250 0056 0220     		movs	r0, #2
 251 0058 FFF7FEFF 		bl	MUX_FastSelect
 252              	.LVL26:
  77:main.c        ****         ADC_StartConvert();
 253              		.loc 1 77 0 discriminator 1
 254 005c FFF7FEFF 		bl	ADC_StartConvert
 255              	.LVL27:
  78:main.c        ****         ADC_IsEndConversion(ADC_WAIT_FOR_RESULT);
 256              		.loc 1 78 0 discriminator 1
 257 0060 0020     		movs	r0, #0
 258 0062 FFF7FEFF 		bl	ADC_IsEndConversion
 259              	.LVL28:
  79:main.c        ****         enteros[2]=ADC_GetResult32();
 260              		.loc 1 79 0 discriminator 1
 261 0066 FFF7FEFF 		bl	ADC_GetResult32
 262              	.LVL29:
 263 006a A060     		str	r0, [r4, #8]
ARM GAS  C:\Users\ESTEBAN\AppData\Local\Temp\cccxc1Al.s 			page 7


  80:main.c        ****         ADC_StopConvert();
 264              		.loc 1 80 0 discriminator 1
 265 006c FFF7FEFF 		bl	ADC_StopConvert
 266              	.LVL30:
  81:main.c        ****         
  82:main.c        ****         voltiosADC[0]=ADC_CountsTo_Volts(enteros[0]);
 267              		.loc 1 82 0 discriminator 1
 268 0070 2068     		ldr	r0, [r4]
 269 0072 FFF7FEFF 		bl	ADC_CountsTo_Volts
 270              	.LVL31:
 271 0076 084D     		ldr	r5, .L18+12
 272 0078 2860     		str	r0, [r5]	@ float
  83:main.c        ****         voltiosADC[1]=ADC_CountsTo_Volts(enteros[1]);
 273              		.loc 1 83 0 discriminator 1
 274 007a 6068     		ldr	r0, [r4, #4]
 275 007c FFF7FEFF 		bl	ADC_CountsTo_Volts
 276              	.LVL32:
 277 0080 6860     		str	r0, [r5, #4]	@ float
  84:main.c        ****         voltiosADC[2]=ADC_CountsTo_Volts(enteros[2]);
 278              		.loc 1 84 0 discriminator 1
 279 0082 A068     		ldr	r0, [r4, #8]
 280 0084 FFF7FEFF 		bl	ADC_CountsTo_Volts
 281              	.LVL33:
 282 0088 A860     		str	r0, [r5, #8]	@ float
 283 008a C9E7     		b	.L16
 284              	.L19:
 285              		.align	2
 286              	.L18:
 287 008c 00000000 		.word	InterruptRX
 288 0090 00000000 		.word	Enviar
 289 0094 00000000 		.word	enteros
 290 0098 00000000 		.word	voltiosADC
 291              		.cfi_endproc
 292              	.LFE66:
 293              		.size	main, .-main
 294              		.global	canal
 295              		.comm	recibir,1,1
 296              		.comm	str,12,4
 297              		.comm	voltiosADC,12,4
 298              		.comm	enteros,12,4
 299              		.section	.rodata.str1.4,"aMS",%progbits,1
 300              		.align	2
 301              	.LC0:
 302 0000 252E3366 		.ascii	"%.3f \012 \015\000"
 302      200A200D 
 302      00
 303              		.bss
 304              		.align	2
 305              		.set	.LANCHOR0,. + 0
 306              		.type	canal, %object
 307              		.size	canal, 4
 308              	canal:
 309 0000 00000000 		.space	4
 310              		.text
 311              	.Letext0:
 312              		.file 2 "c:\\program files (x86)\\cypress\\psoc creator\\4.2\\psoc creator\\import\\gnu\\arm\\5.4.
 313              		.file 3 "c:\\program files (x86)\\cypress\\psoc creator\\4.2\\psoc creator\\import\\gnu\\arm\\5.4.
ARM GAS  C:\Users\ESTEBAN\AppData\Local\Temp\cccxc1Al.s 			page 8


 314              		.file 4 "Generated_Source\\PSoC5/cytypes.h"
 315              		.file 5 "Generated_Source\\PSoC5/core_cm3.h"
 316              		.file 6 "c:\\program files (x86)\\cypress\\psoc creator\\4.2\\psoc creator\\import\\gnu\\arm\\5.4.
 317              		.file 7 "Generated_Source\\PSoC5/UART.h"
 318              		.file 8 "Generated_Source\\PSoC5/PWM.h"
 319              		.file 9 "Generated_Source\\PSoC5/MUX.h"
 320              		.file 10 "Generated_Source\\PSoC5/ADC.h"
 321              		.file 11 "Generated_Source\\PSoC5/isrRX.h"
 322              		.file 12 "Generated_Source\\PSoC5/isrEnvio.h"