ARM GAS  C:\Users\ESTEBAN\AppData\Local\Temp\cccslqnQ.s 			page 1


   1              		.syntax unified
   2              		.cpu cortex-m3
   3              		.fpu softvfp
   4              		.eabi_attribute 20, 1
   5              		.eabi_attribute 21, 1
   6              		.eabi_attribute 23, 3
   7              		.eabi_attribute 24, 1
   8              		.eabi_attribute 25, 1
   9              		.eabi_attribute 26, 1
  10              		.eabi_attribute 30, 1
  11              		.eabi_attribute 34, 1
  12              		.eabi_attribute 18, 4
  13              		.thumb
  14              		.syntax unified
  15              		.file	"main.c"
  16              		.text
  17              	.Ltext0:
  18              		.cfi_sections	.debug_frame
  19              		.section	.text.aumentarV,"ax",%progbits
  20              		.align	2
  21              		.global	aumentarV
  22              		.thumb
  23              		.thumb_func
  24              		.type	aumentarV, %function
  25              	aumentarV:
  26              	.LFB64:
  27              		.file 1 "main.c"
   1:main.c        **** /* ========================================
   2:main.c        ****  *
   3:main.c        ****  * Copyright YOUR COMPANY, THE YEAR
   4:main.c        ****  * All Rights Reserved
   5:main.c        ****  * UNPUBLISHED, LICENSED SOFTWARE.
   6:main.c        ****  *
   7:main.c        ****  * CONFIDENTIAL AND PROPRIETARY INFORMATION
   8:main.c        ****  * WHICH IS THE PROPERTY OF your company.
   9:main.c        ****  *
  10:main.c        ****  * ========================================
  11:main.c        **** */
  12:main.c        **** #include "project.h"
  13:main.c        **** #include <stdio.h>
  14:main.c        **** 
  15:main.c        **** int vdac=0,canal;
  16:main.c        **** float32 vin;
  17:main.c        **** char str[12],recibir;
  18:main.c        **** uint32_t ADCin;
  19:main.c        **** 
  20:main.c        **** CY_ISR(aumentarV)
  21:main.c        **** 
  22:main.c        **** {
  28              		.loc 1 22 0
  29              		.cfi_startproc
  30              		@ args = 0, pretend = 0, frame = 0
  31              		@ frame_needed = 0, uses_anonymous_args = 0
  32 0000 08B5     		push	{r3, lr}
  33              		.cfi_def_cfa_offset 8
  34              		.cfi_offset 3, -8
  35              		.cfi_offset 14, -4
ARM GAS  C:\Users\ESTEBAN\AppData\Local\Temp\cccslqnQ.s 			page 2


  23:main.c        ****     
  24:main.c        ****      vdac=vdac + 10;
  36              		.loc 1 24 0
  37 0002 074A     		ldr	r2, .L4
  38 0004 1368     		ldr	r3, [r2]
  39 0006 0A33     		adds	r3, r3, #10
  40 0008 1360     		str	r3, [r2]
  25:main.c        ****     if(vdac>=255)
  41              		.loc 1 25 0
  42 000a FE2B     		cmp	r3, #254
  43 000c 02DD     		ble	.L2
  26:main.c        ****     {
  27:main.c        ****     vdac=0;
  44              		.loc 1 27 0
  45 000e 0022     		movs	r2, #0
  46 0010 034B     		ldr	r3, .L4
  47 0012 1A60     		str	r2, [r3]
  48              	.L2:
  28:main.c        ****     }
  29:main.c        ****     VDAC8_SetValue(vdac);
  49              		.loc 1 29 0
  50 0014 024B     		ldr	r3, .L4
  51 0016 1878     		ldrb	r0, [r3]	@ zero_extendqisi2
  52 0018 FFF7FEFF 		bl	VDAC8_SetValue
  53              	.LVL0:
  54 001c 08BD     		pop	{r3, pc}
  55              	.L5:
  56 001e 00BF     		.align	2
  57              	.L4:
  58 0020 00000000 		.word	.LANCHOR0
  59              		.cfi_endproc
  60              	.LFE64:
  61              		.size	aumentarV, .-aumentarV
  62              		.global	__aeabi_f2d
  63              		.section	.text.main,"ax",%progbits
  64              		.align	2
  65              		.global	main
  66              		.thumb
  67              		.thumb_func
  68              		.type	main, %function
  69              	main:
  70              	.LFB65:
  30:main.c        ****     
  31:main.c        **** }
  32:main.c        **** int main(void)
  33:main.c        **** {
  71              		.loc 1 33 0
  72              		.cfi_startproc
  73              		@ Volatile: function does not return.
  74              		@ args = 0, pretend = 0, frame = 0
  75              		@ frame_needed = 0, uses_anonymous_args = 0
  76 0000 08B5     		push	{r3, lr}
  77              		.cfi_def_cfa_offset 8
  78              		.cfi_offset 3, -8
  79              		.cfi_offset 14, -4
  34:main.c        ****     CyGlobalIntEnable; /* Enable global interrupts. */
  80              		.loc 1 34 0
ARM GAS  C:\Users\ESTEBAN\AppData\Local\Temp\cccslqnQ.s 			page 3


  81              		.syntax unified
  82              	@ 34 "main.c" 1
  83 0002 62B6     		CPSIE   i
  84              	@ 0 "" 2
  35:main.c        **** 
  36:main.c        ****     
  37:main.c        ****     israumentar_StartEx(aumentarV);
  85              		.loc 1 37 0
  86              		.thumb
  87              		.syntax unified
  88 0004 2548     		ldr	r0, .L11
  89 0006 FFF7FEFF 		bl	israumentar_StartEx
  90              	.LVL1:
  38:main.c        ****     
  39:main.c        ****     
  40:main.c        ****          UART_Start();
  91              		.loc 1 40 0
  92 000a FFF7FEFF 		bl	UART_Start
  93              	.LVL2:
  41:main.c        ****         VDAC8_Start();
  94              		.loc 1 41 0
  95 000e FFF7FEFF 		bl	VDAC8_Start
  96              	.LVL3:
  42:main.c        ****         
  43:main.c        ****         VDAC8_SetRange(VDAC8_RANGE_4V);
  97              		.loc 1 43 0
  98 0012 0420     		movs	r0, #4
  99 0014 FFF7FEFF 		bl	VDAC8_SetRange
 100              	.LVL4:
  44:main.c        ****   
  45:main.c        ****         ADC_Start();
 101              		.loc 1 45 0
 102 0018 FFF7FEFF 		bl	ADC_Start
 103              	.LVL5:
  46:main.c        ****         ADC_StartConvert();
 104              		.loc 1 46 0
 105 001c FFF7FEFF 		bl	ADC_StartConvert
 106              	.LVL6:
  47:main.c        ****         ADC_IsEndConversion(ADC_WAIT_FOR_RESULT);
 107              		.loc 1 47 0
 108 0020 0020     		movs	r0, #0
 109 0022 FFF7FEFF 		bl	ADC_IsEndConversion
 110              	.LVL7:
 111              	.L9:
  48:main.c        ****     /* Place your initialization/startup code here (e.g. MyInst_Start()) */
  49:main.c        **** 
  50:main.c        ****     for(;;){
  51:main.c        ****     
  52:main.c        ****      recibir=UART_GetChar();
 112              		.loc 1 52 0
 113 0026 FFF7FEFF 		bl	UART_GetChar
 114              	.LVL8:
 115 002a 1D4B     		ldr	r3, .L11+4
 116 002c 1870     		strb	r0, [r3]
  53:main.c        ****  if(recibir=='a'){
 117              		.loc 1 53 0
 118 002e 6128     		cmp	r0, #97
ARM GAS  C:\Users\ESTEBAN\AppData\Local\Temp\cccslqnQ.s 			page 4


 119 0030 02D1     		bne	.L7
  54:main.c        ****     canal=0;
 120              		.loc 1 54 0
 121 0032 0022     		movs	r2, #0
 122 0034 1B4B     		ldr	r3, .L11+8
 123 0036 1A60     		str	r2, [r3]
 124              	.L7:
  55:main.c        ****  }
  56:main.c        ****     
  57:main.c        **** if(canal==0){
 125              		.loc 1 57 0
 126 0038 1A4B     		ldr	r3, .L11+8
 127 003a 1B68     		ldr	r3, [r3]
 128 003c 6BB9     		cbnz	r3, .L8
  58:main.c        ****  
  59:main.c        ****  
  60:main.c        ****   sprintf(str,"%3fcA \n \r" ,vin);
 129              		.loc 1 60 0
 130 003e 1A4B     		ldr	r3, .L11+12
 131 0040 1868     		ldr	r0, [r3]	@ float
 132 0042 FFF7FEFF 		bl	__aeabi_f2d
 133              	.LVL9:
 134 0046 194C     		ldr	r4, .L11+16
 135 0048 0246     		mov	r2, r0
 136 004a 0B46     		mov	r3, r1
 137 004c 1849     		ldr	r1, .L11+20
 138 004e 2046     		mov	r0, r4
 139 0050 FFF7FEFF 		bl	sprintf
 140              	.LVL10:
  61:main.c        **** 
  62:main.c        ****   UART_PutString(str);
 141              		.loc 1 62 0
 142 0054 2046     		mov	r0, r4
 143 0056 FFF7FEFF 		bl	UART_PutString
 144              	.LVL11:
 145              	.L8:
  63:main.c        **** }
  64:main.c        **** 
  65:main.c        **** 
  66:main.c        ****     
  67:main.c        ****        ADCin=ADC_GetResult32();
 146              		.loc 1 67 0
 147 005a FFF7FEFF 		bl	ADC_GetResult32
 148              	.LVL12:
 149 005e 154B     		ldr	r3, .L11+24
 150 0060 1860     		str	r0, [r3]
  68:main.c        ****         vin= ADC_CountsTo_Volts(ADCin);
 151              		.loc 1 68 0
 152 0062 FFF7FEFF 		bl	ADC_CountsTo_Volts
 153              	.LVL13:
 154 0066 104C     		ldr	r4, .L11+12
 155 0068 2060     		str	r0, [r4]	@ float
  69:main.c        ****         
  70:main.c        ****         
  71:main.c        ****           LCD_Position(3,0);
 156              		.loc 1 71 0
 157 006a 0021     		movs	r1, #0
ARM GAS  C:\Users\ESTEBAN\AppData\Local\Temp\cccslqnQ.s 			page 5


 158 006c 0320     		movs	r0, #3
 159 006e FFF7FEFF 		bl	LCD_Position
 160              	.LVL14:
  72:main.c        ****         LCD_PrintString("DAC  input:   ");
 161              		.loc 1 72 0
 162 0072 1148     		ldr	r0, .L11+28
 163 0074 FFF7FEFF 		bl	LCD_PrintString
 164              	.LVL15:
  73:main.c        ****         LCD_Position(3,11);
 165              		.loc 1 73 0
 166 0078 0B21     		movs	r1, #11
 167 007a 0320     		movs	r0, #3
 168 007c FFF7FEFF 		bl	LCD_Position
 169              	.LVL16:
  74:main.c        ****         sprintf(str,"%.3fv  ",vin);
 170              		.loc 1 74 0
 171 0080 2068     		ldr	r0, [r4]	@ float
 172 0082 FFF7FEFF 		bl	__aeabi_f2d
 173              	.LVL17:
 174 0086 094C     		ldr	r4, .L11+16
 175 0088 0246     		mov	r2, r0
 176 008a 0B46     		mov	r3, r1
 177 008c 0B49     		ldr	r1, .L11+32
 178 008e 2046     		mov	r0, r4
 179 0090 FFF7FEFF 		bl	sprintf
 180              	.LVL18:
  75:main.c        ****         LCD_PrintString(str);
 181              		.loc 1 75 0
 182 0094 2046     		mov	r0, r4
 183 0096 FFF7FEFF 		bl	LCD_PrintString
 184              	.LVL19:
  76:main.c        ****         /* Place your application code here. */
  77:main.c        ****     }
 185              		.loc 1 77 0
 186 009a C4E7     		b	.L9
 187              	.L12:
 188              		.align	2
 189              	.L11:
 190 009c 00000000 		.word	aumentarV
 191 00a0 00000000 		.word	recibir
 192 00a4 00000000 		.word	canal
 193 00a8 00000000 		.word	vin
 194 00ac 00000000 		.word	str
 195 00b0 00000000 		.word	.LC0
 196 00b4 00000000 		.word	ADCin
 197 00b8 0C000000 		.word	.LC1
 198 00bc 1C000000 		.word	.LC2
 199              		.cfi_endproc
 200              	.LFE65:
 201              		.size	main, .-main
 202              		.comm	ADCin,4,4
 203              		.comm	recibir,1,1
 204              		.comm	str,12,4
 205              		.comm	vin,4,4
 206              		.comm	canal,4,4
 207              		.global	vdac
 208              		.section	.rodata.str1.4,"aMS",%progbits,1
ARM GAS  C:\Users\ESTEBAN\AppData\Local\Temp\cccslqnQ.s 			page 6


 209              		.align	2
 210              	.LC0:
 211 0000 25336663 		.ascii	"%3fcA \012 \015\000"
 211      41200A20 
 211      0D00
 212 000a 0000     		.space	2
 213              	.LC1:
 214 000c 44414320 		.ascii	"DAC  input:   \000"
 214      20696E70 
 214      75743A20 
 214      202000
 215 001b 00       		.space	1
 216              	.LC2:
 217 001c 252E3366 		.ascii	"%.3fv  \000"
 217      76202000 
 218              		.bss
 219              		.align	2
 220              		.set	.LANCHOR0,. + 0
 221              		.type	vdac, %object
 222              		.size	vdac, 4
 223              	vdac:
 224 0000 00000000 		.space	4
 225              		.text
 226              	.Letext0:
 227              		.file 2 "c:\\program files (x86)\\cypress\\psoc creator\\4.2\\psoc creator\\import\\gnu\\arm\\5.4.
 228              		.file 3 "c:\\program files (x86)\\cypress\\psoc creator\\4.2\\psoc creator\\import\\gnu\\arm\\5.4.
 229              		.file 4 "Generated_Source\\PSoC5/cytypes.h"
 230              		.file 5 "Generated_Source\\PSoC5/core_cm3.h"
 231              		.file 6 "Generated_Source\\PSoC5/VDAC8.h"
 232              		.file 7 "Generated_Source\\PSoC5/israumentar.h"
 233              		.file 8 "Generated_Source\\PSoC5/UART.h"
 234              		.file 9 "Generated_Source\\PSoC5/ADC.h"
 235              		.file 10 "c:\\program files (x86)\\cypress\\psoc creator\\4.2\\psoc creator\\import\\gnu\\arm\\5.4
 236              		.file 11 "Generated_Source\\PSoC5/LCD.h"