ARM GAS  C:\Users\ESTEBAN\AppData\Local\Temp\ccTkMZau.s 			page 1


   1              		.syntax unified
   2              		.cpu cortex-m3
   3              		.fpu softvfp
   4              		.eabi_attribute 20, 1
   5              		.eabi_attribute 21, 1
   6              		.eabi_attribute 23, 3
   7              		.eabi_attribute 24, 1
   8              		.eabi_attribute 25, 1
   9              		.eabi_attribute 26, 1
  10              		.eabi_attribute 30, 1
  11              		.eabi_attribute 34, 1
  12              		.eabi_attribute 18, 4
  13              		.thumb
  14              		.syntax unified
  15              		.file	"CapSense_CSHL.c"
  16              		.text
  17              	.Ltext0:
  18              		.cfi_sections	.debug_frame
  19              		.section	.text.CapSense_BaseInit,"ax",%progbits
  20              		.align	2
  21              		.global	CapSense_BaseInit
  22              		.thumb
  23              		.thumb_func
  24              		.type	CapSense_BaseInit, %function
  25              	CapSense_BaseInit:
  26              	.LFB0:
  27              		.file 1 "Generated_Source\\PSoC5\\CapSense_CSHL.c"
   1:Generated_Source\PSoC5/CapSense_CSHL.c **** /*******************************************************************************
   2:Generated_Source\PSoC5/CapSense_CSHL.c **** * File Name: CapSense_CSHL.c
   3:Generated_Source\PSoC5/CapSense_CSHL.c **** * Version 3.50
   4:Generated_Source\PSoC5/CapSense_CSHL.c **** *
   5:Generated_Source\PSoC5/CapSense_CSHL.c **** * Description:
   6:Generated_Source\PSoC5/CapSense_CSHL.c **** *  This file provides the source code to the High Level APIs for the CapSesne
   7:Generated_Source\PSoC5/CapSense_CSHL.c **** *  CSD component.
   8:Generated_Source\PSoC5/CapSense_CSHL.c **** *
   9:Generated_Source\PSoC5/CapSense_CSHL.c **** * Note:
  10:Generated_Source\PSoC5/CapSense_CSHL.c **** *
  11:Generated_Source\PSoC5/CapSense_CSHL.c **** ********************************************************************************
  12:Generated_Source\PSoC5/CapSense_CSHL.c **** * Copyright 2008-2013, Cypress Semiconductor Corporation.  All rights reserved.
  13:Generated_Source\PSoC5/CapSense_CSHL.c **** * You may use this file only in accordance with the license, terms, conditions,
  14:Generated_Source\PSoC5/CapSense_CSHL.c **** * disclaimers, and limitations in the end user license agreement accompanying
  15:Generated_Source\PSoC5/CapSense_CSHL.c **** * the software package with which this file was provided.
  16:Generated_Source\PSoC5/CapSense_CSHL.c **** *******************************************************************************/
  17:Generated_Source\PSoC5/CapSense_CSHL.c **** 
  18:Generated_Source\PSoC5/CapSense_CSHL.c **** #include "CapSense_CSHL.h"
  19:Generated_Source\PSoC5/CapSense_CSHL.c **** 
  20:Generated_Source\PSoC5/CapSense_CSHL.c **** /* Storage of filters data */
  21:Generated_Source\PSoC5/CapSense_CSHL.c **** #if ( (CapSense_RAW_FILTER_MASK & CapSense_MEDIAN_FILTER) | \
  22:Generated_Source\PSoC5/CapSense_CSHL.c ****       (CapSense_RAW_FILTER_MASK & CapSense_AVERAGING_FILTER) )
  23:Generated_Source\PSoC5/CapSense_CSHL.c **** 
  24:Generated_Source\PSoC5/CapSense_CSHL.c ****     uint16 CapSense_rawFilterData1[CapSense_TOTAL_SENSOR_COUNT];
  25:Generated_Source\PSoC5/CapSense_CSHL.c ****     uint16 CapSense_rawFilterData2[CapSense_TOTAL_SENSOR_COUNT];
  26:Generated_Source\PSoC5/CapSense_CSHL.c **** 
  27:Generated_Source\PSoC5/CapSense_CSHL.c **** #elif ( (CapSense_RAW_FILTER_MASK & CapSense_IIR2_FILTER)   | \
  28:Generated_Source\PSoC5/CapSense_CSHL.c ****         (CapSense_RAW_FILTER_MASK & CapSense_IIR4_FILTER)   | \
  29:Generated_Source\PSoC5/CapSense_CSHL.c ****         (CapSense_RAW_FILTER_MASK & CapSense_JITTER_FILTER) | \
  30:Generated_Source\PSoC5/CapSense_CSHL.c ****         (CapSense_RAW_FILTER_MASK & CapSense_IIR8_FILTER)   | \
ARM GAS  C:\Users\ESTEBAN\AppData\Local\Temp\ccTkMZau.s 			page 2


  31:Generated_Source\PSoC5/CapSense_CSHL.c ****         (CapSense_RAW_FILTER_MASK & CapSense_IIR16_FILTER) )
  32:Generated_Source\PSoC5/CapSense_CSHL.c ****         
  33:Generated_Source\PSoC5/CapSense_CSHL.c ****     uint16 CapSense_rawFilterData1[CapSense_TOTAL_SENSOR_COUNT];
  34:Generated_Source\PSoC5/CapSense_CSHL.c **** 
  35:Generated_Source\PSoC5/CapSense_CSHL.c **** #else
  36:Generated_Source\PSoC5/CapSense_CSHL.c ****     /* No Raw filters */
  37:Generated_Source\PSoC5/CapSense_CSHL.c **** #endif  /* ( (CapSense_RAW_FILTER_MASK & CapSense_MEDIAN_FILTER) || \
  38:Generated_Source\PSoC5/CapSense_CSHL.c ****         *    (CapSense_RAW_FILTER_MASK & CapSense_AVERAGING_FILTER) )
  39:Generated_Source\PSoC5/CapSense_CSHL.c ****         */
  40:Generated_Source\PSoC5/CapSense_CSHL.c **** 
  41:Generated_Source\PSoC5/CapSense_CSHL.c **** uint16 CapSense_sensorBaseline[CapSense_TOTAL_SENSOR_COUNT];
  42:Generated_Source\PSoC5/CapSense_CSHL.c **** uint8 CapSense_sensorBaselineLow[CapSense_TOTAL_SENSOR_COUNT];
  43:Generated_Source\PSoC5/CapSense_CSHL.c **** uint8 CapSense_sensorSignal[CapSense_TOTAL_SENSOR_COUNT];
  44:Generated_Source\PSoC5/CapSense_CSHL.c **** uint8 CapSense_sensorOnMask[(((CapSense_TOTAL_SENSOR_COUNT - 1u) / 8u) + 1u)];
  45:Generated_Source\PSoC5/CapSense_CSHL.c **** 
  46:Generated_Source\PSoC5/CapSense_CSHL.c **** uint8 CapSense_lowBaselineResetCnt[CapSense_TOTAL_SENSOR_COUNT];
  47:Generated_Source\PSoC5/CapSense_CSHL.c **** 
  48:Generated_Source\PSoC5/CapSense_CSHL.c **** uint8 CapSense_fingerThreshold[] = {
  49:Generated_Source\PSoC5/CapSense_CSHL.c ****     40u, 80u, 80u, 
  50:Generated_Source\PSoC5/CapSense_CSHL.c **** };
  51:Generated_Source\PSoC5/CapSense_CSHL.c **** 
  52:Generated_Source\PSoC5/CapSense_CSHL.c **** uint8 CapSense_noiseThreshold[] = {
  53:Generated_Source\PSoC5/CapSense_CSHL.c ****     20u, 40u, 40u, 
  54:Generated_Source\PSoC5/CapSense_CSHL.c **** };
  55:Generated_Source\PSoC5/CapSense_CSHL.c **** 
  56:Generated_Source\PSoC5/CapSense_CSHL.c **** uint8 CapSense_hysteresis[] = {
  57:Generated_Source\PSoC5/CapSense_CSHL.c ****     0u, 5u, 5u, 
  58:Generated_Source\PSoC5/CapSense_CSHL.c **** };
  59:Generated_Source\PSoC5/CapSense_CSHL.c **** 
  60:Generated_Source\PSoC5/CapSense_CSHL.c **** uint8 CapSense_debounce[] = {
  61:Generated_Source\PSoC5/CapSense_CSHL.c ****     1u, 1u, 1u, 
  62:Generated_Source\PSoC5/CapSense_CSHL.c **** };
  63:Generated_Source\PSoC5/CapSense_CSHL.c **** 
  64:Generated_Source\PSoC5/CapSense_CSHL.c **** uint8 CapSense_debounceCounter[] = {
  65:Generated_Source\PSoC5/CapSense_CSHL.c ****     0u, 0u, 0u, 
  66:Generated_Source\PSoC5/CapSense_CSHL.c **** };
  67:Generated_Source\PSoC5/CapSense_CSHL.c **** 
  68:Generated_Source\PSoC5/CapSense_CSHL.c **** const uint8 CYCODE CapSense_rawDataIndex[] = {
  69:Generated_Source\PSoC5/CapSense_CSHL.c ****     2u, /* LS__LS */
  70:Generated_Source\PSoC5/CapSense_CSHL.c ****     1u, /* B1__BTN */
  71:Generated_Source\PSoC5/CapSense_CSHL.c ****     0u, /* B2__BTN */
  72:Generated_Source\PSoC5/CapSense_CSHL.c **** 
  73:Generated_Source\PSoC5/CapSense_CSHL.c **** };
  74:Generated_Source\PSoC5/CapSense_CSHL.c **** 
  75:Generated_Source\PSoC5/CapSense_CSHL.c **** const uint8 CYCODE CapSense_numberOfSensors[] = {
  76:Generated_Source\PSoC5/CapSense_CSHL.c ****     5u, /* LS__LS */
  77:Generated_Source\PSoC5/CapSense_CSHL.c ****     1u, /* B1__BTN */
  78:Generated_Source\PSoC5/CapSense_CSHL.c ****     1u, /* B2__BTN */
  79:Generated_Source\PSoC5/CapSense_CSHL.c **** 
  80:Generated_Source\PSoC5/CapSense_CSHL.c **** };
  81:Generated_Source\PSoC5/CapSense_CSHL.c **** 
  82:Generated_Source\PSoC5/CapSense_CSHL.c **** const uint16 CYCODE CapSense_centroidMult[] = {
  83:Generated_Source\PSoC5/CapSense_CSHL.c ****     6400u, 
  84:Generated_Source\PSoC5/CapSense_CSHL.c **** };
  85:Generated_Source\PSoC5/CapSense_CSHL.c **** 
  86:Generated_Source\PSoC5/CapSense_CSHL.c **** 
  87:Generated_Source\PSoC5/CapSense_CSHL.c **** 
ARM GAS  C:\Users\ESTEBAN\AppData\Local\Temp\ccTkMZau.s 			page 3


  88:Generated_Source\PSoC5/CapSense_CSHL.c **** 
  89:Generated_Source\PSoC5/CapSense_CSHL.c **** /*******************************************************************************
  90:Generated_Source\PSoC5/CapSense_CSHL.c **** * Function Name: CapSense_BaseInit
  91:Generated_Source\PSoC5/CapSense_CSHL.c **** ********************************************************************************
  92:Generated_Source\PSoC5/CapSense_CSHL.c **** *
  93:Generated_Source\PSoC5/CapSense_CSHL.c **** * Summary:
  94:Generated_Source\PSoC5/CapSense_CSHL.c **** *  Loads the CapSense_sensorBaseline[sensor] array element with an 
  95:Generated_Source\PSoC5/CapSense_CSHL.c **** *  initial value which is equal to raw count value. 
  96:Generated_Source\PSoC5/CapSense_CSHL.c **** *  Resets to zero CapSense_sensorBaselineLow[sensor] and 
  97:Generated_Source\PSoC5/CapSense_CSHL.c **** *  CapSense_sensorSignal[sensor] array element.
  98:Generated_Source\PSoC5/CapSense_CSHL.c **** *  Loads CapSense_debounceCounter[sensor] array element with initial 
  99:Generated_Source\PSoC5/CapSense_CSHL.c **** *  value equal CapSense_debounce[].
 100:Generated_Source\PSoC5/CapSense_CSHL.c **** *  Loads the CapSense_rawFilterData2[sensor] and 
 101:Generated_Source\PSoC5/CapSense_CSHL.c **** *  CapSense_rawFilterData2[sensor] array element with an 
 102:Generated_Source\PSoC5/CapSense_CSHL.c **** *  initial value which is equal raw count value if raw data filter is enabled.
 103:Generated_Source\PSoC5/CapSense_CSHL.c **** *
 104:Generated_Source\PSoC5/CapSense_CSHL.c **** * Parameters:
 105:Generated_Source\PSoC5/CapSense_CSHL.c **** *  sensor:  Sensor number.
 106:Generated_Source\PSoC5/CapSense_CSHL.c **** *
 107:Generated_Source\PSoC5/CapSense_CSHL.c **** * Return:
 108:Generated_Source\PSoC5/CapSense_CSHL.c **** *  None
 109:Generated_Source\PSoC5/CapSense_CSHL.c **** *
 110:Generated_Source\PSoC5/CapSense_CSHL.c **** * Global Variables:
 111:Generated_Source\PSoC5/CapSense_CSHL.c **** *  CapSense_sensorBaseline[]    - used to store baseline value.
 112:Generated_Source\PSoC5/CapSense_CSHL.c **** *  CapSense_sensorBaselineLow[] - used to store fraction byte of 
 113:Generated_Source\PSoC5/CapSense_CSHL.c **** *  baseline value.
 114:Generated_Source\PSoC5/CapSense_CSHL.c **** *  CapSense_sensorSignal[]      - used to store diffence between 
 115:Generated_Source\PSoC5/CapSense_CSHL.c **** *  current value of raw data and previous value of baseline.
 116:Generated_Source\PSoC5/CapSense_CSHL.c **** *  CapSense_debounceCounter[]   - used to store current debounce 
 117:Generated_Source\PSoC5/CapSense_CSHL.c **** *  counter of sensor. Widget which has this parameter are buttons, matrix 
 118:Generated_Source\PSoC5/CapSense_CSHL.c **** *  buttons, proximity, guard. All other widgets haven't debounce parameter
 119:Generated_Source\PSoC5/CapSense_CSHL.c **** *  and use the last element of this array with value 0 (it means no debounce).
 120:Generated_Source\PSoC5/CapSense_CSHL.c **** *  CapSense_rawFilterData1[]    - used to store previous sample of 
 121:Generated_Source\PSoC5/CapSense_CSHL.c **** *  any enabled raw data filter.
 122:Generated_Source\PSoC5/CapSense_CSHL.c **** *  CapSense_rawFilterData2[]    - used to store before previous sample
 123:Generated_Source\PSoC5/CapSense_CSHL.c **** *  of enabled raw data filter. Only required for median or average filters.
 124:Generated_Source\PSoC5/CapSense_CSHL.c **** *
 125:Generated_Source\PSoC5/CapSense_CSHL.c **** * Reentrant:
 126:Generated_Source\PSoC5/CapSense_CSHL.c **** *  No
 127:Generated_Source\PSoC5/CapSense_CSHL.c **** *
 128:Generated_Source\PSoC5/CapSense_CSHL.c **** *******************************************************************************/
 129:Generated_Source\PSoC5/CapSense_CSHL.c **** void CapSense_BaseInit(uint8 sensor) 
 130:Generated_Source\PSoC5/CapSense_CSHL.c **** {
  28              		.loc 1 130 0
  29              		.cfi_startproc
  30              		@ args = 0, pretend = 0, frame = 0
  31              		@ frame_needed = 0, uses_anonymous_args = 0
  32              		@ link register save eliminated.
  33              	.LVL0:
 131:Generated_Source\PSoC5/CapSense_CSHL.c ****     #if ((CapSense_TOTAL_BUTTONS_COUNT) || (CapSense_TOTAL_MATRIX_BUTTONS_COUNT) || \
 132:Generated_Source\PSoC5/CapSense_CSHL.c ****          (CapSense_TOTAL_GENERICS_COUNT))
 133:Generated_Source\PSoC5/CapSense_CSHL.c ****         uint8 widget = CapSense_widgetNumber[sensor];
  34              		.loc 1 133 0
  35 0000 094B     		ldr	r3, .L3
  36 0002 1B5C     		ldrb	r3, [r3, r0]	@ zero_extendqisi2
  37              	.LVL1:
 134:Generated_Source\PSoC5/CapSense_CSHL.c ****     #endif /* ((CapSense_TOTAL_MATRIX_BUTTONS_COUNT) || (CapSense_TOTAL_MATRIX_BUTTONS_COUNT)) */
ARM GAS  C:\Users\ESTEBAN\AppData\Local\Temp\ccTkMZau.s 			page 4


 135:Generated_Source\PSoC5/CapSense_CSHL.c ****     
 136:Generated_Source\PSoC5/CapSense_CSHL.c ****     #if (CapSense_TOTAL_MATRIX_BUTTONS_COUNT)
 137:Generated_Source\PSoC5/CapSense_CSHL.c ****         uint8 debounceIndex;
 138:Generated_Source\PSoC5/CapSense_CSHL.c ****     #endif  /* (CapSense_TOTAL_MATRIX_BUTTONS_COUNT) */
 139:Generated_Source\PSoC5/CapSense_CSHL.c ****     
 140:Generated_Source\PSoC5/CapSense_CSHL.c ****     #if (CapSense_TOTAL_GENERICS_COUNT)
 141:Generated_Source\PSoC5/CapSense_CSHL.c ****         /* Exclude generic widget */
 142:Generated_Source\PSoC5/CapSense_CSHL.c ****         if(widget < CapSense_END_OF_WIDGETS_INDEX)
 143:Generated_Source\PSoC5/CapSense_CSHL.c ****         {
 144:Generated_Source\PSoC5/CapSense_CSHL.c ****     #endif  /* CapSense_TOTAL_GENERICS_COUNT */
 145:Generated_Source\PSoC5/CapSense_CSHL.c ****     
 146:Generated_Source\PSoC5/CapSense_CSHL.c ****     /* Initialize Baseline */
 147:Generated_Source\PSoC5/CapSense_CSHL.c ****     CapSense_sensorBaseline[sensor] = CapSense_sensorRaw[sensor];
  38              		.loc 1 147 0
  39 0004 094A     		ldr	r2, .L3+4
  40 0006 32F81010 		ldrh	r1, [r2, r0, lsl #1]
  41 000a 094A     		ldr	r2, .L3+8
  42 000c 22F81010 		strh	r1, [r2, r0, lsl #1]	@ movhi
 148:Generated_Source\PSoC5/CapSense_CSHL.c ****     CapSense_sensorBaselineLow[sensor] = 0u;
  43              		.loc 1 148 0
  44 0010 0022     		movs	r2, #0
  45 0012 0849     		ldr	r1, .L3+12
  46 0014 0A54     		strb	r2, [r1, r0]
 149:Generated_Source\PSoC5/CapSense_CSHL.c ****     CapSense_sensorSignal[sensor] = 0u;
  47              		.loc 1 149 0
  48 0016 0849     		ldr	r1, .L3+16
  49 0018 0A54     		strb	r2, [r1, r0]
 150:Generated_Source\PSoC5/CapSense_CSHL.c ****         
 151:Generated_Source\PSoC5/CapSense_CSHL.c ****     if(widget > CapSense_END_OF_TOUCH_PAD_INDEX)
  50              		.loc 1 151 0
  51 001a 23B1     		cbz	r3, .L1
 152:Generated_Source\PSoC5/CapSense_CSHL.c ****     {
 153:Generated_Source\PSoC5/CapSense_CSHL.c ****         CapSense_debounceCounter[widget - (CapSense_END_OF_TOUCH_PAD_INDEX + 1)] =  CapSense_deboun
  52              		.loc 1 153 0
  53 001c 5A1E     		subs	r2, r3, #1
  54 001e 0749     		ldr	r1, .L3+20
  55 0020 C95C     		ldrb	r1, [r1, r3]	@ zero_extendqisi2
  56 0022 074B     		ldr	r3, .L3+24
  57              	.LVL2:
  58 0024 9954     		strb	r1, [r3, r2]
  59              	.LVL3:
  60              	.L1:
  61 0026 7047     		bx	lr
  62              	.L4:
  63              		.align	2
  64              	.L3:
  65 0028 00000000 		.word	CapSense_widgetNumber
  66 002c 00000000 		.word	CapSense_sensorRaw
  67 0030 00000000 		.word	CapSense_sensorBaseline
  68 0034 00000000 		.word	CapSense_sensorBaselineLow
  69 0038 00000000 		.word	CapSense_sensorSignal
  70 003c 00000000 		.word	.LANCHOR0
  71 0040 00000000 		.word	.LANCHOR1
  72              		.cfi_endproc
  73              	.LFE0:
  74              		.size	CapSense_BaseInit, .-CapSense_BaseInit
  75              		.section	.text.CapSense_InitializeSensorBaseline,"ax",%progbits
ARM GAS  C:\Users\ESTEBAN\AppData\Local\Temp\ccTkMZau.s 			page 5


  76              		.align	2
  77              		.global	CapSense_InitializeSensorBaseline
  78              		.thumb
  79              		.thumb_func
  80              		.type	CapSense_InitializeSensorBaseline, %function
  81              	CapSense_InitializeSensorBaseline:
  82              	.LFB1:
 154:Generated_Source\PSoC5/CapSense_CSHL.c ****     }
 155:Generated_Source\PSoC5/CapSense_CSHL.c **** 
 156:Generated_Source\PSoC5/CapSense_CSHL.c ****     
 157:Generated_Source\PSoC5/CapSense_CSHL.c ****     #if ((CapSense_RAW_FILTER_MASK & CapSense_MEDIAN_FILTER) |\
 158:Generated_Source\PSoC5/CapSense_CSHL.c ****          (CapSense_RAW_FILTER_MASK & CapSense_AVERAGING_FILTER))
 159:Generated_Source\PSoC5/CapSense_CSHL.c **** 
 160:Generated_Source\PSoC5/CapSense_CSHL.c ****         CapSense_rawFilterData1[sensor] = CapSense_sensorRaw[sensor];
 161:Generated_Source\PSoC5/CapSense_CSHL.c ****         CapSense_rawFilterData2[sensor] = CapSense_sensorRaw[sensor];
 162:Generated_Source\PSoC5/CapSense_CSHL.c ****     
 163:Generated_Source\PSoC5/CapSense_CSHL.c ****     #elif ((CapSense_RAW_FILTER_MASK & CapSense_IIR2_FILTER) |\
 164:Generated_Source\PSoC5/CapSense_CSHL.c ****            (CapSense_RAW_FILTER_MASK & CapSense_IIR4_FILTER) |\
 165:Generated_Source\PSoC5/CapSense_CSHL.c ****            (CapSense_RAW_FILTER_MASK & CapSense_JITTER_FILTER) |\
 166:Generated_Source\PSoC5/CapSense_CSHL.c ****            (CapSense_RAW_FILTER_MASK & CapSense_IIR8_FILTER) |\
 167:Generated_Source\PSoC5/CapSense_CSHL.c ****            (CapSense_RAW_FILTER_MASK & CapSense_IIR16_FILTER))
 168:Generated_Source\PSoC5/CapSense_CSHL.c ****             
 169:Generated_Source\PSoC5/CapSense_CSHL.c ****         CapSense_rawFilterData1[sensor] = CapSense_sensorRaw[sensor];
 170:Generated_Source\PSoC5/CapSense_CSHL.c ****     
 171:Generated_Source\PSoC5/CapSense_CSHL.c ****     #else
 172:Generated_Source\PSoC5/CapSense_CSHL.c ****         /* No Raw filters */
 173:Generated_Source\PSoC5/CapSense_CSHL.c ****     #endif  /* ((CapSense_RAW_FILTER_MASK & CapSense_MEDIAN_FILTER) | \
 174:Generated_Source\PSoC5/CapSense_CSHL.c ****             *   (CapSense_RAW_FILTER_MASK & CapSense_AVERAGING_FILTER))
 175:Generated_Source\PSoC5/CapSense_CSHL.c ****             */
 176:Generated_Source\PSoC5/CapSense_CSHL.c ****     
 177:Generated_Source\PSoC5/CapSense_CSHL.c ****     #if (CapSense_TOTAL_GENERICS_COUNT)
 178:Generated_Source\PSoC5/CapSense_CSHL.c ****         /* Exclude generic widget */
 179:Generated_Source\PSoC5/CapSense_CSHL.c ****         }
 180:Generated_Source\PSoC5/CapSense_CSHL.c ****     #endif  /* CapSense_TOTAL_GENERICS_COUNT */
 181:Generated_Source\PSoC5/CapSense_CSHL.c **** }
 182:Generated_Source\PSoC5/CapSense_CSHL.c **** 
 183:Generated_Source\PSoC5/CapSense_CSHL.c **** 
 184:Generated_Source\PSoC5/CapSense_CSHL.c **** /*******************************************************************************
 185:Generated_Source\PSoC5/CapSense_CSHL.c **** * Function Name: CapSense_InitializeSensorBaseline
 186:Generated_Source\PSoC5/CapSense_CSHL.c **** ********************************************************************************
 187:Generated_Source\PSoC5/CapSense_CSHL.c **** *
 188:Generated_Source\PSoC5/CapSense_CSHL.c **** * Summary:
 189:Generated_Source\PSoC5/CapSense_CSHL.c **** *  Loads the CapSense_sensorBaseline[sensor] array element with an 
 190:Generated_Source\PSoC5/CapSense_CSHL.c **** *  initial value by scanning the selected sensor (one channel design) or pair 
 191:Generated_Source\PSoC5/CapSense_CSHL.c **** *  of sensors (two channels designs). The raw count value is copied into the 
 192:Generated_Source\PSoC5/CapSense_CSHL.c **** *  baseline array for each sensor. The raw data filters are initialized if 
 193:Generated_Source\PSoC5/CapSense_CSHL.c **** *  enabled.
 194:Generated_Source\PSoC5/CapSense_CSHL.c **** *
 195:Generated_Source\PSoC5/CapSense_CSHL.c **** * Parameters:
 196:Generated_Source\PSoC5/CapSense_CSHL.c **** *  sensor:  Sensor number.
 197:Generated_Source\PSoC5/CapSense_CSHL.c **** *
 198:Generated_Source\PSoC5/CapSense_CSHL.c **** * Return:
 199:Generated_Source\PSoC5/CapSense_CSHL.c **** *  None
 200:Generated_Source\PSoC5/CapSense_CSHL.c **** *
 201:Generated_Source\PSoC5/CapSense_CSHL.c **** * Reentrant:
 202:Generated_Source\PSoC5/CapSense_CSHL.c **** *  No
 203:Generated_Source\PSoC5/CapSense_CSHL.c **** *
ARM GAS  C:\Users\ESTEBAN\AppData\Local\Temp\ccTkMZau.s 			page 6


 204:Generated_Source\PSoC5/CapSense_CSHL.c **** *******************************************************************************/
 205:Generated_Source\PSoC5/CapSense_CSHL.c **** void CapSense_InitializeSensorBaseline(uint8 sensor)
 206:Generated_Source\PSoC5/CapSense_CSHL.c ****                           
 207:Generated_Source\PSoC5/CapSense_CSHL.c **** {
  83              		.loc 1 207 0
  84              		.cfi_startproc
  85              		@ args = 0, pretend = 0, frame = 0
  86              		@ frame_needed = 0, uses_anonymous_args = 0
  87              	.LVL4:
  88 0000 10B5     		push	{r4, lr}
  89              		.cfi_def_cfa_offset 8
  90              		.cfi_offset 4, -8
  91              		.cfi_offset 14, -4
  92 0002 0446     		mov	r4, r0
 208:Generated_Source\PSoC5/CapSense_CSHL.c ****     /* Scan sensor */
 209:Generated_Source\PSoC5/CapSense_CSHL.c ****     CapSense_ScanSensor(sensor);
  93              		.loc 1 209 0
  94 0004 FFF7FEFF 		bl	CapSense_ScanSensor
  95              	.LVL5:
  96              	.L6:
 210:Generated_Source\PSoC5/CapSense_CSHL.c ****     while(CapSense_IsBusy() != 0u)
  97              		.loc 1 210 0 discriminator 1
  98 0008 FFF7FEFF 		bl	CapSense_IsBusy
  99              	.LVL6:
 100 000c 0028     		cmp	r0, #0
 101 000e FBD1     		bne	.L6
 211:Generated_Source\PSoC5/CapSense_CSHL.c ****     {
 212:Generated_Source\PSoC5/CapSense_CSHL.c ****         /* Wait while busy */
 213:Generated_Source\PSoC5/CapSense_CSHL.c ****     }
 214:Generated_Source\PSoC5/CapSense_CSHL.c ****     
 215:Generated_Source\PSoC5/CapSense_CSHL.c ****     #if (CapSense_DESIGN_TYPE == CapSense_ONE_CHANNEL_DESIGN)
 216:Generated_Source\PSoC5/CapSense_CSHL.c ****         /* Initialize Baseline, Signal and debounce counters */       
 217:Generated_Source\PSoC5/CapSense_CSHL.c ****         CapSense_BaseInit(sensor);
 102              		.loc 1 217 0
 103 0010 2046     		mov	r0, r4
 104 0012 FFF7FEFF 		bl	CapSense_BaseInit
 105              	.LVL7:
 106 0016 10BD     		pop	{r4, pc}
 107              		.cfi_endproc
 108              	.LFE1:
 109              		.size	CapSense_InitializeSensorBaseline, .-CapSense_InitializeSensorBaseline
 110              		.section	.text.CapSense_InitializeAllBaselines,"ax",%progbits
 111              		.align	2
 112              		.global	CapSense_InitializeAllBaselines
 113              		.thumb
 114              		.thumb_func
 115              		.type	CapSense_InitializeAllBaselines, %function
 116              	CapSense_InitializeAllBaselines:
 117              	.LFB2:
 218:Generated_Source\PSoC5/CapSense_CSHL.c ****         
 219:Generated_Source\PSoC5/CapSense_CSHL.c ****     #else
 220:Generated_Source\PSoC5/CapSense_CSHL.c ****     
 221:Generated_Source\PSoC5/CapSense_CSHL.c ****         if(sensor < CapSense_TOTAL_SENSOR_COUNT__CH0)
 222:Generated_Source\PSoC5/CapSense_CSHL.c ****         {
 223:Generated_Source\PSoC5/CapSense_CSHL.c ****             /* Initialize Baseline, Signal and debounce counters */ 
 224:Generated_Source\PSoC5/CapSense_CSHL.c ****             CapSense_BaseInit(sensor);
 225:Generated_Source\PSoC5/CapSense_CSHL.c ****         }
ARM GAS  C:\Users\ESTEBAN\AppData\Local\Temp\ccTkMZau.s 			page 7


 226:Generated_Source\PSoC5/CapSense_CSHL.c ****         
 227:Generated_Source\PSoC5/CapSense_CSHL.c ****         if(sensor < CapSense_TOTAL_SENSOR_COUNT__CH1)
 228:Generated_Source\PSoC5/CapSense_CSHL.c ****         {
 229:Generated_Source\PSoC5/CapSense_CSHL.c ****             /* Initialize Baseline, Signal and debounce counters */
 230:Generated_Source\PSoC5/CapSense_CSHL.c ****             CapSense_BaseInit(sensor + CapSense_TOTAL_SENSOR_COUNT__CH0);
 231:Generated_Source\PSoC5/CapSense_CSHL.c ****         }
 232:Generated_Source\PSoC5/CapSense_CSHL.c ****     
 233:Generated_Source\PSoC5/CapSense_CSHL.c ****     #endif  /* (CapSense_DESIGN_TYPE == CapSense_ONE_CHANNEL_DESIGN) */
 234:Generated_Source\PSoC5/CapSense_CSHL.c **** }
 235:Generated_Source\PSoC5/CapSense_CSHL.c **** 
 236:Generated_Source\PSoC5/CapSense_CSHL.c **** 
 237:Generated_Source\PSoC5/CapSense_CSHL.c **** /*******************************************************************************
 238:Generated_Source\PSoC5/CapSense_CSHL.c **** * Function Name: CapSense_InitializeAllBaselines
 239:Generated_Source\PSoC5/CapSense_CSHL.c **** ********************************************************************************
 240:Generated_Source\PSoC5/CapSense_CSHL.c **** *
 241:Generated_Source\PSoC5/CapSense_CSHL.c **** * Summary:
 242:Generated_Source\PSoC5/CapSense_CSHL.c **** *  Uses the CapSense_InitializeSensorBaseline function to loads the 
 243:Generated_Source\PSoC5/CapSense_CSHL.c **** *  CapSense_sensorBaseline[] array with an initial values by scanning 
 244:Generated_Source\PSoC5/CapSense_CSHL.c **** *  all sensors. The raw count values are copied into the baseline array for 
 245:Generated_Source\PSoC5/CapSense_CSHL.c **** *  all sensors. The raw data filters are initialized if enabled.
 246:Generated_Source\PSoC5/CapSense_CSHL.c **** *
 247:Generated_Source\PSoC5/CapSense_CSHL.c **** * Parameters:
 248:Generated_Source\PSoC5/CapSense_CSHL.c **** *  None
 249:Generated_Source\PSoC5/CapSense_CSHL.c **** *
 250:Generated_Source\PSoC5/CapSense_CSHL.c **** * Return:
 251:Generated_Source\PSoC5/CapSense_CSHL.c **** *  None
 252:Generated_Source\PSoC5/CapSense_CSHL.c **** *
 253:Generated_Source\PSoC5/CapSense_CSHL.c **** * Reentrant:
 254:Generated_Source\PSoC5/CapSense_CSHL.c **** *  No
 255:Generated_Source\PSoC5/CapSense_CSHL.c **** *
 256:Generated_Source\PSoC5/CapSense_CSHL.c **** *******************************************************************************/
 257:Generated_Source\PSoC5/CapSense_CSHL.c **** void CapSense_InitializeAllBaselines(void)
 258:Generated_Source\PSoC5/CapSense_CSHL.c ****                           
 259:Generated_Source\PSoC5/CapSense_CSHL.c **** {
 118              		.loc 1 259 0
 119              		.cfi_startproc
 120              		@ args = 0, pretend = 0, frame = 0
 121              		@ frame_needed = 0, uses_anonymous_args = 0
 122 0000 10B5     		push	{r4, lr}
 123              		.cfi_def_cfa_offset 8
 124              		.cfi_offset 4, -8
 125              		.cfi_offset 14, -4
 126              	.LVL8:
 260:Generated_Source\PSoC5/CapSense_CSHL.c ****     uint8 i;
 261:Generated_Source\PSoC5/CapSense_CSHL.c ****     
 262:Generated_Source\PSoC5/CapSense_CSHL.c ****     /* The baseline initialize by sensor of sensor pair */
 263:Generated_Source\PSoC5/CapSense_CSHL.c ****     for(i = 0u; i < CapSense_TOTAL_SCANSLOT_COUNT; i++)
 127              		.loc 1 263 0
 128 0002 0024     		movs	r4, #0
 129 0004 04E0     		b	.L9
 130              	.LVL9:
 131              	.L10:
 264:Generated_Source\PSoC5/CapSense_CSHL.c ****     {
 265:Generated_Source\PSoC5/CapSense_CSHL.c ****         CapSense_InitializeSensorBaseline(i);
 132              		.loc 1 265 0 discriminator 3
 133 0006 2046     		mov	r0, r4
 134 0008 FFF7FEFF 		bl	CapSense_InitializeSensorBaseline
ARM GAS  C:\Users\ESTEBAN\AppData\Local\Temp\ccTkMZau.s 			page 8


 135              	.LVL10:
 263:Generated_Source\PSoC5/CapSense_CSHL.c ****     {
 136              		.loc 1 263 0 discriminator 3
 137 000c 0134     		adds	r4, r4, #1
 138              	.LVL11:
 139 000e E4B2     		uxtb	r4, r4
 140              	.LVL12:
 141              	.L9:
 263:Generated_Source\PSoC5/CapSense_CSHL.c ****     {
 142              		.loc 1 263 0 is_stmt 0 discriminator 1
 143 0010 062C     		cmp	r4, #6
 144 0012 F8D9     		bls	.L10
 266:Generated_Source\PSoC5/CapSense_CSHL.c ****     }
 267:Generated_Source\PSoC5/CapSense_CSHL.c **** }
 145              		.loc 1 267 0 is_stmt 1
 146 0014 10BD     		pop	{r4, pc}
 147              		.cfi_endproc
 148              	.LFE2:
 149              		.size	CapSense_InitializeAllBaselines, .-CapSense_InitializeAllBaselines
 150 0016 00BF     		.section	.text.CapSense_InitializeEnabledBaselines,"ax",%progbits
 151              		.align	2
 152              		.global	CapSense_InitializeEnabledBaselines
 153              		.thumb
 154              		.thumb_func
 155              		.type	CapSense_InitializeEnabledBaselines, %function
 156              	CapSense_InitializeEnabledBaselines:
 157              	.LFB3:
 268:Generated_Source\PSoC5/CapSense_CSHL.c **** 
 269:Generated_Source\PSoC5/CapSense_CSHL.c **** 
 270:Generated_Source\PSoC5/CapSense_CSHL.c **** /*******************************************************************************
 271:Generated_Source\PSoC5/CapSense_CSHL.c **** * Function Name: CapSense_InitializeEnabledBaselines
 272:Generated_Source\PSoC5/CapSense_CSHL.c **** ********************************************************************************
 273:Generated_Source\PSoC5/CapSense_CSHL.c **** *
 274:Generated_Source\PSoC5/CapSense_CSHL.c **** * Summary:
 275:Generated_Source\PSoC5/CapSense_CSHL.c **** *  Scans all enabled widgets and the raw count values are copied into the 
 276:Generated_Source\PSoC5/CapSense_CSHL.c **** *  baseline array for all sensors enabled in scanning process. Baselines 
 277:Generated_Source\PSoC5/CapSense_CSHL.c **** *  initialize with zero values for sensors disabled from scanning process. 
 278:Generated_Source\PSoC5/CapSense_CSHL.c **** *  The raw data filters are initialized if enabled.
 279:Generated_Source\PSoC5/CapSense_CSHL.c **** *
 280:Generated_Source\PSoC5/CapSense_CSHL.c **** * Parameters:
 281:Generated_Source\PSoC5/CapSense_CSHL.c **** *  None
 282:Generated_Source\PSoC5/CapSense_CSHL.c **** *
 283:Generated_Source\PSoC5/CapSense_CSHL.c **** * Return:
 284:Generated_Source\PSoC5/CapSense_CSHL.c **** *  None
 285:Generated_Source\PSoC5/CapSense_CSHL.c **** *
 286:Generated_Source\PSoC5/CapSense_CSHL.c **** * Reentrant:
 287:Generated_Source\PSoC5/CapSense_CSHL.c **** *  No
 288:Generated_Source\PSoC5/CapSense_CSHL.c **** *
 289:Generated_Source\PSoC5/CapSense_CSHL.c **** *******************************************************************************/
 290:Generated_Source\PSoC5/CapSense_CSHL.c **** void CapSense_InitializeEnabledBaselines(void)
 291:Generated_Source\PSoC5/CapSense_CSHL.c ****                              
 292:Generated_Source\PSoC5/CapSense_CSHL.c **** {
 158              		.loc 1 292 0
 159              		.cfi_startproc
 160              		@ args = 0, pretend = 0, frame = 0
 161              		@ frame_needed = 0, uses_anonymous_args = 0
 162 0000 10B5     		push	{r4, lr}
ARM GAS  C:\Users\ESTEBAN\AppData\Local\Temp\ccTkMZau.s 			page 9


 163              		.cfi_def_cfa_offset 8
 164              		.cfi_offset 4, -8
 165              		.cfi_offset 14, -4
 293:Generated_Source\PSoC5/CapSense_CSHL.c ****     uint8 i;
 294:Generated_Source\PSoC5/CapSense_CSHL.c ****     uint8 pos;
 295:Generated_Source\PSoC5/CapSense_CSHL.c ****     uint8 enMask;
 296:Generated_Source\PSoC5/CapSense_CSHL.c ****     
 297:Generated_Source\PSoC5/CapSense_CSHL.c ****     CapSense_ScanEnabledWidgets();
 166              		.loc 1 297 0
 167 0002 FFF7FEFF 		bl	CapSense_ScanEnabledWidgets
 168              	.LVL13:
 169              	.L13:
 298:Generated_Source\PSoC5/CapSense_CSHL.c ****     while(CapSense_IsBusy() != 0u)
 170              		.loc 1 298 0 discriminator 1
 171 0006 FFF7FEFF 		bl	CapSense_IsBusy
 172              	.LVL14:
 173 000a 0028     		cmp	r0, #0
 174 000c FBD1     		bne	.L13
 175 000e 0024     		movs	r4, #0
 176 0010 11E0     		b	.L14
 177              	.LVL15:
 178              	.L16:
 299:Generated_Source\PSoC5/CapSense_CSHL.c ****     {
 300:Generated_Source\PSoC5/CapSense_CSHL.c ****         /* Wait while busy */
 301:Generated_Source\PSoC5/CapSense_CSHL.c ****     }
 302:Generated_Source\PSoC5/CapSense_CSHL.c ****     
 303:Generated_Source\PSoC5/CapSense_CSHL.c ****     for(i = 0u; i < CapSense_TOTAL_SENSOR_COUNT; i++)
 304:Generated_Source\PSoC5/CapSense_CSHL.c ****     {
 305:Generated_Source\PSoC5/CapSense_CSHL.c ****         pos = (i >> 3u);
 179              		.loc 1 305 0
 180 0012 E208     		lsrs	r2, r4, #3
 306:Generated_Source\PSoC5/CapSense_CSHL.c ****         enMask = 0x01u << (i & 0x07u);
 181              		.loc 1 306 0
 182 0014 04F00701 		and	r1, r4, #7
 183 0018 0123     		movs	r3, #1
 184 001a 8B40     		lsls	r3, r3, r1
 185              	.LVL16:
 307:Generated_Source\PSoC5/CapSense_CSHL.c ****         
 308:Generated_Source\PSoC5/CapSense_CSHL.c ****         /* Clear raw data if sensor is disabled from scanning process */
 309:Generated_Source\PSoC5/CapSense_CSHL.c ****         if((CapSense_sensorEnableMask[pos] & enMask) == 0u)
 186              		.loc 1 309 0
 187 001c 0749     		ldr	r1, .L18
 188 001e 8A5C     		ldrb	r2, [r1, r2]	@ zero_extendqisi2
 189 0020 1342     		tst	r3, r2
 190 0022 03D1     		bne	.L15
 310:Generated_Source\PSoC5/CapSense_CSHL.c ****         {
 311:Generated_Source\PSoC5/CapSense_CSHL.c ****             CapSense_sensorRaw[i] = 0u;
 191              		.loc 1 311 0
 192 0024 0022     		movs	r2, #0
 193 0026 064B     		ldr	r3, .L18+4
 194              	.LVL17:
 195 0028 23F81420 		strh	r2, [r3, r4, lsl #1]	@ movhi
 196              	.L15:
 312:Generated_Source\PSoC5/CapSense_CSHL.c ****         }
 313:Generated_Source\PSoC5/CapSense_CSHL.c ****         
 314:Generated_Source\PSoC5/CapSense_CSHL.c ****         /* Initialize baselines */
 315:Generated_Source\PSoC5/CapSense_CSHL.c ****         CapSense_BaseInit(i);
ARM GAS  C:\Users\ESTEBAN\AppData\Local\Temp\ccTkMZau.s 			page 10


 197              		.loc 1 315 0 discriminator 2
 198 002c 2046     		mov	r0, r4
 199 002e FFF7FEFF 		bl	CapSense_BaseInit
 200              	.LVL18:
 303:Generated_Source\PSoC5/CapSense_CSHL.c ****     {
 201              		.loc 1 303 0 discriminator 2
 202 0032 0134     		adds	r4, r4, #1
 203              	.LVL19:
 204 0034 E4B2     		uxtb	r4, r4
 205              	.LVL20:
 206              	.L14:
 303:Generated_Source\PSoC5/CapSense_CSHL.c ****     {
 207              		.loc 1 303 0 is_stmt 0 discriminator 1
 208 0036 062C     		cmp	r4, #6
 209 0038 EBD9     		bls	.L16
 316:Generated_Source\PSoC5/CapSense_CSHL.c ****     }
 317:Generated_Source\PSoC5/CapSense_CSHL.c **** }  
 210              		.loc 1 317 0 is_stmt 1
 211 003a 10BD     		pop	{r4, pc}
 212              	.LVL21:
 213              	.L19:
 214              		.align	2
 215              	.L18:
 216 003c 00000000 		.word	CapSense_sensorEnableMask
 217 0040 00000000 		.word	CapSense_sensorRaw
 218              		.cfi_endproc
 219              	.LFE3:
 220              		.size	CapSense_InitializeEnabledBaselines, .-CapSense_InitializeEnabledBaselines
 221              		.section	.text.CapSense_UpdateSensorBaseline,"ax",%progbits
 222              		.align	2
 223              		.global	CapSense_UpdateSensorBaseline
 224              		.thumb
 225              		.thumb_func
 226              		.type	CapSense_UpdateSensorBaseline, %function
 227              	CapSense_UpdateSensorBaseline:
 228              	.LFB4:
 318:Generated_Source\PSoC5/CapSense_CSHL.c **** 
 319:Generated_Source\PSoC5/CapSense_CSHL.c **** 
 320:Generated_Source\PSoC5/CapSense_CSHL.c **** /*******************************************************************************
 321:Generated_Source\PSoC5/CapSense_CSHL.c **** * Function Name: CapSense_UpdateSensorBaseline
 322:Generated_Source\PSoC5/CapSense_CSHL.c **** ********************************************************************************
 323:Generated_Source\PSoC5/CapSense_CSHL.c **** *
 324:Generated_Source\PSoC5/CapSense_CSHL.c **** * Summary:
 325:Generated_Source\PSoC5/CapSense_CSHL.c **** *  Updates the CapSense_sensorBaseline[sensor] array element using the 
 326:Generated_Source\PSoC5/CapSense_CSHL.c **** *  LP filter with k = 256. The signal calculates the difference of count by 
 327:Generated_Source\PSoC5/CapSense_CSHL.c **** *  subtracting the previous baseline from the current raw count value and stores
 328:Generated_Source\PSoC5/CapSense_CSHL.c **** *  it in CapSense_SensorSignal[sensor]. 
 329:Generated_Source\PSoC5/CapSense_CSHL.c **** *  If auto reset option is enabled the baseline updated regards noise threshold. 
 330:Generated_Source\PSoC5/CapSense_CSHL.c **** *  If auto reset option is disabled the baseline stops updating if signal is 
 331:Generated_Source\PSoC5/CapSense_CSHL.c **** *  greater that zero and baseline loads with raw count value if signal is less 
 332:Generated_Source\PSoC5/CapSense_CSHL.c **** *  that noise threshold.
 333:Generated_Source\PSoC5/CapSense_CSHL.c **** *  Raw data filters are applied to the values if enabled before baseline 
 334:Generated_Source\PSoC5/CapSense_CSHL.c **** *  calculation.
 335:Generated_Source\PSoC5/CapSense_CSHL.c **** *
 336:Generated_Source\PSoC5/CapSense_CSHL.c **** * Parameters:
 337:Generated_Source\PSoC5/CapSense_CSHL.c **** *  sensor:  Sensor number.
 338:Generated_Source\PSoC5/CapSense_CSHL.c **** *
ARM GAS  C:\Users\ESTEBAN\AppData\Local\Temp\ccTkMZau.s 			page 11


 339:Generated_Source\PSoC5/CapSense_CSHL.c **** * Return:
 340:Generated_Source\PSoC5/CapSense_CSHL.c **** *  None
 341:Generated_Source\PSoC5/CapSense_CSHL.c **** *
 342:Generated_Source\PSoC5/CapSense_CSHL.c **** * Global Variables:
 343:Generated_Source\PSoC5/CapSense_CSHL.c **** *  CapSense_sensorBaseline[]    - used to store baseline value.
 344:Generated_Source\PSoC5/CapSense_CSHL.c **** *  CapSense_sensorBaselineLow[] - used to store fraction byte of 
 345:Generated_Source\PSoC5/CapSense_CSHL.c **** *  baseline value.
 346:Generated_Source\PSoC5/CapSense_CSHL.c **** *  CapSense_sensorSignal[]      - used to store diffence between 
 347:Generated_Source\PSoC5/CapSense_CSHL.c **** *  current value of raw data and previous value of baseline.
 348:Generated_Source\PSoC5/CapSense_CSHL.c **** *  CapSense_rawFilterData1[]    - used to store previous sample of 
 349:Generated_Source\PSoC5/CapSense_CSHL.c **** *  any enabled raw data filter.
 350:Generated_Source\PSoC5/CapSense_CSHL.c **** *  CapSense_rawFilterData2[]    - used to store before previous sample
 351:Generated_Source\PSoC5/CapSense_CSHL.c **** *  of enabled raw data filter. Only required for median or average filters.
 352:Generated_Source\PSoC5/CapSense_CSHL.c **** *
 353:Generated_Source\PSoC5/CapSense_CSHL.c **** * Reentrant:
 354:Generated_Source\PSoC5/CapSense_CSHL.c **** *  No
 355:Generated_Source\PSoC5/CapSense_CSHL.c **** *
 356:Generated_Source\PSoC5/CapSense_CSHL.c **** *******************************************************************************/
 357:Generated_Source\PSoC5/CapSense_CSHL.c ****  void CapSense_UpdateSensorBaseline(uint8 sensor)
 358:Generated_Source\PSoC5/CapSense_CSHL.c ****                                  
 359:Generated_Source\PSoC5/CapSense_CSHL.c **** {
 229              		.loc 1 359 0
 230              		.cfi_startproc
 231              		@ args = 0, pretend = 0, frame = 0
 232              		@ frame_needed = 0, uses_anonymous_args = 0
 233              	.LVL22:
 234 0000 2DE9F041 		push	{r4, r5, r6, r7, r8, lr}
 235              		.cfi_def_cfa_offset 24
 236              		.cfi_offset 4, -24
 237              		.cfi_offset 5, -20
 238              		.cfi_offset 6, -16
 239              		.cfi_offset 7, -12
 240              		.cfi_offset 8, -8
 241              		.cfi_offset 14, -4
 242 0004 0446     		mov	r4, r0
 360:Generated_Source\PSoC5/CapSense_CSHL.c ****     uint32 calc;
 361:Generated_Source\PSoC5/CapSense_CSHL.c ****     uint16 tempRaw;
 362:Generated_Source\PSoC5/CapSense_CSHL.c ****     uint16 filteredRawData;
 363:Generated_Source\PSoC5/CapSense_CSHL.c ****     uint8 widget = CapSense_widgetNumber[sensor];
 243              		.loc 1 363 0
 244 0006 294B     		ldr	r3, .L31
 245 0008 1B5C     		ldrb	r3, [r3, r0]	@ zero_extendqisi2
 246              	.LVL23:
 364:Generated_Source\PSoC5/CapSense_CSHL.c ****     uint8 noiseThreshold = CapSense_noiseThreshold[widget];
 247              		.loc 1 364 0
 248 000a 294A     		ldr	r2, .L31+4
 249 000c 1344     		add	r3, r3, r2
 250              	.LVL24:
 251 000e 1E79     		ldrb	r6, [r3, #4]	@ zero_extendqisi2
 252              	.LVL25:
 365:Generated_Source\PSoC5/CapSense_CSHL.c ****     
 366:Generated_Source\PSoC5/CapSense_CSHL.c ****     #if (CapSense_TOTAL_GENERICS_COUNT)
 367:Generated_Source\PSoC5/CapSense_CSHL.c ****         /* Exclude generic widget */
 368:Generated_Source\PSoC5/CapSense_CSHL.c ****         if(widget < CapSense_END_OF_WIDGETS_INDEX)
 369:Generated_Source\PSoC5/CapSense_CSHL.c ****         {
 370:Generated_Source\PSoC5/CapSense_CSHL.c ****     #endif  /* CapSense_TOTAL_GENERICS_COUNT */
 371:Generated_Source\PSoC5/CapSense_CSHL.c ****     
ARM GAS  C:\Users\ESTEBAN\AppData\Local\Temp\ccTkMZau.s 			page 12


 372:Generated_Source\PSoC5/CapSense_CSHL.c ****     filteredRawData = CapSense_sensorRaw[sensor];
 253              		.loc 1 372 0
 254 0010 284B     		ldr	r3, .L31+8
 255              	.LVL26:
 256 0012 33F81080 		ldrh	r8, [r3, r0, lsl #1]
 257              	.LVL27:
 373:Generated_Source\PSoC5/CapSense_CSHL.c ****     
 374:Generated_Source\PSoC5/CapSense_CSHL.c ****     #if (CapSense_RAW_FILTER_MASK & CapSense_MEDIAN_FILTER)
 375:Generated_Source\PSoC5/CapSense_CSHL.c ****         tempRaw = filteredRawData;
 376:Generated_Source\PSoC5/CapSense_CSHL.c ****         filteredRawData = CapSense_MedianFilter(filteredRawData, CapSense_rawFilterData1[sensor], 
 377:Generated_Source\PSoC5/CapSense_CSHL.c ****                                                         CapSense_rawFilterData2[sensor]);
 378:Generated_Source\PSoC5/CapSense_CSHL.c ****         CapSense_rawFilterData2[sensor] = CapSense_rawFilterData1[sensor];
 379:Generated_Source\PSoC5/CapSense_CSHL.c ****         CapSense_rawFilterData1[sensor] = tempRaw;
 380:Generated_Source\PSoC5/CapSense_CSHL.c ****         
 381:Generated_Source\PSoC5/CapSense_CSHL.c ****     #elif (CapSense_RAW_FILTER_MASK & CapSense_AVERAGING_FILTER)
 382:Generated_Source\PSoC5/CapSense_CSHL.c ****         tempRaw = filteredRawData;
 383:Generated_Source\PSoC5/CapSense_CSHL.c ****         filteredRawData = CapSense_AveragingFilter(filteredRawData, CapSense_rawFilterData1[sensor]
 384:Generated_Source\PSoC5/CapSense_CSHL.c ****                                                            CapSense_rawFilterData2[sensor]);
 385:Generated_Source\PSoC5/CapSense_CSHL.c ****         CapSense_rawFilterData2[sensor] = CapSense_rawFilterData1[sensor];
 386:Generated_Source\PSoC5/CapSense_CSHL.c ****         CapSense_rawFilterData1[sensor] = tempRaw;
 387:Generated_Source\PSoC5/CapSense_CSHL.c ****         
 388:Generated_Source\PSoC5/CapSense_CSHL.c ****     #elif (CapSense_RAW_FILTER_MASK & CapSense_IIR2_FILTER)
 389:Generated_Source\PSoC5/CapSense_CSHL.c ****         filteredRawData = CapSense_IIR2Filter(filteredRawData, CapSense_rawFilterData1[sensor]);
 390:Generated_Source\PSoC5/CapSense_CSHL.c ****         CapSense_rawFilterData1[sensor] = filteredRawData;
 391:Generated_Source\PSoC5/CapSense_CSHL.c ****         
 392:Generated_Source\PSoC5/CapSense_CSHL.c ****     #elif (CapSense_RAW_FILTER_MASK & CapSense_IIR4_FILTER)
 393:Generated_Source\PSoC5/CapSense_CSHL.c ****         filteredRawData = CapSense_IIR4Filter(filteredRawData, CapSense_rawFilterData1[sensor]);
 394:Generated_Source\PSoC5/CapSense_CSHL.c ****         CapSense_rawFilterData1[sensor] = filteredRawData;
 395:Generated_Source\PSoC5/CapSense_CSHL.c ****             
 396:Generated_Source\PSoC5/CapSense_CSHL.c ****     #elif (CapSense_RAW_FILTER_MASK & CapSense_JITTER_FILTER)
 397:Generated_Source\PSoC5/CapSense_CSHL.c ****         filteredRawData = CapSense_JitterFilter(filteredRawData, CapSense_rawFilterData1[sensor]);
 398:Generated_Source\PSoC5/CapSense_CSHL.c ****         CapSense_rawFilterData1[sensor] = filteredRawData;
 399:Generated_Source\PSoC5/CapSense_CSHL.c ****         
 400:Generated_Source\PSoC5/CapSense_CSHL.c ****     #elif (CapSense_RAW_FILTER_MASK & CapSense_IIR8_FILTER)
 401:Generated_Source\PSoC5/CapSense_CSHL.c ****         filteredRawData = CapSense_IIR8Filter(filteredRawData, CapSense_rawFilterData1[sensor]);
 402:Generated_Source\PSoC5/CapSense_CSHL.c ****         CapSense_rawFilterData1[sensor] = filteredRawData;
 403:Generated_Source\PSoC5/CapSense_CSHL.c ****         
 404:Generated_Source\PSoC5/CapSense_CSHL.c ****     #elif (CapSense_RAW_FILTER_MASK & CapSense_IIR16_FILTER)
 405:Generated_Source\PSoC5/CapSense_CSHL.c ****         filteredRawData = CapSense_IIR16Filter(filteredRawData, CapSense_rawFilterData1[sensor]);
 406:Generated_Source\PSoC5/CapSense_CSHL.c ****         CapSense_rawFilterData1[sensor] = filteredRawData;
 407:Generated_Source\PSoC5/CapSense_CSHL.c ****         
 408:Generated_Source\PSoC5/CapSense_CSHL.c ****     #else
 409:Generated_Source\PSoC5/CapSense_CSHL.c ****         /* No Raw filters */
 410:Generated_Source\PSoC5/CapSense_CSHL.c ****     #endif  /* (CapSense_RAW_FILTER_MASK & CapSense_MEDIAN_FILTER) */
 411:Generated_Source\PSoC5/CapSense_CSHL.c ****     
 412:Generated_Source\PSoC5/CapSense_CSHL.c ****     #if (CapSense_TUNING_METHOD == CapSense_AUTO_TUNING)
 413:Generated_Source\PSoC5/CapSense_CSHL.c ****         CapSense_CalculateThresholds(sensor);
 258              		.loc 1 413 0
 259 0016 FFF7FEFF 		bl	CapSense_CalculateThresholds
 260              	.LVL28:
 414:Generated_Source\PSoC5/CapSense_CSHL.c ****     #endif /* (CapSense_TUNING_METHOD == CapSense_AUTO_TUNING) */
 415:Generated_Source\PSoC5/CapSense_CSHL.c **** 
 416:Generated_Source\PSoC5/CapSense_CSHL.c **** 
 417:Generated_Source\PSoC5/CapSense_CSHL.c ****     /* Baseline calculation */
 418:Generated_Source\PSoC5/CapSense_CSHL.c ****     /* Calculate difference RawData[cur] - Baseline[prev] */
 419:Generated_Source\PSoC5/CapSense_CSHL.c ****     if(filteredRawData >= CapSense_sensorBaseline[sensor])
 261              		.loc 1 419 0
ARM GAS  C:\Users\ESTEBAN\AppData\Local\Temp\ccTkMZau.s 			page 13


 262 001a 274B     		ldr	r3, .L31+12
 263 001c 33F81420 		ldrh	r2, [r3, r4, lsl #1]
 264 0020 9045     		cmp	r8, r2
 265 0022 04D3     		bcc	.L21
 420:Generated_Source\PSoC5/CapSense_CSHL.c ****     {
 421:Generated_Source\PSoC5/CapSense_CSHL.c ****         tempRaw = filteredRawData - CapSense_sensorBaseline[sensor];
 266              		.loc 1 421 0
 267 0024 C2EB0805 		rsb	r5, r2, r8
 268 0028 ADB2     		uxth	r5, r5
 269              	.LVL29:
 422:Generated_Source\PSoC5/CapSense_CSHL.c ****         widget = 1u;    /* Positive difference - Calculate the Signal */
 270              		.loc 1 422 0
 271 002a 0127     		movs	r7, #1
 272 002c 03E0     		b	.L22
 273              	.LVL30:
 274              	.L21:
 423:Generated_Source\PSoC5/CapSense_CSHL.c ****     }
 424:Generated_Source\PSoC5/CapSense_CSHL.c ****     else
 425:Generated_Source\PSoC5/CapSense_CSHL.c ****     {
 426:Generated_Source\PSoC5/CapSense_CSHL.c ****         tempRaw = CapSense_sensorBaseline[sensor] - filteredRawData;
 275              		.loc 1 426 0
 276 002e C8EB0205 		rsb	r5, r8, r2
 277 0032 ADB2     		uxth	r5, r5
 278              	.LVL31:
 427:Generated_Source\PSoC5/CapSense_CSHL.c ****         widget = 0u;    /* Negative difference - Do NOT calculate the Signal */
 279              		.loc 1 427 0
 280 0034 0027     		movs	r7, #0
 281              	.LVL32:
 282              	.L22:
 428:Generated_Source\PSoC5/CapSense_CSHL.c ****     }
 429:Generated_Source\PSoC5/CapSense_CSHL.c **** 
 430:Generated_Source\PSoC5/CapSense_CSHL.c ****     if((widget == 0u) && (tempRaw > (uint16) CapSense_NEGATIVE_NOISE_THRESHOLD))
 283              		.loc 1 430 0
 284 0036 87B9     		cbnz	r7, .L23
 285              		.loc 1 430 0 is_stmt 0 discriminator 1
 286 0038 142D     		cmp	r5, #20
 287 003a 0ED9     		bls	.L23
 431:Generated_Source\PSoC5/CapSense_CSHL.c ****     {
 432:Generated_Source\PSoC5/CapSense_CSHL.c ****         if(CapSense_lowBaselineResetCnt[sensor] >= CapSense_LOW_BASELINE_RESET)
 288              		.loc 1 432 0 is_stmt 1
 289 003c 1F4B     		ldr	r3, .L31+16
 290 003e 1B5D     		ldrb	r3, [r3, r4]	@ zero_extendqisi2
 291 0040 042B     		cmp	r3, #4
 292 0042 06D9     		bls	.L24
 433:Generated_Source\PSoC5/CapSense_CSHL.c ****         {
 434:Generated_Source\PSoC5/CapSense_CSHL.c ****             CapSense_BaseInit(sensor);
 293              		.loc 1 434 0
 294 0044 2046     		mov	r0, r4
 295 0046 FFF7FEFF 		bl	CapSense_BaseInit
 296              	.LVL33:
 435:Generated_Source\PSoC5/CapSense_CSHL.c ****             CapSense_lowBaselineResetCnt[sensor] = 0u;
 297              		.loc 1 435 0
 298 004a 0022     		movs	r2, #0
 299 004c 1B4B     		ldr	r3, .L31+16
 300 004e 1A55     		strb	r2, [r3, r4]
 301 0050 18E0     		b	.L25
 302              	.L24:
ARM GAS  C:\Users\ESTEBAN\AppData\Local\Temp\ccTkMZau.s 			page 14


 436:Generated_Source\PSoC5/CapSense_CSHL.c ****         }
 437:Generated_Source\PSoC5/CapSense_CSHL.c ****         else
 438:Generated_Source\PSoC5/CapSense_CSHL.c ****         {
 439:Generated_Source\PSoC5/CapSense_CSHL.c ****             CapSense_lowBaselineResetCnt[sensor]++;
 303              		.loc 1 439 0
 304 0052 0133     		adds	r3, r3, #1
 305 0054 194A     		ldr	r2, .L31+16
 306 0056 1355     		strb	r3, [r2, r4]
 307 0058 14E0     		b	.L25
 308              	.L23:
 440:Generated_Source\PSoC5/CapSense_CSHL.c ****         }
 441:Generated_Source\PSoC5/CapSense_CSHL.c ****     }
 442:Generated_Source\PSoC5/CapSense_CSHL.c ****     else
 443:Generated_Source\PSoC5/CapSense_CSHL.c ****     {
 444:Generated_Source\PSoC5/CapSense_CSHL.c ****         #if (CapSense_AUTO_RESET == CapSense_AUTO_RESET_DISABLE)
 445:Generated_Source\PSoC5/CapSense_CSHL.c ****             /* Update Baseline if lower that noiseThreshold */
 446:Generated_Source\PSoC5/CapSense_CSHL.c ****             if ( (tempRaw <= (uint16) noiseThreshold) || 
 309              		.loc 1 446 0
 310 005a B3B2     		uxth	r3, r6
 311 005c 9D42     		cmp	r5, r3
 312 005e 02D9     		bls	.L26
 313              		.loc 1 446 0 is_stmt 0 discriminator 1
 314 0060 132D     		cmp	r5, #19
 315 0062 0FD8     		bhi	.L25
 447:Generated_Source\PSoC5/CapSense_CSHL.c ****                  ((tempRaw < (uint16) CapSense_NEGATIVE_NOISE_THRESHOLD)
 448:Generated_Source\PSoC5/CapSense_CSHL.c ****                    && (widget == 0u)))
 316              		.loc 1 448 0 is_stmt 1
 317 0064 77B9     		cbnz	r7, .L25
 318              	.L26:
 319              	.LVL34:
 449:Generated_Source\PSoC5/CapSense_CSHL.c ****             {
 450:Generated_Source\PSoC5/CapSense_CSHL.c ****         #endif /* (CapSense_AUTO_RESET == CapSense_AUTO_RESET_DISABLE) */
 451:Generated_Source\PSoC5/CapSense_CSHL.c ****                 /* Make full Baseline 23 bits */
 452:Generated_Source\PSoC5/CapSense_CSHL.c ****                 calc = (uint32) CapSense_sensorBaseline[sensor] << 8u;
 453:Generated_Source\PSoC5/CapSense_CSHL.c ****                 calc |= (uint32) CapSense_sensorBaselineLow[sensor];
 320              		.loc 1 453 0
 321 0066 1649     		ldr	r1, .L31+20
 322 0068 0B5D     		ldrb	r3, [r1, r4]	@ zero_extendqisi2
 323 006a 43EA0223 		orr	r3, r3, r2, lsl #8
 324              	.LVL35:
 454:Generated_Source\PSoC5/CapSense_CSHL.c **** 
 455:Generated_Source\PSoC5/CapSense_CSHL.c ****                 /* Add Raw Data to Baseline */
 456:Generated_Source\PSoC5/CapSense_CSHL.c ****                 calc += filteredRawData;
 325              		.loc 1 456 0
 326 006e 4344     		add	r3, r3, r8
 327              	.LVL36:
 457:Generated_Source\PSoC5/CapSense_CSHL.c **** 
 458:Generated_Source\PSoC5/CapSense_CSHL.c ****                 /* Sub the high Baseline */
 459:Generated_Source\PSoC5/CapSense_CSHL.c ****                 calc -= CapSense_sensorBaseline[sensor];
 328              		.loc 1 459 0
 329 0070 9B1A     		subs	r3, r3, r2
 330              	.LVL37:
 460:Generated_Source\PSoC5/CapSense_CSHL.c **** 
 461:Generated_Source\PSoC5/CapSense_CSHL.c ****                 /* Put Baseline and BaselineLow */
 462:Generated_Source\PSoC5/CapSense_CSHL.c ****                 CapSense_sensorBaseline[sensor] = ((uint16) (calc >> 8u));
 331              		.loc 1 462 0
 332 0072 C3F30F20 		ubfx	r0, r3, #8, #16
ARM GAS  C:\Users\ESTEBAN\AppData\Local\Temp\ccTkMZau.s 			page 15


 333 0076 104A     		ldr	r2, .L31+12
 334 0078 22F81400 		strh	r0, [r2, r4, lsl #1]	@ movhi
 463:Generated_Source\PSoC5/CapSense_CSHL.c ****                 CapSense_sensorBaselineLow[sensor] = ((uint8) calc);
 335              		.loc 1 463 0
 336 007c 0B55     		strb	r3, [r1, r4]
 464:Generated_Source\PSoC5/CapSense_CSHL.c **** 
 465:Generated_Source\PSoC5/CapSense_CSHL.c ****                 CapSense_lowBaselineResetCnt[sensor] = 0u;
 337              		.loc 1 465 0
 338 007e 0022     		movs	r2, #0
 339 0080 0E4B     		ldr	r3, .L31+16
 340              	.LVL38:
 341 0082 1A55     		strb	r2, [r3, r4]
 342              	.L25:
 466:Generated_Source\PSoC5/CapSense_CSHL.c ****         #if (CapSense_AUTO_RESET == CapSense_AUTO_RESET_DISABLE)
 467:Generated_Source\PSoC5/CapSense_CSHL.c ****             }
 468:Generated_Source\PSoC5/CapSense_CSHL.c ****         #endif /* (CapSense_AUTO_RESET == CapSense_AUTO_RESET_DISABLE) */
 469:Generated_Source\PSoC5/CapSense_CSHL.c ****     }
 470:Generated_Source\PSoC5/CapSense_CSHL.c **** 
 471:Generated_Source\PSoC5/CapSense_CSHL.c ****     /* Calculate Signal if possitive difference > noiseThreshold */
 472:Generated_Source\PSoC5/CapSense_CSHL.c ****     if((tempRaw > (uint16) noiseThreshold) && (widget != 0u))
 343              		.loc 1 472 0
 344 0084 B6B2     		uxth	r6, r6
 345              	.LVL39:
 346 0086 B542     		cmp	r5, r6
 347 0088 0BD9     		bls	.L27
 348              		.loc 1 472 0 is_stmt 0 discriminator 1
 349 008a 57B1     		cbz	r7, .L27
 473:Generated_Source\PSoC5/CapSense_CSHL.c ****     {
 474:Generated_Source\PSoC5/CapSense_CSHL.c ****         #if (CapSense_SIGNAL_SIZE == CapSense_SIGNAL_SIZE_UINT8)
 475:Generated_Source\PSoC5/CapSense_CSHL.c ****             /* Over flow defence for uint8 */
 476:Generated_Source\PSoC5/CapSense_CSHL.c ****             if (tempRaw > 0xFFu)
 350              		.loc 1 476 0 is_stmt 1
 351 008c FF2D     		cmp	r5, #255
 352 008e 04D9     		bls	.L28
 477:Generated_Source\PSoC5/CapSense_CSHL.c ****             {
 478:Generated_Source\PSoC5/CapSense_CSHL.c ****                 CapSense_sensorSignal[sensor] = 0xFFu;
 353              		.loc 1 478 0
 354 0090 FF22     		movs	r2, #255
 355 0092 0C4B     		ldr	r3, .L31+24
 356 0094 1A55     		strb	r2, [r3, r4]
 357 0096 BDE8F081 		pop	{r4, r5, r6, r7, r8, pc}
 358              	.LVL40:
 359              	.L28:
 479:Generated_Source\PSoC5/CapSense_CSHL.c ****             }    
 480:Generated_Source\PSoC5/CapSense_CSHL.c ****             else 
 481:Generated_Source\PSoC5/CapSense_CSHL.c ****             {
 482:Generated_Source\PSoC5/CapSense_CSHL.c ****                 CapSense_sensorSignal[sensor] = ((uint8) tempRaw);
 360              		.loc 1 482 0
 361 009a 0A4B     		ldr	r3, .L31+24
 362 009c 1D55     		strb	r5, [r3, r4]
 363 009e BDE8F081 		pop	{r4, r5, r6, r7, r8, pc}
 364              	.LVL41:
 365              	.L27:
 483:Generated_Source\PSoC5/CapSense_CSHL.c ****             }
 484:Generated_Source\PSoC5/CapSense_CSHL.c ****         #else
 485:Generated_Source\PSoC5/CapSense_CSHL.c ****             CapSense_sensorSignal[sensor] = ((uint16) tempRaw);
 486:Generated_Source\PSoC5/CapSense_CSHL.c ****         #endif  /* (CapSense_SIGNAL_SIZE == CapSense_SIGNAL_SIZE_UINT8) */
ARM GAS  C:\Users\ESTEBAN\AppData\Local\Temp\ccTkMZau.s 			page 16


 487:Generated_Source\PSoC5/CapSense_CSHL.c ****     }
 488:Generated_Source\PSoC5/CapSense_CSHL.c ****     else
 489:Generated_Source\PSoC5/CapSense_CSHL.c ****     {
 490:Generated_Source\PSoC5/CapSense_CSHL.c ****         /* Signal is zero */
 491:Generated_Source\PSoC5/CapSense_CSHL.c ****         CapSense_sensorSignal[sensor] = 0u;
 366              		.loc 1 491 0
 367 00a2 0022     		movs	r2, #0
 368 00a4 074B     		ldr	r3, .L31+24
 369 00a6 1A55     		strb	r2, [r3, r4]
 370 00a8 BDE8F081 		pop	{r4, r5, r6, r7, r8, pc}
 371              	.LVL42:
 372              	.L32:
 373              		.align	2
 374              	.L31:
 375 00ac 00000000 		.word	CapSense_widgetNumber
 376 00b0 00000000 		.word	.LANCHOR0
 377 00b4 00000000 		.word	CapSense_sensorRaw
 378 00b8 00000000 		.word	CapSense_sensorBaseline
 379 00bc 00000000 		.word	CapSense_lowBaselineResetCnt
 380 00c0 00000000 		.word	CapSense_sensorBaselineLow
 381 00c4 00000000 		.word	CapSense_sensorSignal
 382              		.cfi_endproc
 383              	.LFE4:
 384              		.size	CapSense_UpdateSensorBaseline, .-CapSense_UpdateSensorBaseline
 385              		.section	.text.CapSense_UpdateEnabledBaselines,"ax",%progbits
 386              		.align	2
 387              		.global	CapSense_UpdateEnabledBaselines
 388              		.thumb
 389              		.thumb_func
 390              		.type	CapSense_UpdateEnabledBaselines, %function
 391              	CapSense_UpdateEnabledBaselines:
 392              	.LFB5:
 492:Generated_Source\PSoC5/CapSense_CSHL.c ****     }
 493:Generated_Source\PSoC5/CapSense_CSHL.c **** 
 494:Generated_Source\PSoC5/CapSense_CSHL.c ****     #if (CapSense_TOTAL_GENERICS_COUNT)
 495:Generated_Source\PSoC5/CapSense_CSHL.c ****         /* Exclude generic widget */
 496:Generated_Source\PSoC5/CapSense_CSHL.c ****         }
 497:Generated_Source\PSoC5/CapSense_CSHL.c ****     #endif  /* CapSense_TOTAL_GENERICS_COUNT */
 498:Generated_Source\PSoC5/CapSense_CSHL.c **** }
 499:Generated_Source\PSoC5/CapSense_CSHL.c **** 
 500:Generated_Source\PSoC5/CapSense_CSHL.c **** 
 501:Generated_Source\PSoC5/CapSense_CSHL.c **** /*******************************************************************************
 502:Generated_Source\PSoC5/CapSense_CSHL.c **** * Function Name: CapSense_UpdateEnabledBaselines
 503:Generated_Source\PSoC5/CapSense_CSHL.c **** ********************************************************************************
 504:Generated_Source\PSoC5/CapSense_CSHL.c **** *
 505:Generated_Source\PSoC5/CapSense_CSHL.c **** * Summary:
 506:Generated_Source\PSoC5/CapSense_CSHL.c **** *  Checks CapSense_sensorEnableMask[] array and calls the 
 507:Generated_Source\PSoC5/CapSense_CSHL.c **** *  CapSense_UpdateSensorBaseline function to update the baselines 
 508:Generated_Source\PSoC5/CapSense_CSHL.c **** *  for enabled sensors.
 509:Generated_Source\PSoC5/CapSense_CSHL.c **** *
 510:Generated_Source\PSoC5/CapSense_CSHL.c **** * Parameters:
 511:Generated_Source\PSoC5/CapSense_CSHL.c **** *  None
 512:Generated_Source\PSoC5/CapSense_CSHL.c **** *
 513:Generated_Source\PSoC5/CapSense_CSHL.c **** * Return:
 514:Generated_Source\PSoC5/CapSense_CSHL.c **** *  None
 515:Generated_Source\PSoC5/CapSense_CSHL.c **** *
 516:Generated_Source\PSoC5/CapSense_CSHL.c **** * Global Variables:
ARM GAS  C:\Users\ESTEBAN\AppData\Local\Temp\ccTkMZau.s 			page 17


 517:Generated_Source\PSoC5/CapSense_CSHL.c **** *  CapSense_sensorEnableMask[] - used to store the sensor scanning 
 518:Generated_Source\PSoC5/CapSense_CSHL.c **** *  state.
 519:Generated_Source\PSoC5/CapSense_CSHL.c **** *  CapSense_sensorEnableMask[0] contains the masked bits for sensors 
 520:Generated_Source\PSoC5/CapSense_CSHL.c **** *   0 through 7 (sensor 0 is bit 0, sensor 1 is bit 1).
 521:Generated_Source\PSoC5/CapSense_CSHL.c **** *  CapSense_sensorEnableMask[1] contains the masked bits for 
 522:Generated_Source\PSoC5/CapSense_CSHL.c **** *  sensors 8 through 15 (if needed), and so on.
 523:Generated_Source\PSoC5/CapSense_CSHL.c **** *  0 - sensor doesn't scan by CapSense_ScanEnabledWidgets().
 524:Generated_Source\PSoC5/CapSense_CSHL.c **** *  1 - sensor scans by CapSense_ScanEnabledWidgets().
 525:Generated_Source\PSoC5/CapSense_CSHL.c **** *
 526:Generated_Source\PSoC5/CapSense_CSHL.c **** * Reentrant:
 527:Generated_Source\PSoC5/CapSense_CSHL.c **** *  No
 528:Generated_Source\PSoC5/CapSense_CSHL.c **** *
 529:Generated_Source\PSoC5/CapSense_CSHL.c **** *******************************************************************************/
 530:Generated_Source\PSoC5/CapSense_CSHL.c ****  void CapSense_UpdateEnabledBaselines(void)
 531:Generated_Source\PSoC5/CapSense_CSHL.c ****                                  
 532:Generated_Source\PSoC5/CapSense_CSHL.c **** {
 393              		.loc 1 532 0
 394              		.cfi_startproc
 395              		@ args = 0, pretend = 0, frame = 0
 396              		@ frame_needed = 0, uses_anonymous_args = 0
 397 0000 10B5     		push	{r4, lr}
 398              		.cfi_def_cfa_offset 8
 399              		.cfi_offset 4, -8
 400              		.cfi_offset 14, -4
 401              	.LVL43:
 533:Generated_Source\PSoC5/CapSense_CSHL.c ****     uint8 i;
 534:Generated_Source\PSoC5/CapSense_CSHL.c ****     uint8 pos;
 535:Generated_Source\PSoC5/CapSense_CSHL.c ****     uint8 enMask;
 536:Generated_Source\PSoC5/CapSense_CSHL.c ****     
 537:Generated_Source\PSoC5/CapSense_CSHL.c ****     for(i = 0u; i < CapSense_TOTAL_SENSOR_COUNT; i++)
 402              		.loc 1 537 0
 403 0002 0024     		movs	r4, #0
 404 0004 0DE0     		b	.L34
 405              	.LVL44:
 406              	.L36:
 538:Generated_Source\PSoC5/CapSense_CSHL.c ****     {
 539:Generated_Source\PSoC5/CapSense_CSHL.c ****         pos = (i >> 3u);
 407              		.loc 1 539 0
 408 0006 E208     		lsrs	r2, r4, #3
 540:Generated_Source\PSoC5/CapSense_CSHL.c ****         enMask = (uint8)(0x01u << (i & 0x07u));
 409              		.loc 1 540 0
 410 0008 04F00701 		and	r1, r4, #7
 411 000c 0123     		movs	r3, #1
 412 000e 8B40     		lsls	r3, r3, r1
 413              	.LVL45:
 541:Generated_Source\PSoC5/CapSense_CSHL.c ****         if((CapSense_sensorEnableMask[pos] & enMask) != 0u)
 414              		.loc 1 541 0
 415 0010 0549     		ldr	r1, .L38
 416 0012 8A5C     		ldrb	r2, [r1, r2]	@ zero_extendqisi2
 417 0014 1342     		tst	r3, r2
 418 0016 02D0     		beq	.L35
 542:Generated_Source\PSoC5/CapSense_CSHL.c ****         {
 543:Generated_Source\PSoC5/CapSense_CSHL.c ****             CapSense_UpdateSensorBaseline(i);
 419              		.loc 1 543 0
 420 0018 2046     		mov	r0, r4
 421 001a FFF7FEFF 		bl	CapSense_UpdateSensorBaseline
 422              	.LVL46:
ARM GAS  C:\Users\ESTEBAN\AppData\Local\Temp\ccTkMZau.s 			page 18


 423              	.L35:
 537:Generated_Source\PSoC5/CapSense_CSHL.c ****     {
 424              		.loc 1 537 0 discriminator 2
 425 001e 0134     		adds	r4, r4, #1
 426              	.LVL47:
 427 0020 E4B2     		uxtb	r4, r4
 428              	.LVL48:
 429              	.L34:
 537:Generated_Source\PSoC5/CapSense_CSHL.c ****     {
 430              		.loc 1 537 0 is_stmt 0 discriminator 1
 431 0022 062C     		cmp	r4, #6
 432 0024 EFD9     		bls	.L36
 544:Generated_Source\PSoC5/CapSense_CSHL.c ****         }
 545:Generated_Source\PSoC5/CapSense_CSHL.c ****     }
 546:Generated_Source\PSoC5/CapSense_CSHL.c **** }
 433              		.loc 1 546 0 is_stmt 1
 434 0026 10BD     		pop	{r4, pc}
 435              	.LVL49:
 436              	.L39:
 437              		.align	2
 438              	.L38:
 439 0028 00000000 		.word	CapSense_sensorEnableMask
 440              		.cfi_endproc
 441              	.LFE5:
 442              		.size	CapSense_UpdateEnabledBaselines, .-CapSense_UpdateEnabledBaselines
 443              		.section	.text.CapSense_CheckIsSensorActive,"ax",%progbits
 444              		.align	2
 445              		.global	CapSense_CheckIsSensorActive
 446              		.thumb
 447              		.thumb_func
 448              		.type	CapSense_CheckIsSensorActive, %function
 449              	CapSense_CheckIsSensorActive:
 450              	.LFB6:
 547:Generated_Source\PSoC5/CapSense_CSHL.c **** 
 548:Generated_Source\PSoC5/CapSense_CSHL.c **** 
 549:Generated_Source\PSoC5/CapSense_CSHL.c **** /*******************************************************************************
 550:Generated_Source\PSoC5/CapSense_CSHL.c **** * Function Name: CapSense_CheckIsSensorActive
 551:Generated_Source\PSoC5/CapSense_CSHL.c **** ********************************************************************************
 552:Generated_Source\PSoC5/CapSense_CSHL.c **** *
 553:Generated_Source\PSoC5/CapSense_CSHL.c **** * Summary:
 554:Generated_Source\PSoC5/CapSense_CSHL.c **** *  Compares the CapSense_SensorSignal[sensor] array element to finger
 555:Generated_Source\PSoC5/CapSense_CSHL.c **** *  threshold of widget it belongs to. The hysteresis and debounce are taken into 
 556:Generated_Source\PSoC5/CapSense_CSHL.c **** *  account. The hysteresis is added or subtracted from the finger threshold 
 557:Generated_Source\PSoC5/CapSense_CSHL.c **** *  based on whether the sensor is currently active. 
 558:Generated_Source\PSoC5/CapSense_CSHL.c **** *  If the sensor is active, the threshold is lowered by the hysteresis amount.
 559:Generated_Source\PSoC5/CapSense_CSHL.c **** *  If the sensor is inactive, the threshold is raised by the hysteresis amount.
 560:Generated_Source\PSoC5/CapSense_CSHL.c **** *  The debounce counter added to the sensor active transition.
 561:Generated_Source\PSoC5/CapSense_CSHL.c **** *  This function updates CapSense_SensorOnMask[] array element.
 562:Generated_Source\PSoC5/CapSense_CSHL.c **** *
 563:Generated_Source\PSoC5/CapSense_CSHL.c **** * Parameters:
 564:Generated_Source\PSoC5/CapSense_CSHL.c **** *  sensor:  Sensor number.
 565:Generated_Source\PSoC5/CapSense_CSHL.c **** *
 566:Generated_Source\PSoC5/CapSense_CSHL.c **** * Return:
 567:Generated_Source\PSoC5/CapSense_CSHL.c **** *  Returns sensor state 1 if active, 0 if not active.
 568:Generated_Source\PSoC5/CapSense_CSHL.c **** *
 569:Generated_Source\PSoC5/CapSense_CSHL.c **** * Global Variables:
 570:Generated_Source\PSoC5/CapSense_CSHL.c **** *  CapSense_sensorSignal[]      - used to store diffence between 
ARM GAS  C:\Users\ESTEBAN\AppData\Local\Temp\ccTkMZau.s 			page 19


 571:Generated_Source\PSoC5/CapSense_CSHL.c **** *  current value of raw data and previous value of baseline.
 572:Generated_Source\PSoC5/CapSense_CSHL.c **** *  CapSense_debounceCounter[]   - used to store current debounce 
 573:Generated_Source\PSoC5/CapSense_CSHL.c **** *  counter of sensor. Widget which has this parameter are buttons, matrix 
 574:Generated_Source\PSoC5/CapSense_CSHL.c **** *  buttons, proximity, guard. All other widgets haven't debounce parameter
 575:Generated_Source\PSoC5/CapSense_CSHL.c **** *  and use the last element of this array with value 0 (it means no debounce).
 576:Generated_Source\PSoC5/CapSense_CSHL.c **** *  CapSense_sensorOnMask[] - used to store sensors on/off state.
 577:Generated_Source\PSoC5/CapSense_CSHL.c **** *  CapSense_sensorOnMask[0] contains the masked bits for sensors 
 578:Generated_Source\PSoC5/CapSense_CSHL.c **** *   0 through 7 (sensor 0 is bit 0, sensor 1 is bit 1).
 579:Generated_Source\PSoC5/CapSense_CSHL.c **** *  CapSense_sensorEnableMask[1] contains the masked bits for 
 580:Generated_Source\PSoC5/CapSense_CSHL.c **** *  sensors 8 through 15 (if needed), and so on.
 581:Generated_Source\PSoC5/CapSense_CSHL.c **** *  0 - sensor is inactive.
 582:Generated_Source\PSoC5/CapSense_CSHL.c **** *  1 - sensor is active.
 583:Generated_Source\PSoC5/CapSense_CSHL.c **** *
 584:Generated_Source\PSoC5/CapSense_CSHL.c **** * Reentrant:
 585:Generated_Source\PSoC5/CapSense_CSHL.c **** *  No
 586:Generated_Source\PSoC5/CapSense_CSHL.c **** *
 587:Generated_Source\PSoC5/CapSense_CSHL.c **** *******************************************************************************/
 588:Generated_Source\PSoC5/CapSense_CSHL.c **** uint8 CapSense_CheckIsSensorActive(uint8 sensor)
 589:Generated_Source\PSoC5/CapSense_CSHL.c ****                                   
 590:Generated_Source\PSoC5/CapSense_CSHL.c **** {
 451              		.loc 1 590 0
 452              		.cfi_startproc
 453              		@ args = 0, pretend = 0, frame = 0
 454              		@ frame_needed = 0, uses_anonymous_args = 0
 455              	.LVL50:
 456 0000 F0B5     		push	{r4, r5, r6, r7, lr}
 457              		.cfi_def_cfa_offset 20
 458              		.cfi_offset 4, -20
 459              		.cfi_offset 5, -16
 460              		.cfi_offset 6, -12
 461              		.cfi_offset 7, -8
 462              		.cfi_offset 14, -4
 591:Generated_Source\PSoC5/CapSense_CSHL.c ****     uint8 debounceIndex;
 592:Generated_Source\PSoC5/CapSense_CSHL.c ****     /* Get On/Off mask */
 593:Generated_Source\PSoC5/CapSense_CSHL.c ****     uint8 pos = (sensor >> 3u);
 463              		.loc 1 593 0
 464 0002 C408     		lsrs	r4, r0, #3
 465              	.LVL51:
 594:Generated_Source\PSoC5/CapSense_CSHL.c ****     uint8 onMask = 0x01u << (sensor & 0x07u);
 466              		.loc 1 594 0
 467 0004 00F00702 		and	r2, r0, #7
 468 0008 0123     		movs	r3, #1
 469 000a 9340     		lsls	r3, r3, r2
 470 000c DBB2     		uxtb	r3, r3
 471              	.LVL52:
 595:Generated_Source\PSoC5/CapSense_CSHL.c ****     /* Prepare to find debounce counter index */
 596:Generated_Source\PSoC5/CapSense_CSHL.c ****     uint8 widget = CapSense_widgetNumber[sensor];
 472              		.loc 1 596 0
 473 000e 1E4A     		ldr	r2, .L49
 474 0010 125C     		ldrb	r2, [r2, r0]	@ zero_extendqisi2
 475              	.LVL53:
 597:Generated_Source\PSoC5/CapSense_CSHL.c ****     uint8 fingerThreshold = CapSense_fingerThreshold[widget];
 476              		.loc 1 597 0
 477 0012 1E4D     		ldr	r5, .L49+4
 478 0014 AE18     		adds	r6, r5, r2
 479 0016 377A     		ldrb	r7, [r6, #8]	@ zero_extendqisi2
 480              	.LVL54:
ARM GAS  C:\Users\ESTEBAN\AppData\Local\Temp\ccTkMZau.s 			page 20


 598:Generated_Source\PSoC5/CapSense_CSHL.c ****     uint8 hysteresis = CapSense_hysteresis[widget];
 481              		.loc 1 598 0
 482 0018 317B     		ldrb	r1, [r6, #12]	@ zero_extendqisi2
 483              	.LVL55:
 599:Generated_Source\PSoC5/CapSense_CSHL.c ****     uint8 debounce = CapSense_debounce[widget];
 484              		.loc 1 599 0
 485 001a AE5C     		ldrb	r6, [r5, r2]	@ zero_extendqisi2
 486              	.LVL56:
 600:Generated_Source\PSoC5/CapSense_CSHL.c ****     
 601:Generated_Source\PSoC5/CapSense_CSHL.c ****     if (widget < CapSense_TOTAL_CENTROIDS_COUNT)
 487              		.loc 1 601 0
 488 001c 22B9     		cbnz	r2, .L41
 489              	.LVL57:
 602:Generated_Source\PSoC5/CapSense_CSHL.c ****     {
 603:Generated_Source\PSoC5/CapSense_CSHL.c ****         debounceIndex = CapSense_UNUSED_DEBOUNCE_COUNTER_INDEX;
 604:Generated_Source\PSoC5/CapSense_CSHL.c ****         CapSense_debounceCounter[debounceIndex] = 1u;
 490              		.loc 1 604 0
 491 001e 0125     		movs	r5, #1
 492 0020 1B4A     		ldr	r2, .L49+8
 493              	.LVL58:
 494 0022 9570     		strb	r5, [r2, #2]
 603:Generated_Source\PSoC5/CapSense_CSHL.c ****         CapSense_debounceCounter[debounceIndex] = 1u;
 495              		.loc 1 603 0
 496 0024 0222     		movs	r2, #2
 497 0026 01E0     		b	.L42
 498              	.LVL59:
 499              	.L41:
 605:Generated_Source\PSoC5/CapSense_CSHL.c ****     }
 606:Generated_Source\PSoC5/CapSense_CSHL.c ****     else
 607:Generated_Source\PSoC5/CapSense_CSHL.c ****     {
 608:Generated_Source\PSoC5/CapSense_CSHL.c ****         debounceIndex = widget - (CapSense_END_OF_TOUCH_PAD_INDEX + 1);
 500              		.loc 1 608 0
 501 0028 013A     		subs	r2, r2, #1
 502              	.LVL60:
 503 002a D2B2     		uxtb	r2, r2
 504              	.LVL61:
 505              	.L42:
 609:Generated_Source\PSoC5/CapSense_CSHL.c ****     }
 610:Generated_Source\PSoC5/CapSense_CSHL.c **** 
 611:Generated_Source\PSoC5/CapSense_CSHL.c ****     
 612:Generated_Source\PSoC5/CapSense_CSHL.c ****     /* Was on */
 613:Generated_Source\PSoC5/CapSense_CSHL.c ****     if (0u != (CapSense_sensorOnMask[pos] & onMask))
 506              		.loc 1 613 0
 507 002c 194D     		ldr	r5, .L49+12
 508 002e 2D5D     		ldrb	r5, [r5, r4]	@ zero_extendqisi2
 509 0030 2B42     		tst	r3, r5
 510 0032 0DD0     		beq	.L43
 614:Generated_Source\PSoC5/CapSense_CSHL.c ****     {
 615:Generated_Source\PSoC5/CapSense_CSHL.c ****         /* Hysteresis minus */
 616:Generated_Source\PSoC5/CapSense_CSHL.c ****         if (CapSense_sensorSignal[sensor] < (fingerThreshold - hysteresis))
 511              		.loc 1 616 0
 512 0034 DFF860E0 		ldr	lr, .L49+16
 513 0038 1EF80000 		ldrb	r0, [lr, r0]	@ zero_extendqisi2
 514              	.LVL62:
 515 003c 791A     		subs	r1, r7, r1
 516              	.LVL63:
 517 003e 8842     		cmp	r0, r1
ARM GAS  C:\Users\ESTEBAN\AppData\Local\Temp\ccTkMZau.s 			page 21


 518 0040 1BDA     		bge	.L44
 617:Generated_Source\PSoC5/CapSense_CSHL.c ****         {
 618:Generated_Source\PSoC5/CapSense_CSHL.c ****             CapSense_sensorOnMask[pos] &= (uint8)~onMask;
 519              		.loc 1 618 0
 520 0042 25EA0305 		bic	r5, r5, r3
 521 0046 1349     		ldr	r1, .L49+12
 522 0048 0D55     		strb	r5, [r1, r4]
 619:Generated_Source\PSoC5/CapSense_CSHL.c ****             CapSense_debounceCounter[debounceIndex] = debounce; 
 523              		.loc 1 619 0
 524 004a 1149     		ldr	r1, .L49+8
 525 004c 8E54     		strb	r6, [r1, r2]
 526 004e 14E0     		b	.L44
 527              	.LVL64:
 528              	.L43:
 620:Generated_Source\PSoC5/CapSense_CSHL.c ****         }
 621:Generated_Source\PSoC5/CapSense_CSHL.c ****     }
 622:Generated_Source\PSoC5/CapSense_CSHL.c ****     else    /* Was off */
 623:Generated_Source\PSoC5/CapSense_CSHL.c ****     {
 624:Generated_Source\PSoC5/CapSense_CSHL.c ****         /* Hysteresis plus */
 625:Generated_Source\PSoC5/CapSense_CSHL.c ****         if (CapSense_sensorSignal[sensor] > (fingerThreshold + hysteresis))
 529              		.loc 1 625 0
 530 0050 DFF844E0 		ldr	lr, .L49+16
 531 0054 1EF80000 		ldrb	r0, [lr, r0]	@ zero_extendqisi2
 532              	.LVL65:
 533 0058 3944     		add	r1, r1, r7
 534              	.LVL66:
 535 005a 8842     		cmp	r0, r1
 536 005c 0BDD     		ble	.L45
 626:Generated_Source\PSoC5/CapSense_CSHL.c ****         {
 627:Generated_Source\PSoC5/CapSense_CSHL.c ****             /* Sensor active, decrement debounce counter */
 628:Generated_Source\PSoC5/CapSense_CSHL.c ****             if (CapSense_debounceCounter[debounceIndex] <= 1u)
 537              		.loc 1 628 0
 538 005e 1146     		mov	r1, r2
 539 0060 0B48     		ldr	r0, .L49+8
 540 0062 825C     		ldrb	r2, [r0, r2]	@ zero_extendqisi2
 541              	.LVL67:
 542 0064 012A     		cmp	r2, #1
 543 0066 02D8     		bhi	.L46
 629:Generated_Source\PSoC5/CapSense_CSHL.c ****             {
 630:Generated_Source\PSoC5/CapSense_CSHL.c ****                 CapSense_sensorOnMask[pos] |= onMask; 
 544              		.loc 1 630 0
 545 0068 1D43     		orrs	r5, r5, r3
 546 006a 0A48     		ldr	r0, .L49+12
 547 006c 0555     		strb	r5, [r0, r4]
 548              	.L46:
 631:Generated_Source\PSoC5/CapSense_CSHL.c ****             }
 632:Generated_Source\PSoC5/CapSense_CSHL.c ****             CapSense_debounceCounter[debounceIndex]--;
 549              		.loc 1 632 0
 550 006e 013A     		subs	r2, r2, #1
 551 0070 0748     		ldr	r0, .L49+8
 552 0072 4254     		strb	r2, [r0, r1]
 553 0074 01E0     		b	.L44
 554              	.LVL68:
 555              	.L45:
 633:Generated_Source\PSoC5/CapSense_CSHL.c ****         }
 634:Generated_Source\PSoC5/CapSense_CSHL.c ****         else
 635:Generated_Source\PSoC5/CapSense_CSHL.c ****         {
ARM GAS  C:\Users\ESTEBAN\AppData\Local\Temp\ccTkMZau.s 			page 22


 636:Generated_Source\PSoC5/CapSense_CSHL.c ****             /* Sensor inactive - reset Debounce counter */
 637:Generated_Source\PSoC5/CapSense_CSHL.c ****             CapSense_debounceCounter[debounceIndex] = debounce;
 556              		.loc 1 637 0
 557 0076 0649     		ldr	r1, .L49+8
 558 0078 8E54     		strb	r6, [r1, r2]
 559              	.LVL69:
 560              	.L44:
 638:Generated_Source\PSoC5/CapSense_CSHL.c ****         }
 639:Generated_Source\PSoC5/CapSense_CSHL.c ****     }
 640:Generated_Source\PSoC5/CapSense_CSHL.c ****     
 641:Generated_Source\PSoC5/CapSense_CSHL.c ****     return (((CapSense_sensorOnMask[pos] & onMask) != 0u) ? 1u : 0u);
 561              		.loc 1 641 0
 562 007a 064A     		ldr	r2, .L49+12
 563 007c 105D     		ldrb	r0, [r2, r4]	@ zero_extendqisi2
 564 007e 1840     		ands	r0, r3, r0
 565 0080 00D0     		beq	.L47
 566 0082 0120     		movs	r0, #1
 567              	.L47:
 642:Generated_Source\PSoC5/CapSense_CSHL.c **** }
 568              		.loc 1 642 0 discriminator 4
 569 0084 F0BD     		pop	{r4, r5, r6, r7, pc}
 570              	.LVL70:
 571              	.L50:
 572 0086 00BF     		.align	2
 573              	.L49:
 574 0088 00000000 		.word	CapSense_widgetNumber
 575 008c 00000000 		.word	.LANCHOR0
 576 0090 00000000 		.word	.LANCHOR1
 577 0094 00000000 		.word	CapSense_sensorOnMask
 578 0098 00000000 		.word	CapSense_sensorSignal
 579              		.cfi_endproc
 580              	.LFE6:
 581              		.size	CapSense_CheckIsSensorActive, .-CapSense_CheckIsSensorActive
 582              		.section	.text.CapSense_CheckIsWidgetActive,"ax",%progbits
 583              		.align	2
 584              		.global	CapSense_CheckIsWidgetActive
 585              		.thumb
 586              		.thumb_func
 587              		.type	CapSense_CheckIsWidgetActive, %function
 588              	CapSense_CheckIsWidgetActive:
 589              	.LFB7:
 643:Generated_Source\PSoC5/CapSense_CSHL.c **** 
 644:Generated_Source\PSoC5/CapSense_CSHL.c **** 
 645:Generated_Source\PSoC5/CapSense_CSHL.c **** /*******************************************************************************
 646:Generated_Source\PSoC5/CapSense_CSHL.c **** * Function Name: CapSense_CheckIsWidgetActive
 647:Generated_Source\PSoC5/CapSense_CSHL.c **** ********************************************************************************
 648:Generated_Source\PSoC5/CapSense_CSHL.c **** *
 649:Generated_Source\PSoC5/CapSense_CSHL.c **** * Summary:
 650:Generated_Source\PSoC5/CapSense_CSHL.c **** *  Use function CapSense_CheckIsSensorActive() to update 
 651:Generated_Source\PSoC5/CapSense_CSHL.c **** *  CapSense_sensorOnMask[] for all sensors within the widget.
 652:Generated_Source\PSoC5/CapSense_CSHL.c **** *  If one of sensors within widget is active the function return that widget is 
 653:Generated_Source\PSoC5/CapSense_CSHL.c **** *  active.
 654:Generated_Source\PSoC5/CapSense_CSHL.c **** *  The touch pad and matrix buttons widgets need to have active sensor within 
 655:Generated_Source\PSoC5/CapSense_CSHL.c **** *  col and row to return widget active status.
 656:Generated_Source\PSoC5/CapSense_CSHL.c **** *
 657:Generated_Source\PSoC5/CapSense_CSHL.c **** * Parameters:
 658:Generated_Source\PSoC5/CapSense_CSHL.c **** *  widget:  widget number.
ARM GAS  C:\Users\ESTEBAN\AppData\Local\Temp\ccTkMZau.s 			page 23


 659:Generated_Source\PSoC5/CapSense_CSHL.c **** *
 660:Generated_Source\PSoC5/CapSense_CSHL.c **** * Return:
 661:Generated_Source\PSoC5/CapSense_CSHL.c **** *  Returns widget sensor state 1 if one or more sensors within widget is/are 
 662:Generated_Source\PSoC5/CapSense_CSHL.c **** *  active, 0 if all sensors within widget are inactive.
 663:Generated_Source\PSoC5/CapSense_CSHL.c **** *
 664:Generated_Source\PSoC5/CapSense_CSHL.c **** * Reentrant:
 665:Generated_Source\PSoC5/CapSense_CSHL.c **** *  No
 666:Generated_Source\PSoC5/CapSense_CSHL.c **** *
 667:Generated_Source\PSoC5/CapSense_CSHL.c **** *******************************************************************************/
 668:Generated_Source\PSoC5/CapSense_CSHL.c **** uint8 CapSense_CheckIsWidgetActive(uint8 widget)
 669:Generated_Source\PSoC5/CapSense_CSHL.c ****                                  
 670:Generated_Source\PSoC5/CapSense_CSHL.c **** {
 590              		.loc 1 670 0
 591              		.cfi_startproc
 592              		@ args = 0, pretend = 0, frame = 0
 593              		@ frame_needed = 0, uses_anonymous_args = 0
 594              	.LVL71:
 595 0000 70B5     		push	{r4, r5, r6, lr}
 596              		.cfi_def_cfa_offset 16
 597              		.cfi_offset 4, -16
 598              		.cfi_offset 5, -12
 599              		.cfi_offset 6, -8
 600              		.cfi_offset 14, -4
 671:Generated_Source\PSoC5/CapSense_CSHL.c ****     uint8 rawIndex = CapSense_rawDataIndex[widget];
 601              		.loc 1 671 0
 602 0002 094B     		ldr	r3, .L56
 603 0004 1C5C     		ldrb	r4, [r3, r0]	@ zero_extendqisi2
 604              	.LVL72:
 672:Generated_Source\PSoC5/CapSense_CSHL.c ****     uint8 numberOfSensors = CapSense_numberOfSensors[widget] + rawIndex;
 605              		.loc 1 672 0
 606 0006 1844     		add	r0, r0, r3
 607              	.LVL73:
 608 0008 0579     		ldrb	r5, [r0, #4]	@ zero_extendqisi2
 609 000a 2544     		add	r5, r5, r4
 610 000c EDB2     		uxtb	r5, r5
 611              	.LVL74:
 673:Generated_Source\PSoC5/CapSense_CSHL.c ****     uint8 state = 0u;
 612              		.loc 1 673 0
 613 000e 0026     		movs	r6, #0
 614              	.LVL75:
 615              	.L53:
 674:Generated_Source\PSoC5/CapSense_CSHL.c **** 
 675:Generated_Source\PSoC5/CapSense_CSHL.c ****     /* Check all sensors of the widget */
 676:Generated_Source\PSoC5/CapSense_CSHL.c ****     do
 677:Generated_Source\PSoC5/CapSense_CSHL.c ****     {
 678:Generated_Source\PSoC5/CapSense_CSHL.c ****         if(CapSense_CheckIsSensorActive(rawIndex) != 0u)
 616              		.loc 1 678 0
 617 0010 2046     		mov	r0, r4
 618 0012 FFF7FEFF 		bl	CapSense_CheckIsSensorActive
 619              	.LVL76:
 620 0016 00B1     		cbz	r0, .L52
 679:Generated_Source\PSoC5/CapSense_CSHL.c ****         {
 680:Generated_Source\PSoC5/CapSense_CSHL.c ****             state = CapSense_SENSOR_1_IS_ACTIVE;
 621              		.loc 1 680 0
 622 0018 0126     		movs	r6, #1
 623              	.LVL77:
 624              	.L52:
ARM GAS  C:\Users\ESTEBAN\AppData\Local\Temp\ccTkMZau.s 			page 24


 681:Generated_Source\PSoC5/CapSense_CSHL.c ****         }
 682:Generated_Source\PSoC5/CapSense_CSHL.c ****         rawIndex++;
 625              		.loc 1 682 0
 626 001a 0134     		adds	r4, r4, #1
 627              	.LVL78:
 628 001c E4B2     		uxtb	r4, r4
 629              	.LVL79:
 683:Generated_Source\PSoC5/CapSense_CSHL.c ****     }
 684:Generated_Source\PSoC5/CapSense_CSHL.c ****     while(rawIndex < numberOfSensors);
 630              		.loc 1 684 0
 631 001e A542     		cmp	r5, r4
 632 0020 F6D8     		bhi	.L53
 685:Generated_Source\PSoC5/CapSense_CSHL.c ****     
 686:Generated_Source\PSoC5/CapSense_CSHL.c **** 
 687:Generated_Source\PSoC5/CapSense_CSHL.c ****     
 688:Generated_Source\PSoC5/CapSense_CSHL.c ****     return (state);
 689:Generated_Source\PSoC5/CapSense_CSHL.c **** }
 633              		.loc 1 689 0
 634 0022 3046     		mov	r0, r6
 635 0024 70BD     		pop	{r4, r5, r6, pc}
 636              	.LVL80:
 637              	.L57:
 638 0026 00BF     		.align	2
 639              	.L56:
 640 0028 00000000 		.word	.LANCHOR2
 641              		.cfi_endproc
 642              	.LFE7:
 643              		.size	CapSense_CheckIsWidgetActive, .-CapSense_CheckIsWidgetActive
 644              		.section	.text.CapSense_CheckIsAnyWidgetActive,"ax",%progbits
 645              		.align	2
 646              		.global	CapSense_CheckIsAnyWidgetActive
 647              		.thumb
 648              		.thumb_func
 649              		.type	CapSense_CheckIsAnyWidgetActive, %function
 650              	CapSense_CheckIsAnyWidgetActive:
 651              	.LFB8:
 690:Generated_Source\PSoC5/CapSense_CSHL.c **** 
 691:Generated_Source\PSoC5/CapSense_CSHL.c **** 
 692:Generated_Source\PSoC5/CapSense_CSHL.c **** /*******************************************************************************
 693:Generated_Source\PSoC5/CapSense_CSHL.c **** * Function Name: CapSense_CheckIsAnyWidgetActive
 694:Generated_Source\PSoC5/CapSense_CSHL.c **** ********************************************************************************
 695:Generated_Source\PSoC5/CapSense_CSHL.c **** *
 696:Generated_Source\PSoC5/CapSense_CSHL.c **** * Summary:
 697:Generated_Source\PSoC5/CapSense_CSHL.c **** *  Compares all sensors of the CapSense_signal[] array to their finger 
 698:Generated_Source\PSoC5/CapSense_CSHL.c **** *  threshold. Calls CapSense_CheckIsWidgetActive() for each widget so 
 699:Generated_Source\PSoC5/CapSense_CSHL.c **** *  the CapSense_SensorOnMask[] array is up to date after calling this 
 700:Generated_Source\PSoC5/CapSense_CSHL.c **** *  function.
 701:Generated_Source\PSoC5/CapSense_CSHL.c **** *
 702:Generated_Source\PSoC5/CapSense_CSHL.c **** * Parameters:
 703:Generated_Source\PSoC5/CapSense_CSHL.c **** *  widget:  widget number.
 704:Generated_Source\PSoC5/CapSense_CSHL.c **** *
 705:Generated_Source\PSoC5/CapSense_CSHL.c **** * Return:
 706:Generated_Source\PSoC5/CapSense_CSHL.c **** *  Returns 1 if any widget is active, 0 none of widgets are active.
 707:Generated_Source\PSoC5/CapSense_CSHL.c **** *
 708:Generated_Source\PSoC5/CapSense_CSHL.c **** * Reentrant:
 709:Generated_Source\PSoC5/CapSense_CSHL.c **** *  No
 710:Generated_Source\PSoC5/CapSense_CSHL.c **** *
ARM GAS  C:\Users\ESTEBAN\AppData\Local\Temp\ccTkMZau.s 			page 25


 711:Generated_Source\PSoC5/CapSense_CSHL.c **** *******************************************************************************/
 712:Generated_Source\PSoC5/CapSense_CSHL.c **** uint8 CapSense_CheckIsAnyWidgetActive(void)
 713:Generated_Source\PSoC5/CapSense_CSHL.c ****                                  
 714:Generated_Source\PSoC5/CapSense_CSHL.c **** {
 652              		.loc 1 714 0
 653              		.cfi_startproc
 654              		@ args = 0, pretend = 0, frame = 0
 655              		@ frame_needed = 0, uses_anonymous_args = 0
 656 0000 38B5     		push	{r3, r4, r5, lr}
 657              		.cfi_def_cfa_offset 16
 658              		.cfi_offset 3, -16
 659              		.cfi_offset 4, -12
 660              		.cfi_offset 5, -8
 661              		.cfi_offset 14, -4
 662              	.LVL81:
 715:Generated_Source\PSoC5/CapSense_CSHL.c ****     uint8 i;
 716:Generated_Source\PSoC5/CapSense_CSHL.c ****     uint8 state = 0u;
 663              		.loc 1 716 0
 664 0002 0025     		movs	r5, #0
 717:Generated_Source\PSoC5/CapSense_CSHL.c ****     
 718:Generated_Source\PSoC5/CapSense_CSHL.c ****     for(i = 0u; i < CapSense_TOTAL_WIDGET_COUNT; i++)
 665              		.loc 1 718 0
 666 0004 2C46     		mov	r4, r5
 667 0006 06E0     		b	.L59
 668              	.LVL82:
 669              	.L61:
 719:Generated_Source\PSoC5/CapSense_CSHL.c ****     {
 720:Generated_Source\PSoC5/CapSense_CSHL.c ****         if (CapSense_CheckIsWidgetActive(i) != 0u)
 670              		.loc 1 720 0
 671 0008 2046     		mov	r0, r4
 672 000a FFF7FEFF 		bl	CapSense_CheckIsWidgetActive
 673              	.LVL83:
 674 000e 00B1     		cbz	r0, .L60
 721:Generated_Source\PSoC5/CapSense_CSHL.c ****         {
 722:Generated_Source\PSoC5/CapSense_CSHL.c ****             state = CapSense_WIDGET_IS_ACTIVE;
 675              		.loc 1 722 0
 676 0010 0125     		movs	r5, #1
 677              	.LVL84:
 678              	.L60:
 718:Generated_Source\PSoC5/CapSense_CSHL.c ****     {
 679              		.loc 1 718 0 discriminator 2
 680 0012 0134     		adds	r4, r4, #1
 681              	.LVL85:
 682 0014 E4B2     		uxtb	r4, r4
 683              	.LVL86:
 684              	.L59:
 718:Generated_Source\PSoC5/CapSense_CSHL.c ****     {
 685              		.loc 1 718 0 is_stmt 0 discriminator 1
 686 0016 022C     		cmp	r4, #2
 687 0018 F6D9     		bls	.L61
 723:Generated_Source\PSoC5/CapSense_CSHL.c ****         }
 724:Generated_Source\PSoC5/CapSense_CSHL.c ****     }
 725:Generated_Source\PSoC5/CapSense_CSHL.c ****     
 726:Generated_Source\PSoC5/CapSense_CSHL.c **** 
 727:Generated_Source\PSoC5/CapSense_CSHL.c ****     return (state);
 728:Generated_Source\PSoC5/CapSense_CSHL.c **** }
 688              		.loc 1 728 0 is_stmt 1
ARM GAS  C:\Users\ESTEBAN\AppData\Local\Temp\ccTkMZau.s 			page 26


 689 001a 2846     		mov	r0, r5
 690 001c 38BD     		pop	{r3, r4, r5, pc}
 691              		.cfi_endproc
 692              	.LFE8:
 693              		.size	CapSense_CheckIsAnyWidgetActive, .-CapSense_CheckIsAnyWidgetActive
 694 001e 00BF     		.section	.text.CapSense_EnableWidget,"ax",%progbits
 695              		.align	2
 696              		.global	CapSense_EnableWidget
 697              		.thumb
 698              		.thumb_func
 699              		.type	CapSense_EnableWidget, %function
 700              	CapSense_EnableWidget:
 701              	.LFB9:
 729:Generated_Source\PSoC5/CapSense_CSHL.c **** 
 730:Generated_Source\PSoC5/CapSense_CSHL.c **** 
 731:Generated_Source\PSoC5/CapSense_CSHL.c **** /*******************************************************************************
 732:Generated_Source\PSoC5/CapSense_CSHL.c **** * Function Name: CapSense_EnableWidget
 733:Generated_Source\PSoC5/CapSense_CSHL.c **** ********************************************************************************
 734:Generated_Source\PSoC5/CapSense_CSHL.c **** *
 735:Generated_Source\PSoC5/CapSense_CSHL.c **** * Summary:
 736:Generated_Source\PSoC5/CapSense_CSHL.c **** *  Enable all widget elements (sensors) to scanning process.
 737:Generated_Source\PSoC5/CapSense_CSHL.c **** *
 738:Generated_Source\PSoC5/CapSense_CSHL.c **** * Parameters:
 739:Generated_Source\PSoC5/CapSense_CSHL.c **** *  widget:  widget number.
 740:Generated_Source\PSoC5/CapSense_CSHL.c **** *
 741:Generated_Source\PSoC5/CapSense_CSHL.c **** * Return:
 742:Generated_Source\PSoC5/CapSense_CSHL.c **** *  None
 743:Generated_Source\PSoC5/CapSense_CSHL.c **** *
 744:Generated_Source\PSoC5/CapSense_CSHL.c **** * Global Variables:
 745:Generated_Source\PSoC5/CapSense_CSHL.c **** *  CapSense_sensorEnableMask[] - used to store the sensor scanning 
 746:Generated_Source\PSoC5/CapSense_CSHL.c **** *  state.
 747:Generated_Source\PSoC5/CapSense_CSHL.c **** *  CapSense_sensorEnableMask[0] contains the masked bits for sensors 
 748:Generated_Source\PSoC5/CapSense_CSHL.c **** *  0 through 7 (sensor 0 is bit 0, sensor 1 is bit 1).
 749:Generated_Source\PSoC5/CapSense_CSHL.c **** *  CapSense_sensorEnableMask[1] contains the masked bits for 
 750:Generated_Source\PSoC5/CapSense_CSHL.c **** *  sensors 8 through 15 (if needed), and so on.
 751:Generated_Source\PSoC5/CapSense_CSHL.c **** *  0 - sensor doesn't scan by CapSense_ScanEnabledWidgets().
 752:Generated_Source\PSoC5/CapSense_CSHL.c **** *  1 - sensor scans by CapSense_ScanEnabledWidgets().
 753:Generated_Source\PSoC5/CapSense_CSHL.c **** *
 754:Generated_Source\PSoC5/CapSense_CSHL.c **** * Reentrant:
 755:Generated_Source\PSoC5/CapSense_CSHL.c **** *  No
 756:Generated_Source\PSoC5/CapSense_CSHL.c **** *
 757:Generated_Source\PSoC5/CapSense_CSHL.c **** *******************************************************************************/
 758:Generated_Source\PSoC5/CapSense_CSHL.c **** void CapSense_EnableWidget(uint8 widget)
 759:Generated_Source\PSoC5/CapSense_CSHL.c ****                                    
 760:Generated_Source\PSoC5/CapSense_CSHL.c **** {
 702              		.loc 1 760 0
 703              		.cfi_startproc
 704              		@ args = 0, pretend = 0, frame = 0
 705              		@ frame_needed = 0, uses_anonymous_args = 0
 706              		@ link register save eliminated.
 707              	.LVL87:
 708 0000 30B4     		push	{r4, r5}
 709              		.cfi_def_cfa_offset 8
 710              		.cfi_offset 4, -8
 711              		.cfi_offset 5, -4
 761:Generated_Source\PSoC5/CapSense_CSHL.c ****     uint8 pos;
 762:Generated_Source\PSoC5/CapSense_CSHL.c ****     uint8 enMask;
ARM GAS  C:\Users\ESTEBAN\AppData\Local\Temp\ccTkMZau.s 			page 27


 763:Generated_Source\PSoC5/CapSense_CSHL.c ****     uint8 rawIndex = CapSense_rawDataIndex[widget];
 712              		.loc 1 763 0
 713 0002 0B4A     		ldr	r2, .L67
 714 0004 135C     		ldrb	r3, [r2, r0]	@ zero_extendqisi2
 715              	.LVL88:
 764:Generated_Source\PSoC5/CapSense_CSHL.c ****     uint8 numberOfSensors = CapSense_numberOfSensors[widget] + rawIndex;
 716              		.loc 1 764 0
 717 0006 1044     		add	r0, r0, r2
 718              	.LVL89:
 719 0008 0579     		ldrb	r5, [r0, #4]	@ zero_extendqisi2
 720 000a 1D44     		add	r5, r5, r3
 721 000c EDB2     		uxtb	r5, r5
 722              	.LVL90:
 723              	.L65:
 765:Generated_Source\PSoC5/CapSense_CSHL.c ****     
 766:Generated_Source\PSoC5/CapSense_CSHL.c ****     /* Enable all sensors of the widget */
 767:Generated_Source\PSoC5/CapSense_CSHL.c ****     do
 768:Generated_Source\PSoC5/CapSense_CSHL.c ****     {
 769:Generated_Source\PSoC5/CapSense_CSHL.c ****         pos = (rawIndex >> 3u);
 724              		.loc 1 769 0 discriminator 1
 725 000e D808     		lsrs	r0, r3, #3
 726              	.LVL91:
 770:Generated_Source\PSoC5/CapSense_CSHL.c ****         enMask = 0x01u << (rawIndex & 0x07u);
 727              		.loc 1 770 0 discriminator 1
 728 0010 03F00701 		and	r1, r3, #7
 729 0014 0122     		movs	r2, #1
 730 0016 8A40     		lsls	r2, r2, r1
 731 0018 D2B2     		uxtb	r2, r2
 732              	.LVL92:
 771:Generated_Source\PSoC5/CapSense_CSHL.c ****         
 772:Generated_Source\PSoC5/CapSense_CSHL.c ****         CapSense_sensorEnableMask[pos] |= enMask;
 733              		.loc 1 772 0 discriminator 1
 734 001a 064C     		ldr	r4, .L67+4
 735 001c 215C     		ldrb	r1, [r4, r0]	@ zero_extendqisi2
 736 001e 0A43     		orrs	r2, r2, r1
 737              	.LVL93:
 738 0020 2254     		strb	r2, [r4, r0]
 773:Generated_Source\PSoC5/CapSense_CSHL.c ****         rawIndex++;
 739              		.loc 1 773 0 discriminator 1
 740 0022 0133     		adds	r3, r3, #1
 741              	.LVL94:
 742 0024 DBB2     		uxtb	r3, r3
 743              	.LVL95:
 774:Generated_Source\PSoC5/CapSense_CSHL.c ****     }
 775:Generated_Source\PSoC5/CapSense_CSHL.c ****     while(rawIndex < numberOfSensors);
 744              		.loc 1 775 0 discriminator 1
 745 0026 9D42     		cmp	r5, r3
 746 0028 F1D8     		bhi	.L65
 776:Generated_Source\PSoC5/CapSense_CSHL.c ****     
 777:Generated_Source\PSoC5/CapSense_CSHL.c **** 
 778:Generated_Source\PSoC5/CapSense_CSHL.c **** }
 747              		.loc 1 778 0
 748 002a 30BC     		pop	{r4, r5}
 749              		.cfi_restore 5
 750              		.cfi_restore 4
 751              		.cfi_def_cfa_offset 0
 752              	.LVL96:
ARM GAS  C:\Users\ESTEBAN\AppData\Local\Temp\ccTkMZau.s 			page 28


 753 002c 7047     		bx	lr
 754              	.L68:
 755 002e 00BF     		.align	2
 756              	.L67:
 757 0030 00000000 		.word	.LANCHOR2
 758 0034 00000000 		.word	CapSense_sensorEnableMask
 759              		.cfi_endproc
 760              	.LFE9:
 761              		.size	CapSense_EnableWidget, .-CapSense_EnableWidget
 762              		.section	.text.CapSense_DisableWidget,"ax",%progbits
 763              		.align	2
 764              		.global	CapSense_DisableWidget
 765              		.thumb
 766              		.thumb_func
 767              		.type	CapSense_DisableWidget, %function
 768              	CapSense_DisableWidget:
 769              	.LFB10:
 779:Generated_Source\PSoC5/CapSense_CSHL.c **** 
 780:Generated_Source\PSoC5/CapSense_CSHL.c **** 
 781:Generated_Source\PSoC5/CapSense_CSHL.c **** /*******************************************************************************
 782:Generated_Source\PSoC5/CapSense_CSHL.c **** * Function Name: CapSense_DisableWidget
 783:Generated_Source\PSoC5/CapSense_CSHL.c **** ********************************************************************************
 784:Generated_Source\PSoC5/CapSense_CSHL.c **** *
 785:Generated_Source\PSoC5/CapSense_CSHL.c **** * Summary:
 786:Generated_Source\PSoC5/CapSense_CSHL.c **** *  Disable all widget elements (sensors) from scanning process.
 787:Generated_Source\PSoC5/CapSense_CSHL.c **** *
 788:Generated_Source\PSoC5/CapSense_CSHL.c **** * Parameters:
 789:Generated_Source\PSoC5/CapSense_CSHL.c **** *  widget:  widget number.
 790:Generated_Source\PSoC5/CapSense_CSHL.c **** *
 791:Generated_Source\PSoC5/CapSense_CSHL.c **** * Return:
 792:Generated_Source\PSoC5/CapSense_CSHL.c **** *  None
 793:Generated_Source\PSoC5/CapSense_CSHL.c **** *
 794:Generated_Source\PSoC5/CapSense_CSHL.c **** * Global Variables:
 795:Generated_Source\PSoC5/CapSense_CSHL.c **** *  CapSense_sensorEnableMask[] - used to store the sensor scanning 
 796:Generated_Source\PSoC5/CapSense_CSHL.c **** *  state.
 797:Generated_Source\PSoC5/CapSense_CSHL.c **** *  CapSense_sensorEnableMask[0] contains the masked bits for sensors 
 798:Generated_Source\PSoC5/CapSense_CSHL.c **** *  0 through 7 (sensor 0 is bit 0, sensor 1 is bit 1).
 799:Generated_Source\PSoC5/CapSense_CSHL.c **** *  CapSense_sensorEnableMask[1] contains the masked bits for 
 800:Generated_Source\PSoC5/CapSense_CSHL.c **** *  sensors 8 through 15 (if needed), and so on.
 801:Generated_Source\PSoC5/CapSense_CSHL.c **** *  0 - sensor doesn't scan by CapSense_ScanEnabledWidgets().
 802:Generated_Source\PSoC5/CapSense_CSHL.c **** *  1 - sensor scans by CapSense_ScanEnabledWidgets().
 803:Generated_Source\PSoC5/CapSense_CSHL.c **** *
 804:Generated_Source\PSoC5/CapSense_CSHL.c **** * Reentrant:
 805:Generated_Source\PSoC5/CapSense_CSHL.c **** *  No
 806:Generated_Source\PSoC5/CapSense_CSHL.c **** *
 807:Generated_Source\PSoC5/CapSense_CSHL.c **** *******************************************************************************/
 808:Generated_Source\PSoC5/CapSense_CSHL.c **** void CapSense_DisableWidget(uint8 widget)
 809:Generated_Source\PSoC5/CapSense_CSHL.c ****                                     
 810:Generated_Source\PSoC5/CapSense_CSHL.c **** {
 770              		.loc 1 810 0
 771              		.cfi_startproc
 772              		@ args = 0, pretend = 0, frame = 0
 773              		@ frame_needed = 0, uses_anonymous_args = 0
 774              		@ link register save eliminated.
 775              	.LVL97:
 776 0000 30B4     		push	{r4, r5}
 777              		.cfi_def_cfa_offset 8
ARM GAS  C:\Users\ESTEBAN\AppData\Local\Temp\ccTkMZau.s 			page 29


 778              		.cfi_offset 4, -8
 779              		.cfi_offset 5, -4
 811:Generated_Source\PSoC5/CapSense_CSHL.c ****     uint8 pos;
 812:Generated_Source\PSoC5/CapSense_CSHL.c ****     uint8 enMask;
 813:Generated_Source\PSoC5/CapSense_CSHL.c ****     uint8 rawIndex = CapSense_rawDataIndex[widget];
 780              		.loc 1 813 0
 781 0002 0B4A     		ldr	r2, .L72
 782 0004 135C     		ldrb	r3, [r2, r0]	@ zero_extendqisi2
 783              	.LVL98:
 814:Generated_Source\PSoC5/CapSense_CSHL.c ****     uint8 numberOfSensors = CapSense_numberOfSensors[widget] + rawIndex;
 784              		.loc 1 814 0
 785 0006 1044     		add	r0, r0, r2
 786              	.LVL99:
 787 0008 0579     		ldrb	r5, [r0, #4]	@ zero_extendqisi2
 788 000a 1D44     		add	r5, r5, r3
 789 000c EDB2     		uxtb	r5, r5
 790              	.LVL100:
 791              	.L70:
 815:Generated_Source\PSoC5/CapSense_CSHL.c ****    
 816:Generated_Source\PSoC5/CapSense_CSHL.c ****     /* Disable all sensors of the widget */
 817:Generated_Source\PSoC5/CapSense_CSHL.c ****     do
 818:Generated_Source\PSoC5/CapSense_CSHL.c ****     {
 819:Generated_Source\PSoC5/CapSense_CSHL.c ****         pos = (rawIndex >> 3u);
 792              		.loc 1 819 0 discriminator 1
 793 000e D808     		lsrs	r0, r3, #3
 794              	.LVL101:
 820:Generated_Source\PSoC5/CapSense_CSHL.c ****         enMask = 0x01u << (rawIndex & 0x07u);
 795              		.loc 1 820 0 discriminator 1
 796 0010 03F00701 		and	r1, r3, #7
 797 0014 0122     		movs	r2, #1
 798 0016 8A40     		lsls	r2, r2, r1
 799 0018 D2B2     		uxtb	r2, r2
 800              	.LVL102:
 821:Generated_Source\PSoC5/CapSense_CSHL.c ****         
 822:Generated_Source\PSoC5/CapSense_CSHL.c ****         CapSense_sensorEnableMask[pos] &= (uint8)~enMask;
 801              		.loc 1 822 0 discriminator 1
 802 001a 064C     		ldr	r4, .L72+4
 803 001c 215C     		ldrb	r1, [r4, r0]	@ zero_extendqisi2
 804 001e 21EA0202 		bic	r2, r1, r2
 805              	.LVL103:
 806 0022 2254     		strb	r2, [r4, r0]
 823:Generated_Source\PSoC5/CapSense_CSHL.c ****         rawIndex++;
 807              		.loc 1 823 0 discriminator 1
 808 0024 0133     		adds	r3, r3, #1
 809              	.LVL104:
 810 0026 DBB2     		uxtb	r3, r3
 811              	.LVL105:
 824:Generated_Source\PSoC5/CapSense_CSHL.c ****     }
 825:Generated_Source\PSoC5/CapSense_CSHL.c ****     while(rawIndex < numberOfSensors);
 812              		.loc 1 825 0 discriminator 1
 813 0028 9D42     		cmp	r5, r3
 814 002a F0D8     		bhi	.L70
 826:Generated_Source\PSoC5/CapSense_CSHL.c ****     
 827:Generated_Source\PSoC5/CapSense_CSHL.c **** 
 828:Generated_Source\PSoC5/CapSense_CSHL.c **** }
 815              		.loc 1 828 0
 816 002c 30BC     		pop	{r4, r5}
ARM GAS  C:\Users\ESTEBAN\AppData\Local\Temp\ccTkMZau.s 			page 30


 817              		.cfi_restore 5
 818              		.cfi_restore 4
 819              		.cfi_def_cfa_offset 0
 820              	.LVL106:
 821 002e 7047     		bx	lr
 822              	.L73:
 823              		.align	2
 824              	.L72:
 825 0030 00000000 		.word	.LANCHOR2
 826 0034 00000000 		.word	CapSense_sensorEnableMask
 827              		.cfi_endproc
 828              	.LFE10:
 829              		.size	CapSense_DisableWidget, .-CapSense_DisableWidget
 830              		.section	.text.CapSense_FindMaximum,"ax",%progbits
 831              		.align	2
 832              		.global	CapSense_FindMaximum
 833              		.thumb
 834              		.thumb_func
 835              		.type	CapSense_FindMaximum, %function
 836              	CapSense_FindMaximum:
 837              	.LFB11:
 829:Generated_Source\PSoC5/CapSense_CSHL.c **** #if(CapSense_TOTAL_CENTROIDS_COUNT)
 830:Generated_Source\PSoC5/CapSense_CSHL.c ****     /*******************************************************************************
 831:Generated_Source\PSoC5/CapSense_CSHL.c ****     * Function Name: CapSense_FindMaximum
 832:Generated_Source\PSoC5/CapSense_CSHL.c ****     ********************************************************************************
 833:Generated_Source\PSoC5/CapSense_CSHL.c ****     *
 834:Generated_Source\PSoC5/CapSense_CSHL.c ****     * Summary:
 835:Generated_Source\PSoC5/CapSense_CSHL.c ****     *  Finds index of maximum element within defined centroid. Checks 
 836:Generated_Source\PSoC5/CapSense_CSHL.c ****     *  CapSense_SensorSignal[] within defined cenrtoid and 
 837:Generated_Source\PSoC5/CapSense_CSHL.c ****     *  returns index of maximum element. The values below finger threshold are 
 838:Generated_Source\PSoC5/CapSense_CSHL.c ****     *  ignored.
 839:Generated_Source\PSoC5/CapSense_CSHL.c ****     *  The centrod defines by offset of first element and number of elements - count.
 840:Generated_Source\PSoC5/CapSense_CSHL.c ****     *  The diplexed centroid requires at least consecutive two elements above
 841:Generated_Source\PSoC5/CapSense_CSHL.c ****     *  FingerThreshold to find index of maximum element.
 842:Generated_Source\PSoC5/CapSense_CSHL.c ****     * 
 843:Generated_Source\PSoC5/CapSense_CSHL.c ****     * Parameters:
 844:Generated_Source\PSoC5/CapSense_CSHL.c ****     *  offset:  Start index of cetroid in CapSense_sensorSignal[] array.
 845:Generated_Source\PSoC5/CapSense_CSHL.c ****     *  count:   number of elements within centroid.
 846:Generated_Source\PSoC5/CapSense_CSHL.c ****     *  fingerThreshold:  Finger threshould.
 847:Generated_Source\PSoC5/CapSense_CSHL.c ****     *  diplex:   pointer to diplex table.
 848:Generated_Source\PSoC5/CapSense_CSHL.c ****     * 
 849:Generated_Source\PSoC5/CapSense_CSHL.c ****     * Return:
 850:Generated_Source\PSoC5/CapSense_CSHL.c ****     *  Returns index of maximum element within defined centroid.
 851:Generated_Source\PSoC5/CapSense_CSHL.c ****     *  If index of maximum element doesn't find the 0xFF returns.
 852:Generated_Source\PSoC5/CapSense_CSHL.c ****     * 
 853:Generated_Source\PSoC5/CapSense_CSHL.c ****     *******************************************************************************/
 854:Generated_Source\PSoC5/CapSense_CSHL.c ****     #if (CapSense_IS_DIPLEX_SLIDER)
 855:Generated_Source\PSoC5/CapSense_CSHL.c ****         uint8 CapSense_FindMaximum(uint8 offset, uint8 count, uint8 fingerThreshold, const uint8 CY
 856:Generated_Source\PSoC5/CapSense_CSHL.c **** 	                                       
 857:Generated_Source\PSoC5/CapSense_CSHL.c ****     #else 
 858:Generated_Source\PSoC5/CapSense_CSHL.c ****         uint8 CapSense_FindMaximum(uint8 offset, uint8 count, uint8 fingerThreshold)
 859:Generated_Source\PSoC5/CapSense_CSHL.c **** 	                                       
 860:Generated_Source\PSoC5/CapSense_CSHL.c ****     #endif /* (CapSense_IS_DIPLEX_SLIDER) */
 861:Generated_Source\PSoC5/CapSense_CSHL.c ****     {
 838              		.loc 1 861 0
 839              		.cfi_startproc
 840              		@ args = 0, pretend = 0, frame = 0
ARM GAS  C:\Users\ESTEBAN\AppData\Local\Temp\ccTkMZau.s 			page 31


 841              		@ frame_needed = 0, uses_anonymous_args = 0
 842              		@ link register save eliminated.
 843              	.LVL107:
 844 0000 70B4     		push	{r4, r5, r6}
 845              		.cfi_def_cfa_offset 12
 846              		.cfi_offset 4, -12
 847              		.cfi_offset 5, -8
 848              		.cfi_offset 6, -4
 849              	.LVL108:
 862:Generated_Source\PSoC5/CapSense_CSHL.c ****         uint8 i;
 863:Generated_Source\PSoC5/CapSense_CSHL.c ****         #if (CapSense_IS_DIPLEX_SLIDER)        
 864:Generated_Source\PSoC5/CapSense_CSHL.c ****             uint8 curPos = 0u;
 865:Generated_Source\PSoC5/CapSense_CSHL.c ****             /* No centroid at the Start */
 866:Generated_Source\PSoC5/CapSense_CSHL.c ****             uint8 curCntrdSize = 0u;
 867:Generated_Source\PSoC5/CapSense_CSHL.c ****             uint8 curCtrdStartPos = 0xFFu;
 868:Generated_Source\PSoC5/CapSense_CSHL.c ****             /* The biggset centroid is zero */
 869:Generated_Source\PSoC5/CapSense_CSHL.c ****             uint8 biggestCtrdSize = 0u;
 870:Generated_Source\PSoC5/CapSense_CSHL.c ****             uint8 biggestCtrdStartPos = 0u;
 871:Generated_Source\PSoC5/CapSense_CSHL.c ****         #endif /* (CapSense_IS_DIPLEX_SLIDER) */
 872:Generated_Source\PSoC5/CapSense_CSHL.c ****         uint8 maximum = 0xFFu;
 873:Generated_Source\PSoC5/CapSense_CSHL.c ****         uint8 temp = 0u;
 874:Generated_Source\PSoC5/CapSense_CSHL.c ****         uint8 *startOfSlider = &CapSense_sensorSignal[offset]; 
 850              		.loc 1 874 0
 851 0002 094D     		ldr	r5, .L80
 852 0004 0544     		add	r5, r5, r0
 853              	.LVL109:
 873:Generated_Source\PSoC5/CapSense_CSHL.c ****         uint8 *startOfSlider = &CapSense_sensorSignal[offset]; 
 854              		.loc 1 873 0
 855 0006 0026     		movs	r6, #0
 872:Generated_Source\PSoC5/CapSense_CSHL.c ****         uint8 temp = 0u;
 856              		.loc 1 872 0
 857 0008 FF20     		movs	r0, #255
 858              	.LVL110:
 875:Generated_Source\PSoC5/CapSense_CSHL.c **** 
 876:Generated_Source\PSoC5/CapSense_CSHL.c ****         #if (CapSense_IS_DIPLEX_SLIDER)        
 877:Generated_Source\PSoC5/CapSense_CSHL.c ****             if(diplex != 0u)
 878:Generated_Source\PSoC5/CapSense_CSHL.c ****             {
 879:Generated_Source\PSoC5/CapSense_CSHL.c ****                 /* Initialize */
 880:Generated_Source\PSoC5/CapSense_CSHL.c ****                 i = 0u;
 881:Generated_Source\PSoC5/CapSense_CSHL.c ****                 
 882:Generated_Source\PSoC5/CapSense_CSHL.c ****                 /* Make slider x2 as Diplexed */
 883:Generated_Source\PSoC5/CapSense_CSHL.c ****                 count <<= 1u;
 884:Generated_Source\PSoC5/CapSense_CSHL.c ****                 while(1u)
 885:Generated_Source\PSoC5/CapSense_CSHL.c ****                 { 
 886:Generated_Source\PSoC5/CapSense_CSHL.c ****                     if (startOfSlider[curPos] > 0u)    /* Looking for centroids */
 887:Generated_Source\PSoC5/CapSense_CSHL.c ****                     {
 888:Generated_Source\PSoC5/CapSense_CSHL.c ****                         if (curCtrdStartPos == 0xFFu)
 889:Generated_Source\PSoC5/CapSense_CSHL.c ****                         {
 890:Generated_Source\PSoC5/CapSense_CSHL.c ****                             /* Start of centroid */
 891:Generated_Source\PSoC5/CapSense_CSHL.c ****                             curCtrdStartPos = i;
 892:Generated_Source\PSoC5/CapSense_CSHL.c ****                             curCntrdSize++;
 893:Generated_Source\PSoC5/CapSense_CSHL.c ****                         }
 894:Generated_Source\PSoC5/CapSense_CSHL.c ****                         else
 895:Generated_Source\PSoC5/CapSense_CSHL.c ****                         {
 896:Generated_Source\PSoC5/CapSense_CSHL.c ****                             curCntrdSize++;
 897:Generated_Source\PSoC5/CapSense_CSHL.c ****                         }
 898:Generated_Source\PSoC5/CapSense_CSHL.c ****                     }
ARM GAS  C:\Users\ESTEBAN\AppData\Local\Temp\ccTkMZau.s 			page 32


 899:Generated_Source\PSoC5/CapSense_CSHL.c ****                     else   /* Select the bigest and indicate zero start */
 900:Generated_Source\PSoC5/CapSense_CSHL.c ****                     {          
 901:Generated_Source\PSoC5/CapSense_CSHL.c ****                         if(curCntrdSize > 0u)
 902:Generated_Source\PSoC5/CapSense_CSHL.c ****                         {
 903:Generated_Source\PSoC5/CapSense_CSHL.c ****                             /* We are in the end of current */
 904:Generated_Source\PSoC5/CapSense_CSHL.c ****                             if(curCntrdSize > biggestCtrdSize)
 905:Generated_Source\PSoC5/CapSense_CSHL.c ****                             {
 906:Generated_Source\PSoC5/CapSense_CSHL.c ****                                 biggestCtrdSize = curCntrdSize;
 907:Generated_Source\PSoC5/CapSense_CSHL.c ****                                 biggestCtrdStartPos = curCtrdStartPos;
 908:Generated_Source\PSoC5/CapSense_CSHL.c ****                             }
 909:Generated_Source\PSoC5/CapSense_CSHL.c ****                             
 910:Generated_Source\PSoC5/CapSense_CSHL.c ****                             curCntrdSize = 0u;
 911:Generated_Source\PSoC5/CapSense_CSHL.c ****                             curCtrdStartPos = 0xFFu;
 912:Generated_Source\PSoC5/CapSense_CSHL.c ****                         }
 913:Generated_Source\PSoC5/CapSense_CSHL.c ****                     }
 914:Generated_Source\PSoC5/CapSense_CSHL.c ****                     
 915:Generated_Source\PSoC5/CapSense_CSHL.c ****                     i++; 
 916:Generated_Source\PSoC5/CapSense_CSHL.c ****                     curPos = diplex[i];
 917:Generated_Source\PSoC5/CapSense_CSHL.c ****                     if(i == count)
 918:Generated_Source\PSoC5/CapSense_CSHL.c ****                     {
 919:Generated_Source\PSoC5/CapSense_CSHL.c ****                         break;
 920:Generated_Source\PSoC5/CapSense_CSHL.c ****                     }            
 921:Generated_Source\PSoC5/CapSense_CSHL.c ****                 }
 922:Generated_Source\PSoC5/CapSense_CSHL.c ****                     
 923:Generated_Source\PSoC5/CapSense_CSHL.c ****                     /* Find the biggest centroid if two are the same size, last one wins
 924:Generated_Source\PSoC5/CapSense_CSHL.c ****                        We are in the end of current */
 925:Generated_Source\PSoC5/CapSense_CSHL.c ****                 if (curCntrdSize >= biggestCtrdSize) 
 926:Generated_Source\PSoC5/CapSense_CSHL.c ****                 {
 927:Generated_Source\PSoC5/CapSense_CSHL.c ****                     biggestCtrdSize = curCntrdSize;
 928:Generated_Source\PSoC5/CapSense_CSHL.c ****                     biggestCtrdStartPos = curCtrdStartPos;
 929:Generated_Source\PSoC5/CapSense_CSHL.c ****                 }
 930:Generated_Source\PSoC5/CapSense_CSHL.c ****             }
 931:Generated_Source\PSoC5/CapSense_CSHL.c ****             else
 932:Generated_Source\PSoC5/CapSense_CSHL.c ****             {
 933:Generated_Source\PSoC5/CapSense_CSHL.c ****                 /* Without diplexing */ 
 934:Generated_Source\PSoC5/CapSense_CSHL.c ****                 biggestCtrdSize = count;
 935:Generated_Source\PSoC5/CapSense_CSHL.c ****             }
 936:Generated_Source\PSoC5/CapSense_CSHL.c ****                         
 937:Generated_Source\PSoC5/CapSense_CSHL.c **** 
 938:Generated_Source\PSoC5/CapSense_CSHL.c ****             /* Check centroid size */
 939:Generated_Source\PSoC5/CapSense_CSHL.c ****             #if (CapSense_IS_NON_DIPLEX_SLIDER)
 940:Generated_Source\PSoC5/CapSense_CSHL.c ****                 if((biggestCtrdSize >= 2u) || ((biggestCtrdSize == 1u) && (diplex == 0u)))
 941:Generated_Source\PSoC5/CapSense_CSHL.c ****             #else                    
 942:Generated_Source\PSoC5/CapSense_CSHL.c ****                 if(biggestCtrdSize >= 2u)
 943:Generated_Source\PSoC5/CapSense_CSHL.c ****             #endif /* (CapSense_IS_NON_DIPLEX_SLIDER) */
 944:Generated_Source\PSoC5/CapSense_CSHL.c ****                 {
 945:Generated_Source\PSoC5/CapSense_CSHL.c ****                     for (i = biggestCtrdStartPos; i < (biggestCtrdStartPos + biggestCtrdSize); i++)
 946:Generated_Source\PSoC5/CapSense_CSHL.c ****                     {
 947:Generated_Source\PSoC5/CapSense_CSHL.c ****                         #if (CapSense_IS_DIPLEX_SLIDER && CapSense_IS_NON_DIPLEX_SLIDER)
 948:Generated_Source\PSoC5/CapSense_CSHL.c ****                             if (diplex == 0u)
 949:Generated_Source\PSoC5/CapSense_CSHL.c ****                             {
 950:Generated_Source\PSoC5/CapSense_CSHL.c ****                                 curPos = i;
 951:Generated_Source\PSoC5/CapSense_CSHL.c ****                             }
 952:Generated_Source\PSoC5/CapSense_CSHL.c ****                             else
 953:Generated_Source\PSoC5/CapSense_CSHL.c ****                             {
 954:Generated_Source\PSoC5/CapSense_CSHL.c ****                                 curPos = diplex[i];
 955:Generated_Source\PSoC5/CapSense_CSHL.c ****                             }                    
ARM GAS  C:\Users\ESTEBAN\AppData\Local\Temp\ccTkMZau.s 			page 33


 956:Generated_Source\PSoC5/CapSense_CSHL.c ****                         #elif (CapSense_IS_DIPLEX_SLIDER)                    
 957:Generated_Source\PSoC5/CapSense_CSHL.c ****                             curPos = diplex[i];                    
 958:Generated_Source\PSoC5/CapSense_CSHL.c ****                         #endif /* (CapSense_IS_DIPLEX_SLIDER && CapSense_IS_NON_DIPLEX_SLIDER) */
 959:Generated_Source\PSoC5/CapSense_CSHL.c ****                         /* Looking for the grater element within centroid */
 960:Generated_Source\PSoC5/CapSense_CSHL.c ****                         if(startOfSlider[curPos] > fingerThreshold)
 961:Generated_Source\PSoC5/CapSense_CSHL.c ****                         {
 962:Generated_Source\PSoC5/CapSense_CSHL.c ****                             if(startOfSlider[curPos] > temp)
 963:Generated_Source\PSoC5/CapSense_CSHL.c ****                             {
 964:Generated_Source\PSoC5/CapSense_CSHL.c ****                                 maximum = i;
 965:Generated_Source\PSoC5/CapSense_CSHL.c ****                                 temp = startOfSlider[curPos];
 966:Generated_Source\PSoC5/CapSense_CSHL.c ****                             }
 967:Generated_Source\PSoC5/CapSense_CSHL.c ****                         }
 968:Generated_Source\PSoC5/CapSense_CSHL.c ****                     }
 969:Generated_Source\PSoC5/CapSense_CSHL.c ****                 } 
 970:Generated_Source\PSoC5/CapSense_CSHL.c ****         #else
 971:Generated_Source\PSoC5/CapSense_CSHL.c ****             for (i = 0u; i < count; i++)
 859              		.loc 1 971 0
 860 000a 3346     		mov	r3, r6
 861 000c 08E0     		b	.L75
 862              	.LVL111:
 863              	.L77:
 972:Generated_Source\PSoC5/CapSense_CSHL.c ****             {                      
 973:Generated_Source\PSoC5/CapSense_CSHL.c ****                 /* Looking for the grater element within centroid */
 974:Generated_Source\PSoC5/CapSense_CSHL.c ****                 if(startOfSlider[i] > fingerThreshold)
 864              		.loc 1 974 0
 865 000e EC5C     		ldrb	r4, [r5, r3]	@ zero_extendqisi2
 866 0010 9442     		cmp	r4, r2
 867 0012 03D9     		bls	.L76
 975:Generated_Source\PSoC5/CapSense_CSHL.c ****                 {
 976:Generated_Source\PSoC5/CapSense_CSHL.c ****                     if(startOfSlider[i] > temp)
 868              		.loc 1 976 0
 869 0014 A642     		cmp	r6, r4
 870 0016 01D2     		bcs	.L76
 977:Generated_Source\PSoC5/CapSense_CSHL.c ****                     {
 978:Generated_Source\PSoC5/CapSense_CSHL.c ****                         maximum = i;
 979:Generated_Source\PSoC5/CapSense_CSHL.c ****                         temp = startOfSlider[i];
 871              		.loc 1 979 0
 872 0018 2646     		mov	r6, r4
 873              	.LVL112:
 978:Generated_Source\PSoC5/CapSense_CSHL.c ****                         temp = startOfSlider[i];
 874              		.loc 1 978 0
 875 001a 1846     		mov	r0, r3
 876              	.LVL113:
 877              	.L76:
 971:Generated_Source\PSoC5/CapSense_CSHL.c ****             {                      
 878              		.loc 1 971 0 discriminator 2
 879 001c 0133     		adds	r3, r3, #1
 880              	.LVL114:
 881 001e DBB2     		uxtb	r3, r3
 882              	.LVL115:
 883              	.L75:
 971:Generated_Source\PSoC5/CapSense_CSHL.c ****             {                      
 884              		.loc 1 971 0 is_stmt 0 discriminator 1
 885 0020 8B42     		cmp	r3, r1
 886 0022 F4D3     		bcc	.L77
 980:Generated_Source\PSoC5/CapSense_CSHL.c ****                     }
 981:Generated_Source\PSoC5/CapSense_CSHL.c ****                 }
ARM GAS  C:\Users\ESTEBAN\AppData\Local\Temp\ccTkMZau.s 			page 34


 982:Generated_Source\PSoC5/CapSense_CSHL.c ****             }    
 983:Generated_Source\PSoC5/CapSense_CSHL.c ****         #endif /* (CapSense_IS_DIPLEX_SLIDER) */
 984:Generated_Source\PSoC5/CapSense_CSHL.c ****         return (maximum);
 985:Generated_Source\PSoC5/CapSense_CSHL.c ****     }
 887              		.loc 1 985 0 is_stmt 1
 888 0024 70BC     		pop	{r4, r5, r6}
 889              		.cfi_restore 6
 890              		.cfi_restore 5
 891              		.cfi_restore 4
 892              		.cfi_def_cfa_offset 0
 893              	.LVL116:
 894 0026 7047     		bx	lr
 895              	.L81:
 896              		.align	2
 897              	.L80:
 898 0028 00000000 		.word	CapSense_sensorSignal
 899              		.cfi_endproc
 900              	.LFE11:
 901              		.size	CapSense_FindMaximum, .-CapSense_FindMaximum
 902              		.section	.text.CapSense_CalcCentroid,"ax",%progbits
 903              		.align	2
 904              		.global	CapSense_CalcCentroid
 905              		.thumb
 906              		.thumb_func
 907              		.type	CapSense_CalcCentroid, %function
 908              	CapSense_CalcCentroid:
 909              	.LFB12:
 986:Generated_Source\PSoC5/CapSense_CSHL.c ****     
 987:Generated_Source\PSoC5/CapSense_CSHL.c ****     
 988:Generated_Source\PSoC5/CapSense_CSHL.c ****     /*******************************************************************************
 989:Generated_Source\PSoC5/CapSense_CSHL.c ****     * Function Name: CapSense_CalcCentroid
 990:Generated_Source\PSoC5/CapSense_CSHL.c ****     ********************************************************************************
 991:Generated_Source\PSoC5/CapSense_CSHL.c ****     *
 992:Generated_Source\PSoC5/CapSense_CSHL.c ****     * Summary:
 993:Generated_Source\PSoC5/CapSense_CSHL.c ****     *  Returns position value calculated accoring index of maximum element and API
 994:Generated_Source\PSoC5/CapSense_CSHL.c ****     *  resolution.
 995:Generated_Source\PSoC5/CapSense_CSHL.c ****     *
 996:Generated_Source\PSoC5/CapSense_CSHL.c ****     * Parameters:
 997:Generated_Source\PSoC5/CapSense_CSHL.c ****     *  type:  widget type.
 998:Generated_Source\PSoC5/CapSense_CSHL.c ****     *  diplex:  pointer to diplex table.
 999:Generated_Source\PSoC5/CapSense_CSHL.c ****     *  maximum:  Index of maximum element within centroid.
1000:Generated_Source\PSoC5/CapSense_CSHL.c ****     *  offset:   Start index of cetroid in CapSense_SensorSignal[] array.
1001:Generated_Source\PSoC5/CapSense_CSHL.c ****     *  count:    Number of elements within centroid.
1002:Generated_Source\PSoC5/CapSense_CSHL.c ****     *  resolution:  multiplicator calculated according to centroid type and
1003:Generated_Source\PSoC5/CapSense_CSHL.c ****     *  API resolution.
1004:Generated_Source\PSoC5/CapSense_CSHL.c ****     *  noiseThreshold:  Noise threshould.
1005:Generated_Source\PSoC5/CapSense_CSHL.c ****     * 
1006:Generated_Source\PSoC5/CapSense_CSHL.c ****     * Return:
1007:Generated_Source\PSoC5/CapSense_CSHL.c ****     *  Returns position value of the slider.
1008:Generated_Source\PSoC5/CapSense_CSHL.c ****     * 
1009:Generated_Source\PSoC5/CapSense_CSHL.c ****     *
1010:Generated_Source\PSoC5/CapSense_CSHL.c ****     * Reentrant:
1011:Generated_Source\PSoC5/CapSense_CSHL.c ****     *  No.
1012:Generated_Source\PSoC5/CapSense_CSHL.c ****     *
1013:Generated_Source\PSoC5/CapSense_CSHL.c ****     *******************************************************************************/
1014:Generated_Source\PSoC5/CapSense_CSHL.c ****     uint8 CapSense_CalcCentroid(uint8 maximum, uint8 offset, 
1015:Generated_Source\PSoC5/CapSense_CSHL.c ****                                         uint8 count, uint16 resolution, uint8 noiseThreshold)
ARM GAS  C:\Users\ESTEBAN\AppData\Local\Temp\ccTkMZau.s 			page 35


1016:Generated_Source\PSoC5/CapSense_CSHL.c **** 	                                    
1017:Generated_Source\PSoC5/CapSense_CSHL.c ****     {
 910              		.loc 1 1017 0
 911              		.cfi_startproc
 912              		@ args = 4, pretend = 0, frame = 0
 913              		@ frame_needed = 0, uses_anonymous_args = 0
 914              	.LVL117:
 915 0000 F0B5     		push	{r4, r5, r6, r7, lr}
 916              		.cfi_def_cfa_offset 20
 917              		.cfi_offset 4, -20
 918              		.cfi_offset 5, -16
 919              		.cfi_offset 6, -12
 920              		.cfi_offset 7, -8
 921              		.cfi_offset 14, -4
 922 0002 9DF81450 		ldrb	r5, [sp, #20]	@ zero_extendqisi2
 923              	.LVL118:
1018:Generated_Source\PSoC5/CapSense_CSHL.c ****         #if ((CapSense_TOTAL_LINEAR_SLIDERS_COUNT > 0u) || (CapSense_TOTAL_TOUCH_PADS_COUNT > 0u))
1019:Generated_Source\PSoC5/CapSense_CSHL.c ****             uint8 posPrev = 0u;
1020:Generated_Source\PSoC5/CapSense_CSHL.c ****             uint8 posNext = 0u;
1021:Generated_Source\PSoC5/CapSense_CSHL.c ****         #endif /* ((CapSense_TOTAL_LINEAR_SLIDERS_COUNT>0u) || (CapSense_TOTAL_TOUCH_PADS_COUNT>0u)
1022:Generated_Source\PSoC5/CapSense_CSHL.c ****                
1023:Generated_Source\PSoC5/CapSense_CSHL.c ****         #if (CapSense_IS_DIPLEX_SLIDER)                
1024:Generated_Source\PSoC5/CapSense_CSHL.c ****             uint8 pos;
1025:Generated_Source\PSoC5/CapSense_CSHL.c ****         #endif /* (CapSense_IS_DIPLEX_SLIDER) */
1026:Generated_Source\PSoC5/CapSense_CSHL.c ****         
1027:Generated_Source\PSoC5/CapSense_CSHL.c ****         /* Helps while centroid calulation */
1028:Generated_Source\PSoC5/CapSense_CSHL.c ****         static uint8 CapSense_centroid[3u];
1029:Generated_Source\PSoC5/CapSense_CSHL.c **** 
1030:Generated_Source\PSoC5/CapSense_CSHL.c ****         uint8 position;
1031:Generated_Source\PSoC5/CapSense_CSHL.c ****         uint32 numerator;
1032:Generated_Source\PSoC5/CapSense_CSHL.c ****         int32 denominator;
1033:Generated_Source\PSoC5/CapSense_CSHL.c ****         uint8 *startOfSlider = &CapSense_sensorSignal[offset];
 924              		.loc 1 1033 0
 925 0006 284C     		ldr	r4, .L93
 926 0008 2144     		add	r1, r1, r4
 927              	.LVL119:
1034:Generated_Source\PSoC5/CapSense_CSHL.c ****                     
1035:Generated_Source\PSoC5/CapSense_CSHL.c ****         #if (CapSense_ADD_SLIDER_TYPE)
1036:Generated_Source\PSoC5/CapSense_CSHL.c ****             if(type == CapSense_TYPE_RADIAL_SLIDER)
1037:Generated_Source\PSoC5/CapSense_CSHL.c ****             {
1038:Generated_Source\PSoC5/CapSense_CSHL.c ****         #endif /* (CapSense_ADD_SLIDER_TYPE) */
1039:Generated_Source\PSoC5/CapSense_CSHL.c **** 
1040:Generated_Source\PSoC5/CapSense_CSHL.c ****             #if (CapSense_TOTAL_RADIAL_SLIDERS_COUNT > 0u)                
1041:Generated_Source\PSoC5/CapSense_CSHL.c ****                 /* Copy Signal for found centriod */
1042:Generated_Source\PSoC5/CapSense_CSHL.c ****                 CapSense_centroid[CapSense_POS] = startOfSlider[maximum];
1043:Generated_Source\PSoC5/CapSense_CSHL.c ****                  
1044:Generated_Source\PSoC5/CapSense_CSHL.c ****                 /* Check borders for ROTARY Slider */
1045:Generated_Source\PSoC5/CapSense_CSHL.c ****                 if (maximum == 0u)                   /* Start of centroid */
1046:Generated_Source\PSoC5/CapSense_CSHL.c ****                 { 
1047:Generated_Source\PSoC5/CapSense_CSHL.c ****                     CapSense_centroid[CapSense_POS_PREV] = startOfSlider[count - 1u];
1048:Generated_Source\PSoC5/CapSense_CSHL.c ****                     CapSense_centroid[CapSense_POS_NEXT] = startOfSlider[1u];
1049:Generated_Source\PSoC5/CapSense_CSHL.c ****                 }
1050:Generated_Source\PSoC5/CapSense_CSHL.c ****                 else if (maximum == (count - 1u))    /* End of centroid */
1051:Generated_Source\PSoC5/CapSense_CSHL.c ****                 {
1052:Generated_Source\PSoC5/CapSense_CSHL.c ****                     CapSense_centroid[CapSense_POS_PREV] = startOfSlider[maximum - 1u];
1053:Generated_Source\PSoC5/CapSense_CSHL.c ****                     CapSense_centroid[CapSense_POS_NEXT] = startOfSlider[0u];
1054:Generated_Source\PSoC5/CapSense_CSHL.c ****                 }
ARM GAS  C:\Users\ESTEBAN\AppData\Local\Temp\ccTkMZau.s 			page 36


1055:Generated_Source\PSoC5/CapSense_CSHL.c ****                 else                                /* Not first Not last */
1056:Generated_Source\PSoC5/CapSense_CSHL.c ****                 {
1057:Generated_Source\PSoC5/CapSense_CSHL.c ****                     CapSense_centroid[CapSense_POS_PREV] = startOfSlider[maximum - 1u];
1058:Generated_Source\PSoC5/CapSense_CSHL.c ****                     CapSense_centroid[CapSense_POS_NEXT] = startOfSlider[maximum + 1u];
1059:Generated_Source\PSoC5/CapSense_CSHL.c ****                 }
1060:Generated_Source\PSoC5/CapSense_CSHL.c ****             #endif /* (CapSense_TOTAL_RADIAL_SLIDERS_COUNT > 0u) */
1061:Generated_Source\PSoC5/CapSense_CSHL.c **** 
1062:Generated_Source\PSoC5/CapSense_CSHL.c ****         #if (CapSense_ADD_SLIDER_TYPE)
1063:Generated_Source\PSoC5/CapSense_CSHL.c ****             }
1064:Generated_Source\PSoC5/CapSense_CSHL.c ****             else
1065:Generated_Source\PSoC5/CapSense_CSHL.c ****             {
1066:Generated_Source\PSoC5/CapSense_CSHL.c ****         #endif /* (CapSense_ADD_SLIDER_TYPE) */
1067:Generated_Source\PSoC5/CapSense_CSHL.c **** 
1068:Generated_Source\PSoC5/CapSense_CSHL.c ****             #if ((CapSense_TOTAL_LINEAR_SLIDERS_COUNT > 0u) || (CapSense_TOTAL_TOUCH_PADS_COUNT > 0
1069:Generated_Source\PSoC5/CapSense_CSHL.c ****                 #if (CapSense_IS_DIPLEX_SLIDER && CapSense_IS_NON_DIPLEX_SLIDER)                   
1070:Generated_Source\PSoC5/CapSense_CSHL.c ****                     /* Calculate next and previous near to maximum */
1071:Generated_Source\PSoC5/CapSense_CSHL.c ****                     if(diplex == 0u)
1072:Generated_Source\PSoC5/CapSense_CSHL.c ****                     {
1073:Generated_Source\PSoC5/CapSense_CSHL.c ****                         pos     = maximum;
1074:Generated_Source\PSoC5/CapSense_CSHL.c ****                         posPrev = maximum - 1u;
1075:Generated_Source\PSoC5/CapSense_CSHL.c ****                         posNext = maximum + 1u; 
1076:Generated_Source\PSoC5/CapSense_CSHL.c ****                     }
1077:Generated_Source\PSoC5/CapSense_CSHL.c ****                     else
1078:Generated_Source\PSoC5/CapSense_CSHL.c ****                     {
1079:Generated_Source\PSoC5/CapSense_CSHL.c ****                         pos     = diplex[maximum];
1080:Generated_Source\PSoC5/CapSense_CSHL.c ****                         posPrev = diplex[maximum - 1u];
1081:Generated_Source\PSoC5/CapSense_CSHL.c ****                         posNext = diplex[maximum + 1u];
1082:Generated_Source\PSoC5/CapSense_CSHL.c ****                         count <<= 1u;
1083:Generated_Source\PSoC5/CapSense_CSHL.c ****                     }                    
1084:Generated_Source\PSoC5/CapSense_CSHL.c ****                 #elif (CapSense_IS_DIPLEX_SLIDER)
1085:Generated_Source\PSoC5/CapSense_CSHL.c ****                     /* Calculate next and previous near to maximum */
1086:Generated_Source\PSoC5/CapSense_CSHL.c ****                     pos     = diplex[maximum];
1087:Generated_Source\PSoC5/CapSense_CSHL.c ****                     posPrev = diplex[maximum - 1u];
1088:Generated_Source\PSoC5/CapSense_CSHL.c ****                     posNext = diplex[maximum + 1u];
1089:Generated_Source\PSoC5/CapSense_CSHL.c ****                     count <<= 1u;                    
1090:Generated_Source\PSoC5/CapSense_CSHL.c ****                 #else                    
1091:Generated_Source\PSoC5/CapSense_CSHL.c ****                     /* Calculate next and previous near to maximum */
1092:Generated_Source\PSoC5/CapSense_CSHL.c ****                     if (maximum >= 1u)
 928              		.loc 1 1092 0
 929 000a 0446     		mov	r4, r0
 930 000c 10B1     		cbz	r0, .L91
1093:Generated_Source\PSoC5/CapSense_CSHL.c ****                     {
1094:Generated_Source\PSoC5/CapSense_CSHL.c ****                         posPrev = maximum - 1u;
 931              		.loc 1 1094 0
 932 000e 461E     		subs	r6, r0, #1
 933 0010 F6B2     		uxtb	r6, r6
 934              	.LVL120:
 935 0012 00E0     		b	.L83
 936              	.LVL121:
 937              	.L91:
1019:Generated_Source\PSoC5/CapSense_CSHL.c ****             uint8 posNext = 0u;
 938              		.loc 1 1019 0
 939 0014 0026     		movs	r6, #0
 940              	.LVL122:
 941              	.L83:
1095:Generated_Source\PSoC5/CapSense_CSHL.c ****                     }
1096:Generated_Source\PSoC5/CapSense_CSHL.c ****                     posNext = maximum + 1u; 
ARM GAS  C:\Users\ESTEBAN\AppData\Local\Temp\ccTkMZau.s 			page 37


 942              		.loc 1 1096 0
 943 0016 601C     		adds	r0, r4, #1
 944              	.LVL123:
 945 0018 C0B2     		uxtb	r0, r0
 946              	.LVL124:
1097:Generated_Source\PSoC5/CapSense_CSHL.c ****                 #endif /* (CapSense_IS_DIPLEX_SLIDER && CapSense_IS_NON_DIPLEX_SLIDER) */
1098:Generated_Source\PSoC5/CapSense_CSHL.c ****                         
1099:Generated_Source\PSoC5/CapSense_CSHL.c ****                 /* Copy Signal for found centriod */
1100:Generated_Source\PSoC5/CapSense_CSHL.c ****                 #if (CapSense_IS_DIPLEX_SLIDER)
1101:Generated_Source\PSoC5/CapSense_CSHL.c ****                     CapSense_centroid[CapSense_POS] = startOfSlider[pos];
1102:Generated_Source\PSoC5/CapSense_CSHL.c ****                 #else
1103:Generated_Source\PSoC5/CapSense_CSHL.c ****                     CapSense_centroid[CapSense_POS] = startOfSlider[maximum];
 947              		.loc 1 1103 0
 948 001a 11F804E0 		ldrb	lr, [r1, r4]	@ zero_extendqisi2
 949 001e 234F     		ldr	r7, .L93+4
 950 0020 87F805E0 		strb	lr, [r7, #5]
1104:Generated_Source\PSoC5/CapSense_CSHL.c ****                 #endif /* (CapSense_IS_DIPLEX_SLIDER) */
1105:Generated_Source\PSoC5/CapSense_CSHL.c ****                     
1106:Generated_Source\PSoC5/CapSense_CSHL.c ****                 /* Check borders for LINEAR Slider */
1107:Generated_Source\PSoC5/CapSense_CSHL.c ****                 if (maximum == 0u)                   /* Start of centroid */
 951              		.loc 1 1107 0
 952 0024 24B9     		cbnz	r4, .L84
1108:Generated_Source\PSoC5/CapSense_CSHL.c ****                 { 
1109:Generated_Source\PSoC5/CapSense_CSHL.c ****                     CapSense_centroid[CapSense_POS_PREV] = 0u;
 953              		.loc 1 1109 0
 954 0026 0026     		movs	r6, #0
 955              	.LVL125:
 956 0028 3E71     		strb	r6, [r7, #4]
1110:Generated_Source\PSoC5/CapSense_CSHL.c ****                     CapSense_centroid[CapSense_POS_NEXT] = startOfSlider[posNext];
 957              		.loc 1 1110 0
 958 002a 095C     		ldrb	r1, [r1, r0]	@ zero_extendqisi2
 959              	.LVL126:
 960 002c B971     		strb	r1, [r7, #6]
 961 002e 0DE0     		b	.L85
 962              	.LVL127:
 963              	.L84:
1111:Generated_Source\PSoC5/CapSense_CSHL.c ****                 }
1112:Generated_Source\PSoC5/CapSense_CSHL.c ****                 else if (maximum == ((count) - 1u)) /* End of centroid */
 964              		.loc 1 1112 0
 965 0030 013A     		subs	r2, r2, #1
 966              	.LVL128:
 967 0032 9442     		cmp	r4, r2
 968 0034 05D1     		bne	.L86
1113:Generated_Source\PSoC5/CapSense_CSHL.c ****                 {
1114:Generated_Source\PSoC5/CapSense_CSHL.c ****                     CapSense_centroid[CapSense_POS_PREV] = startOfSlider[posPrev];
 969              		.loc 1 1114 0
 970 0036 895D     		ldrb	r1, [r1, r6]	@ zero_extendqisi2
 971              	.LVL129:
 972 0038 1C4A     		ldr	r2, .L93+4
 973 003a 1171     		strb	r1, [r2, #4]
1115:Generated_Source\PSoC5/CapSense_CSHL.c ****                     CapSense_centroid[CapSense_POS_NEXT] = 0u;
 974              		.loc 1 1115 0
 975 003c 0021     		movs	r1, #0
 976 003e 9171     		strb	r1, [r2, #6]
 977 0040 04E0     		b	.L85
 978              	.LVL130:
 979              	.L86:
ARM GAS  C:\Users\ESTEBAN\AppData\Local\Temp\ccTkMZau.s 			page 38


1116:Generated_Source\PSoC5/CapSense_CSHL.c ****                 }
1117:Generated_Source\PSoC5/CapSense_CSHL.c ****                 else                                /* Not first Not last */
1118:Generated_Source\PSoC5/CapSense_CSHL.c ****                 {
1119:Generated_Source\PSoC5/CapSense_CSHL.c ****                     CapSense_centroid[CapSense_POS_PREV] = startOfSlider[posPrev];
 980              		.loc 1 1119 0
 981 0042 8E5D     		ldrb	r6, [r1, r6]	@ zero_extendqisi2
 982              	.LVL131:
 983 0044 194A     		ldr	r2, .L93+4
 984 0046 1671     		strb	r6, [r2, #4]
1120:Generated_Source\PSoC5/CapSense_CSHL.c ****                     CapSense_centroid[CapSense_POS_NEXT] = startOfSlider[posNext];
 985              		.loc 1 1120 0
 986 0048 095C     		ldrb	r1, [r1, r0]	@ zero_extendqisi2
 987              	.LVL132:
 988 004a 9171     		strb	r1, [r2, #6]
 989              	.L85:
1121:Generated_Source\PSoC5/CapSense_CSHL.c ****                 }
1122:Generated_Source\PSoC5/CapSense_CSHL.c ****             #endif /* ((CapSense_TOTAL_LINEAR_SLIDERS_COUNT>0u)||(CapSense_TOTAL_TOUCH_PADS_COUNT>0
1123:Generated_Source\PSoC5/CapSense_CSHL.c **** 
1124:Generated_Source\PSoC5/CapSense_CSHL.c ****         #if (CapSense_ADD_SLIDER_TYPE)
1125:Generated_Source\PSoC5/CapSense_CSHL.c ****             }
1126:Generated_Source\PSoC5/CapSense_CSHL.c ****         #endif /* (CapSense_ADD_SLIDER_TYPE) */
1127:Generated_Source\PSoC5/CapSense_CSHL.c ****     
1128:Generated_Source\PSoC5/CapSense_CSHL.c ****         /* Subtract noiseThreshold */
1129:Generated_Source\PSoC5/CapSense_CSHL.c ****         if(CapSense_centroid[CapSense_POS_PREV] > noiseThreshold)
 990              		.loc 1 1129 0
 991 004c 174A     		ldr	r2, .L93+4
 992 004e 1279     		ldrb	r2, [r2, #4]	@ zero_extendqisi2
 993 0050 AA42     		cmp	r2, r5
 994 0052 03D9     		bls	.L87
1130:Generated_Source\PSoC5/CapSense_CSHL.c ****         {
1131:Generated_Source\PSoC5/CapSense_CSHL.c ****             CapSense_centroid[CapSense_POS_PREV] -= noiseThreshold;
 995              		.loc 1 1131 0
 996 0054 521B     		subs	r2, r2, r5
 997 0056 1549     		ldr	r1, .L93+4
 998 0058 0A71     		strb	r2, [r1, #4]
 999 005a 02E0     		b	.L88
 1000              	.L87:
1132:Generated_Source\PSoC5/CapSense_CSHL.c ****         }
1133:Generated_Source\PSoC5/CapSense_CSHL.c ****         else
1134:Generated_Source\PSoC5/CapSense_CSHL.c ****         {
1135:Generated_Source\PSoC5/CapSense_CSHL.c ****             CapSense_centroid[CapSense_POS_PREV] = 0u;
 1001              		.loc 1 1135 0
 1002 005c 0021     		movs	r1, #0
 1003 005e 134A     		ldr	r2, .L93+4
 1004 0060 1171     		strb	r1, [r2, #4]
 1005              	.L88:
1136:Generated_Source\PSoC5/CapSense_CSHL.c ****         }
1137:Generated_Source\PSoC5/CapSense_CSHL.c ****         
1138:Generated_Source\PSoC5/CapSense_CSHL.c ****         /* Maximum always grater than fingerThreshold, so grate than noiseThreshold */
1139:Generated_Source\PSoC5/CapSense_CSHL.c ****         CapSense_centroid[CapSense_POS] -= noiseThreshold;
 1006              		.loc 1 1139 0
 1007 0062 124A     		ldr	r2, .L93+4
 1008 0064 5179     		ldrb	r1, [r2, #5]	@ zero_extendqisi2
 1009 0066 491B     		subs	r1, r1, r5
 1010 0068 C9B2     		uxtb	r1, r1
 1011 006a 5171     		strb	r1, [r2, #5]
1140:Generated_Source\PSoC5/CapSense_CSHL.c ****         
ARM GAS  C:\Users\ESTEBAN\AppData\Local\Temp\ccTkMZau.s 			page 39


1141:Generated_Source\PSoC5/CapSense_CSHL.c ****         /* Subtract noiseThreshold */
1142:Generated_Source\PSoC5/CapSense_CSHL.c ****         if(CapSense_centroid[CapSense_POS_NEXT] > noiseThreshold)
 1012              		.loc 1 1142 0
 1013 006c 9279     		ldrb	r2, [r2, #6]	@ zero_extendqisi2
 1014 006e 9542     		cmp	r5, r2
 1015 0070 03D2     		bcs	.L89
1143:Generated_Source\PSoC5/CapSense_CSHL.c ****         {
1144:Generated_Source\PSoC5/CapSense_CSHL.c ****             CapSense_centroid[CapSense_POS_NEXT] -= noiseThreshold;
 1016              		.loc 1 1144 0
 1017 0072 551B     		subs	r5, r2, r5
 1018 0074 0D4A     		ldr	r2, .L93+4
 1019 0076 9571     		strb	r5, [r2, #6]
 1020 0078 02E0     		b	.L90
 1021              	.L89:
1145:Generated_Source\PSoC5/CapSense_CSHL.c ****         }
1146:Generated_Source\PSoC5/CapSense_CSHL.c ****         else
1147:Generated_Source\PSoC5/CapSense_CSHL.c ****         {
1148:Generated_Source\PSoC5/CapSense_CSHL.c ****             CapSense_centroid[CapSense_POS_NEXT] = 0u;
 1022              		.loc 1 1148 0
 1023 007a 0020     		movs	r0, #0
 1024              	.LVL133:
 1025 007c 0B4A     		ldr	r2, .L93+4
 1026 007e 9071     		strb	r0, [r2, #6]
 1027              	.L90:
1149:Generated_Source\PSoC5/CapSense_CSHL.c ****         }
1150:Generated_Source\PSoC5/CapSense_CSHL.c ****         
1151:Generated_Source\PSoC5/CapSense_CSHL.c ****         
1152:Generated_Source\PSoC5/CapSense_CSHL.c ****         /* Si+1 - Si-1 */
1153:Generated_Source\PSoC5/CapSense_CSHL.c ****         numerator = (uint32) CapSense_centroid[CapSense_POS_NEXT] -
 1028              		.loc 1 1153 0
 1029 0080 0A4A     		ldr	r2, .L93+4
 1030 0082 9079     		ldrb	r0, [r2, #6]	@ zero_extendqisi2
1154:Generated_Source\PSoC5/CapSense_CSHL.c ****                     (uint32) CapSense_centroid[CapSense_POS_PREV];
 1031              		.loc 1 1154 0
 1032 0084 1579     		ldrb	r5, [r2, #4]	@ zero_extendqisi2
1153:Generated_Source\PSoC5/CapSense_CSHL.c ****                     (uint32) CapSense_centroid[CapSense_POS_PREV];
 1033              		.loc 1 1153 0
 1034 0086 421B     		subs	r2, r0, r5
 1035              	.LVL134:
1155:Generated_Source\PSoC5/CapSense_CSHL.c **** 
1156:Generated_Source\PSoC5/CapSense_CSHL.c ****         /* Si+1 + Si + Si-1 */
1157:Generated_Source\PSoC5/CapSense_CSHL.c ****         denominator = (int32) CapSense_centroid[CapSense_POS_PREV] + 
 1036              		.loc 1 1157 0
 1037 0088 2944     		add	r1, r1, r5
 1038 008a 0844     		add	r0, r0, r1
 1039              	.LVL135:
1158:Generated_Source\PSoC5/CapSense_CSHL.c ****                       (int32) CapSense_centroid[CapSense_POS] + 
1159:Generated_Source\PSoC5/CapSense_CSHL.c ****                       (int32) CapSense_centroid[CapSense_POS_NEXT];
1160:Generated_Source\PSoC5/CapSense_CSHL.c ****         
1161:Generated_Source\PSoC5/CapSense_CSHL.c ****         /* (numerator/denominator) + maximum */
1162:Generated_Source\PSoC5/CapSense_CSHL.c ****         denominator = (((int32)(uint32)((uint32)numerator << 8u)/denominator) + (int32)(uint32)((ui
 1040              		.loc 1 1162 0
 1041 008c 1202     		lsls	r2, r2, #8
 1042              	.LVL136:
 1043 008e 92FBF0F0 		sdiv	r0, r2, r0
 1044              	.LVL137:
 1045 0092 00EB0420 		add	r0, r0, r4, lsl #8
ARM GAS  C:\Users\ESTEBAN\AppData\Local\Temp\ccTkMZau.s 			page 40


 1046              	.LVL138:
1163:Generated_Source\PSoC5/CapSense_CSHL.c **** 
1164:Generated_Source\PSoC5/CapSense_CSHL.c ****         #if(CapSense_TOTAL_RADIAL_SLIDERS_COUNT > 0u)
1165:Generated_Source\PSoC5/CapSense_CSHL.c ****             /* Only required for RADIAL Slider */
1166:Generated_Source\PSoC5/CapSense_CSHL.c ****             if(denominator < 0)
1167:Generated_Source\PSoC5/CapSense_CSHL.c ****             {
1168:Generated_Source\PSoC5/CapSense_CSHL.c ****                 denominator += (int32)((uint16)((uint16) count << 8u));
1169:Generated_Source\PSoC5/CapSense_CSHL.c ****             }
1170:Generated_Source\PSoC5/CapSense_CSHL.c ****         #endif /* (CapSense_TOTAL_RADIAL_SLIDERS_COUNT > 0u) */
1171:Generated_Source\PSoC5/CapSense_CSHL.c **** 
1172:Generated_Source\PSoC5/CapSense_CSHL.c ****         denominator *= (int16)resolution;
 1047              		.loc 1 1172 0
 1048 0096 1BB2     		sxth	r3, r3
 1049 0098 00FB03F0 		mul	r0, r0, r3
 1050              	.LVL139:
1173:Generated_Source\PSoC5/CapSense_CSHL.c **** 
1174:Generated_Source\PSoC5/CapSense_CSHL.c ****         /* Round the relust and put it to uint8 */
1175:Generated_Source\PSoC5/CapSense_CSHL.c ****         position = ((uint8) HI16((uint32)denominator + CapSense_CENTROID_ROUND_VALUE));
 1051              		.loc 1 1175 0
 1052 009c 00F5FE40 		add	r0, r0, #32512
 1053              	.LVL140:
1176:Generated_Source\PSoC5/CapSense_CSHL.c **** 
1177:Generated_Source\PSoC5/CapSense_CSHL.c ****         return (position);
1178:Generated_Source\PSoC5/CapSense_CSHL.c ****     }    
 1054              		.loc 1 1178 0
 1055 00a0 C0F30740 		ubfx	r0, r0, #16, #8
 1056              	.LVL141:
 1057 00a4 F0BD     		pop	{r4, r5, r6, r7, pc}
 1058              	.LVL142:
 1059              	.L94:
 1060 00a6 00BF     		.align	2
 1061              	.L93:
 1062 00a8 00000000 		.word	CapSense_sensorSignal
 1063 00ac 00000000 		.word	.LANCHOR1
 1064              		.cfi_endproc
 1065              	.LFE12:
 1066              		.size	CapSense_CalcCentroid, .-CapSense_CalcCentroid
 1067              		.section	.text.CapSense_GetCentroidPos,"ax",%progbits
 1068              		.align	2
 1069              		.global	CapSense_GetCentroidPos
 1070              		.thumb
 1071              		.thumb_func
 1072              		.type	CapSense_GetCentroidPos, %function
 1073              	CapSense_GetCentroidPos:
 1074              	.LFB13:
1179:Generated_Source\PSoC5/CapSense_CSHL.c **** #endif /* (CapSense_TOTAL_CENTROIDS_COUNT) */
1180:Generated_Source\PSoC5/CapSense_CSHL.c **** 
1181:Generated_Source\PSoC5/CapSense_CSHL.c **** 
1182:Generated_Source\PSoC5/CapSense_CSHL.c **** #if(CapSense_TOTAL_LINEAR_SLIDERS_COUNT > 0u)
1183:Generated_Source\PSoC5/CapSense_CSHL.c ****     /*******************************************************************************
1184:Generated_Source\PSoC5/CapSense_CSHL.c ****     * Function Name: CapSense_GetCentroidPos
1185:Generated_Source\PSoC5/CapSense_CSHL.c ****     ********************************************************************************
1186:Generated_Source\PSoC5/CapSense_CSHL.c ****     *
1187:Generated_Source\PSoC5/CapSense_CSHL.c ****     * Summary:
1188:Generated_Source\PSoC5/CapSense_CSHL.c ****     *  Checks the CapSense_Signal[ ] array for a centroid within
1189:Generated_Source\PSoC5/CapSense_CSHL.c ****     *  slider specified range. The centroid position is calculated to the resolution
1190:Generated_Source\PSoC5/CapSense_CSHL.c ****     *  specified in the CapSense customizer. The position filters are applied to the
ARM GAS  C:\Users\ESTEBAN\AppData\Local\Temp\ccTkMZau.s 			page 41


1191:Generated_Source\PSoC5/CapSense_CSHL.c ****     *  result if enabled.
1192:Generated_Source\PSoC5/CapSense_CSHL.c ****     *
1193:Generated_Source\PSoC5/CapSense_CSHL.c ****     * Parameters:
1194:Generated_Source\PSoC5/CapSense_CSHL.c ****     *  widget:  Widget number.
1195:Generated_Source\PSoC5/CapSense_CSHL.c ****     *  For every linear slider widget there are defines in this format:
1196:Generated_Source\PSoC5/CapSense_CSHL.c ****     *  #define CapSense_LS__"widget_name"            5
1197:Generated_Source\PSoC5/CapSense_CSHL.c ****     * 
1198:Generated_Source\PSoC5/CapSense_CSHL.c ****     * Return:
1199:Generated_Source\PSoC5/CapSense_CSHL.c ****     *  Returns position value of the linear slider.
1200:Generated_Source\PSoC5/CapSense_CSHL.c ****     *
1201:Generated_Source\PSoC5/CapSense_CSHL.c ****     * Side Effects:
1202:Generated_Source\PSoC5/CapSense_CSHL.c ****     *  If any sensor within the slider widget is active, the function returns values
1203:Generated_Source\PSoC5/CapSense_CSHL.c ****     *  from zero to the API resolution value set in the CapSense customizer. If no
1204:Generated_Source\PSoC5/CapSense_CSHL.c ****     *  sensors are active, the function returns 0xFFFF. If an error occurs during
1205:Generated_Source\PSoC5/CapSense_CSHL.c ****     *  execution of the centroid/diplexing algorithm, the function returns 0xFFFF.
1206:Generated_Source\PSoC5/CapSense_CSHL.c ****     *  There are no checks of widget type argument provided to this function.
1207:Generated_Source\PSoC5/CapSense_CSHL.c ****     *  The unproper widget type provided will cause unexpected position calculations.
1208:Generated_Source\PSoC5/CapSense_CSHL.c ****     *
1209:Generated_Source\PSoC5/CapSense_CSHL.c ****     * Note:
1210:Generated_Source\PSoC5/CapSense_CSHL.c ****     *  If noise counts on the slider segments are greater than the noise
1211:Generated_Source\PSoC5/CapSense_CSHL.c ****     *  threshold, this subroutine may generate a false centroid result. The noise
1212:Generated_Source\PSoC5/CapSense_CSHL.c ****     *  threshold should be set carefully (high enough above the noise level) so
1213:Generated_Source\PSoC5/CapSense_CSHL.c ****     *  that noise will not generate a false centroid.
1214:Generated_Source\PSoC5/CapSense_CSHL.c ****     *
1215:Generated_Source\PSoC5/CapSense_CSHL.c ****     * Reentrant:
1216:Generated_Source\PSoC5/CapSense_CSHL.c ****     *  No.
1217:Generated_Source\PSoC5/CapSense_CSHL.c ****     *
1218:Generated_Source\PSoC5/CapSense_CSHL.c ****     *******************************************************************************/
1219:Generated_Source\PSoC5/CapSense_CSHL.c ****     uint16 CapSense_GetCentroidPos(uint8 widget) 
1220:Generated_Source\PSoC5/CapSense_CSHL.c ****     {
 1075              		.loc 1 1220 0
 1076              		.cfi_startproc
 1077              		@ args = 0, pretend = 0, frame = 0
 1078              		@ frame_needed = 0, uses_anonymous_args = 0
 1079              	.LVL143:
 1080 0000 70B5     		push	{r4, r5, r6, lr}
 1081              		.cfi_def_cfa_offset 16
 1082              		.cfi_offset 4, -16
 1083              		.cfi_offset 5, -12
 1084              		.cfi_offset 6, -8
 1085              		.cfi_offset 14, -4
 1086 0002 82B0     		sub	sp, sp, #8
 1087              		.cfi_def_cfa_offset 24
 1088 0004 0446     		mov	r4, r0
1221:Generated_Source\PSoC5/CapSense_CSHL.c ****         #if (CapSense_IS_DIPLEX_SLIDER)
1222:Generated_Source\PSoC5/CapSense_CSHL.c ****             const uint8 CYCODE *diplex;
1223:Generated_Source\PSoC5/CapSense_CSHL.c ****         #endif /* (CapSense_IS_DIPLEX_SLIDER) */
1224:Generated_Source\PSoC5/CapSense_CSHL.c ****                 
1225:Generated_Source\PSoC5/CapSense_CSHL.c ****         #if (0u != CapSense_LINEAR_SLIDERS_POS_FILTERS_MASK)
1226:Generated_Source\PSoC5/CapSense_CSHL.c ****             uint8 posIndex;
1227:Generated_Source\PSoC5/CapSense_CSHL.c ****             uint8 firstTimeIndex = CapSense_posFiltersData[widget];
1228:Generated_Source\PSoC5/CapSense_CSHL.c ****             uint8 posFiltersMask = CapSense_posFiltersMask[widget];  
1229:Generated_Source\PSoC5/CapSense_CSHL.c ****         #endif /* (0u != CapSense_LINEAR_SLIDERS_POS_FILTERS_MASK) */
1230:Generated_Source\PSoC5/CapSense_CSHL.c **** 
1231:Generated_Source\PSoC5/CapSense_CSHL.c ****         #if ((0u != (CapSense_MEDIAN_FILTER & CapSense_LINEAR_SLIDERS_POS_FILTERS_MASK)) || \
1232:Generated_Source\PSoC5/CapSense_CSHL.c ****              (0u != (CapSense_AVERAGING_FILTER & CapSense_LINEAR_SLIDERS_POS_FILTERS_MASK)))
1233:Generated_Source\PSoC5/CapSense_CSHL.c ****             uint8 tempPos;
ARM GAS  C:\Users\ESTEBAN\AppData\Local\Temp\ccTkMZau.s 			page 42


1234:Generated_Source\PSoC5/CapSense_CSHL.c ****         #endif /* ((0u != (CapSense_MEDIAN_FILTER & CapSense_LINEAR_SLIDERS_POS_FILTERS_MASK)) || \
1235:Generated_Source\PSoC5/CapSense_CSHL.c ****                *   (0u != (CapSense_AVERAGING_FILTER & CapSense_LINEAR_SLIDERS_POS_FILTERS_MASK)))
1236:Generated_Source\PSoC5/CapSense_CSHL.c ****                */
1237:Generated_Source\PSoC5/CapSense_CSHL.c **** 
1238:Generated_Source\PSoC5/CapSense_CSHL.c ****         uint8 maximum;
1239:Generated_Source\PSoC5/CapSense_CSHL.c ****         uint16 position;
1240:Generated_Source\PSoC5/CapSense_CSHL.c ****         uint8 offset = CapSense_rawDataIndex[widget];
 1089              		.loc 1 1240 0
 1090 0006 0E4B     		ldr	r3, .L99
 1091 0008 1D5C     		ldrb	r5, [r3, r0]	@ zero_extendqisi2
 1092              	.LVL144:
1241:Generated_Source\PSoC5/CapSense_CSHL.c ****         uint8 count = CapSense_numberOfSensors[widget];
 1093              		.loc 1 1241 0
 1094 000a 0344     		add	r3, r3, r0
 1095 000c 1E79     		ldrb	r6, [r3, #4]	@ zero_extendqisi2
 1096              	.LVL145:
1242:Generated_Source\PSoC5/CapSense_CSHL.c ****                         
1243:Generated_Source\PSoC5/CapSense_CSHL.c ****         #if (CapSense_IS_DIPLEX_SLIDER)
1244:Generated_Source\PSoC5/CapSense_CSHL.c ****             if(widget < CapSense_TOTAL_DIPLEXED_SLIDERS_COUNT)
1245:Generated_Source\PSoC5/CapSense_CSHL.c ****             {
1246:Generated_Source\PSoC5/CapSense_CSHL.c ****                 maximum = CapSense_diplexTable[widget];
1247:Generated_Source\PSoC5/CapSense_CSHL.c ****                 diplex = &CapSense_diplexTable[maximum];
1248:Generated_Source\PSoC5/CapSense_CSHL.c ****             }
1249:Generated_Source\PSoC5/CapSense_CSHL.c ****             else
1250:Generated_Source\PSoC5/CapSense_CSHL.c ****             {
1251:Generated_Source\PSoC5/CapSense_CSHL.c ****                 diplex = 0u;
1252:Generated_Source\PSoC5/CapSense_CSHL.c ****             }
1253:Generated_Source\PSoC5/CapSense_CSHL.c ****         #endif /* (CapSense_IS_DIPLEX_SLIDER) */
1254:Generated_Source\PSoC5/CapSense_CSHL.c **** 
1255:Generated_Source\PSoC5/CapSense_CSHL.c ****         /* Find Maximum within centroid */      
1256:Generated_Source\PSoC5/CapSense_CSHL.c ****         #if (CapSense_IS_DIPLEX_SLIDER)        
1257:Generated_Source\PSoC5/CapSense_CSHL.c ****             maximum = CapSense_FindMaximum(offset, count, CapSense_fingerThreshold[widget], diplex)
1258:Generated_Source\PSoC5/CapSense_CSHL.c ****         #else
1259:Generated_Source\PSoC5/CapSense_CSHL.c ****             maximum = CapSense_FindMaximum(offset, count, CapSense_fingerThreshold[widget]);
 1097              		.loc 1 1259 0
 1098 000e 0D4B     		ldr	r3, .L99+4
 1099 0010 0344     		add	r3, r3, r0
 1100 0012 1A7A     		ldrb	r2, [r3, #8]	@ zero_extendqisi2
 1101 0014 3146     		mov	r1, r6
 1102 0016 2846     		mov	r0, r5
 1103              	.LVL146:
 1104 0018 FFF7FEFF 		bl	CapSense_FindMaximum
 1105              	.LVL147:
1260:Generated_Source\PSoC5/CapSense_CSHL.c ****         #endif /* (CapSense_IS_DIPLEX_SLIDER) */
1261:Generated_Source\PSoC5/CapSense_CSHL.c **** 
1262:Generated_Source\PSoC5/CapSense_CSHL.c ****         if (maximum != 0xFFu)
 1106              		.loc 1 1262 0
 1107 001c FF28     		cmp	r0, #255
 1108 001e 0BD0     		beq	.L97
1263:Generated_Source\PSoC5/CapSense_CSHL.c ****         {
1264:Generated_Source\PSoC5/CapSense_CSHL.c ****             /* Calculate centroid */
1265:Generated_Source\PSoC5/CapSense_CSHL.c ****             position = (uint16) CapSense_CalcCentroid(maximum, 
 1109              		.loc 1 1265 0
 1110 0020 084B     		ldr	r3, .L99+4
 1111 0022 1C44     		add	r4, r4, r3
 1112 0024 2379     		ldrb	r3, [r4, #4]	@ zero_extendqisi2
 1113 0026 0093     		str	r3, [sp]
ARM GAS  C:\Users\ESTEBAN\AppData\Local\Temp\ccTkMZau.s 			page 43


 1114 0028 4FF4C853 		mov	r3, #6400
 1115 002c 3246     		mov	r2, r6
 1116 002e 2946     		mov	r1, r5
 1117 0030 FFF7FEFF 		bl	CapSense_CalcCentroid
 1118              	.LVL148:
 1119 0034 80B2     		uxth	r0, r0
 1120              	.LVL149:
 1121 0036 01E0     		b	.L96
 1122              	.LVL150:
 1123              	.L97:
1266:Generated_Source\PSoC5/CapSense_CSHL.c ****                          offset, count, CapSense_centroidMult[widget], CapSense_noiseThreshold[widg
1267:Generated_Source\PSoC5/CapSense_CSHL.c **** 
1268:Generated_Source\PSoC5/CapSense_CSHL.c ****             #if (0u != CapSense_LINEAR_SLIDERS_POS_FILTERS_MASK)
1269:Generated_Source\PSoC5/CapSense_CSHL.c ****                 /* Check if this linear slider has enabled filters */
1270:Generated_Source\PSoC5/CapSense_CSHL.c ****                 if (0u != (posFiltersMask & CapSense_ANY_POS_FILTER))
1271:Generated_Source\PSoC5/CapSense_CSHL.c ****                 {
1272:Generated_Source\PSoC5/CapSense_CSHL.c ****                     /* Caluclate position to store filters data */
1273:Generated_Source\PSoC5/CapSense_CSHL.c ****                     posIndex  = firstTimeIndex + 1u;
1274:Generated_Source\PSoC5/CapSense_CSHL.c ****                     
1275:Generated_Source\PSoC5/CapSense_CSHL.c ****                     if (0u == CapSense_posFiltersData[firstTimeIndex])
1276:Generated_Source\PSoC5/CapSense_CSHL.c ****                     {
1277:Generated_Source\PSoC5/CapSense_CSHL.c ****                         /* Init filters */
1278:Generated_Source\PSoC5/CapSense_CSHL.c ****                         CapSense_posFiltersData[posIndex] = (uint8) position;
1279:Generated_Source\PSoC5/CapSense_CSHL.c ****                         #if ((0u != (CapSense_MEDIAN_FILTER & \
1280:Generated_Source\PSoC5/CapSense_CSHL.c ****                                      CapSense_LINEAR_SLIDERS_POS_FILTERS_MASK)) || \
1281:Generated_Source\PSoC5/CapSense_CSHL.c ****                              (0u != (CapSense_AVERAGING_FILTER & \
1282:Generated_Source\PSoC5/CapSense_CSHL.c ****                                      CapSense_LINEAR_SLIDERS_POS_FILTERS_MASK)))
1283:Generated_Source\PSoC5/CapSense_CSHL.c **** 
1284:Generated_Source\PSoC5/CapSense_CSHL.c ****                             if ( (0u != (posFiltersMask & CapSense_MEDIAN_FILTER)) || 
1285:Generated_Source\PSoC5/CapSense_CSHL.c ****                                  (0u != (posFiltersMask & CapSense_AVERAGING_FILTER)) )
1286:Generated_Source\PSoC5/CapSense_CSHL.c ****                             {
1287:Generated_Source\PSoC5/CapSense_CSHL.c ****                                 CapSense_posFiltersData[posIndex + 1u] = (uint8) position;
1288:Generated_Source\PSoC5/CapSense_CSHL.c ****                             }
1289:Generated_Source\PSoC5/CapSense_CSHL.c ****                         #endif /* ((0u != (CapSense_MEDIAN_FILTER & \
1290:Generated_Source\PSoC5/CapSense_CSHL.c ****                                *           CapSense_LINEAR_SLIDERS_POS_FILTERS_MASK)) || \
1291:Generated_Source\PSoC5/CapSense_CSHL.c ****                                *   (0u != (CapSense_AVERAGING_FILTER & \
1292:Generated_Source\PSoC5/CapSense_CSHL.c ****                                *           CapSense_LINEAR_SLIDERS_POS_FILTERS_MASK)))
1293:Generated_Source\PSoC5/CapSense_CSHL.c ****                                */
1294:Generated_Source\PSoC5/CapSense_CSHL.c ****                         
1295:Generated_Source\PSoC5/CapSense_CSHL.c ****                         CapSense_posFiltersData[firstTimeIndex] = 1u;
1296:Generated_Source\PSoC5/CapSense_CSHL.c ****                     }
1297:Generated_Source\PSoC5/CapSense_CSHL.c ****                     else
1298:Generated_Source\PSoC5/CapSense_CSHL.c ****                     {
1299:Generated_Source\PSoC5/CapSense_CSHL.c ****                         /* Do filtering */
1300:Generated_Source\PSoC5/CapSense_CSHL.c ****                         #if (0u != (CapSense_MEDIAN_FILTER & CapSense_LINEAR_SLIDERS_POS_FILTERS_MA
1301:Generated_Source\PSoC5/CapSense_CSHL.c ****                             if (0u != (posFiltersMask & CapSense_MEDIAN_FILTER))
1302:Generated_Source\PSoC5/CapSense_CSHL.c ****                             {
1303:Generated_Source\PSoC5/CapSense_CSHL.c ****                                 tempPos = (uint8) position;
1304:Generated_Source\PSoC5/CapSense_CSHL.c ****                                 position = CapSense_MedianFilter(position,
1305:Generated_Source\PSoC5/CapSense_CSHL.c ****                                                                 (uint16)CapSense_posFiltersData[pos
1306:Generated_Source\PSoC5/CapSense_CSHL.c ****                                                                 (uint16)CapSense_posFiltersData[pos
1307:Generated_Source\PSoC5/CapSense_CSHL.c ****                                 CapSense_posFiltersData[posIndex + 1u] =
1308:Generated_Source\PSoC5/CapSense_CSHL.c ****                                                                              CapSense_posFiltersDat
1309:Generated_Source\PSoC5/CapSense_CSHL.c ****                                 CapSense_posFiltersData[posIndex] = tempPos;
1310:Generated_Source\PSoC5/CapSense_CSHL.c ****                             }
1311:Generated_Source\PSoC5/CapSense_CSHL.c ****                         #endif /*(0u != (CapSense_MEDIAN_FILTER &
1312:Generated_Source\PSoC5/CapSense_CSHL.c ****                                *         CapSense_LINEAR_SLIDERS_POS_FILTERS_MASK))
ARM GAS  C:\Users\ESTEBAN\AppData\Local\Temp\ccTkMZau.s 			page 44


1313:Generated_Source\PSoC5/CapSense_CSHL.c ****                                */
1314:Generated_Source\PSoC5/CapSense_CSHL.c **** 
1315:Generated_Source\PSoC5/CapSense_CSHL.c ****                         #if(0u!=(CapSense_AVERAGING_FILTER & CapSense_LINEAR_SLIDERS_POS_FILTERS_MA
1316:Generated_Source\PSoC5/CapSense_CSHL.c ****                             if (0u != (posFiltersMask & CapSense_AVERAGING_FILTER)) 
1317:Generated_Source\PSoC5/CapSense_CSHL.c ****                             {
1318:Generated_Source\PSoC5/CapSense_CSHL.c ****                                 tempPos = (uint8) position;
1319:Generated_Source\PSoC5/CapSense_CSHL.c ****                                 position = CapSense_AveragingFilter(position,
1320:Generated_Source\PSoC5/CapSense_CSHL.c ****                                                                 (uint16)CapSense_posFiltersData[pos
1321:Generated_Source\PSoC5/CapSense_CSHL.c ****                                                                 (uint16)CapSense_posFiltersData[pos
1322:Generated_Source\PSoC5/CapSense_CSHL.c ****                                 CapSense_posFiltersData[posIndex+1u]=CapSense_posFiltersData[posInd
1323:Generated_Source\PSoC5/CapSense_CSHL.c ****                                 CapSense_posFiltersData[posIndex] = tempPos;
1324:Generated_Source\PSoC5/CapSense_CSHL.c ****                             }
1325:Generated_Source\PSoC5/CapSense_CSHL.c ****                         #endif /* (0u != (CapSense_AVERAGING_FILTER & \
1326:Generated_Source\PSoC5/CapSense_CSHL.c ****                                *           CapSense_LINEAR_SLIDERS_POS_FILTERS_MASK))
1327:Generated_Source\PSoC5/CapSense_CSHL.c ****                                */
1328:Generated_Source\PSoC5/CapSense_CSHL.c **** 
1329:Generated_Source\PSoC5/CapSense_CSHL.c ****                         #if (0u != (CapSense_IIR2_FILTER & CapSense_LINEAR_SLIDERS_POS_FILTERS_MASK
1330:Generated_Source\PSoC5/CapSense_CSHL.c ****                             if (0u != (posFiltersMask & CapSense_IIR2_FILTER)) 
1331:Generated_Source\PSoC5/CapSense_CSHL.c ****                             {
1332:Generated_Source\PSoC5/CapSense_CSHL.c ****                                 position = CapSense_IIR2Filter(position,
1333:Generated_Source\PSoC5/CapSense_CSHL.c ****                                                                     (uint16)CapSense_posFiltersData
1334:Generated_Source\PSoC5/CapSense_CSHL.c ****                                 CapSense_posFiltersData[posIndex] = (uint8) position;
1335:Generated_Source\PSoC5/CapSense_CSHL.c ****                             }
1336:Generated_Source\PSoC5/CapSense_CSHL.c ****                         #endif /* (0u != (CapSense_IIR2_FILTER & \
1337:Generated_Source\PSoC5/CapSense_CSHL.c ****                                *          CapSense_LINEAR_SLIDERS_POS_FILTERS_MASK))
1338:Generated_Source\PSoC5/CapSense_CSHL.c ****                                */
1339:Generated_Source\PSoC5/CapSense_CSHL.c **** 
1340:Generated_Source\PSoC5/CapSense_CSHL.c ****                         #if (0u != (CapSense_IIR4_FILTER & CapSense_LINEAR_SLIDERS_POS_FILTERS_MASK
1341:Generated_Source\PSoC5/CapSense_CSHL.c ****                             if (0u != (posFiltersMask & CapSense_IIR4_FILTER))
1342:Generated_Source\PSoC5/CapSense_CSHL.c ****                             {
1343:Generated_Source\PSoC5/CapSense_CSHL.c ****                                 position = CapSense_IIR4Filter(position,
1344:Generated_Source\PSoC5/CapSense_CSHL.c ****                                                                     (uint16)CapSense_posFiltersData
1345:Generated_Source\PSoC5/CapSense_CSHL.c ****                                 CapSense_posFiltersData[posIndex] = (uint8) position;
1346:Generated_Source\PSoC5/CapSense_CSHL.c ****                             }                                
1347:Generated_Source\PSoC5/CapSense_CSHL.c ****                         #endif /* (0u != (CapSense_IIR4_FILTER & \
1348:Generated_Source\PSoC5/CapSense_CSHL.c ****                                *          CapSense_LINEAR_SLIDERS_POS_FILTERS_MASK))
1349:Generated_Source\PSoC5/CapSense_CSHL.c ****                                */
1350:Generated_Source\PSoC5/CapSense_CSHL.c **** 
1351:Generated_Source\PSoC5/CapSense_CSHL.c ****                         #if (0u != (CapSense_JITTER_FILTER & CapSense_LINEAR_SLIDERS_POS_FILTERS_MA
1352:Generated_Source\PSoC5/CapSense_CSHL.c ****                             if (0u != (posFiltersMask & CapSense_JITTER_FILTER))
1353:Generated_Source\PSoC5/CapSense_CSHL.c ****                             {
1354:Generated_Source\PSoC5/CapSense_CSHL.c ****                                 position = CapSense_JitterFilter(position,
1355:Generated_Source\PSoC5/CapSense_CSHL.c ****                                                                     (uint16)CapSense_posFiltersData
1356:Generated_Source\PSoC5/CapSense_CSHL.c ****                                 CapSense_posFiltersData[posIndex] = (uint8) position;
1357:Generated_Source\PSoC5/CapSense_CSHL.c ****                             }
1358:Generated_Source\PSoC5/CapSense_CSHL.c ****                         #endif /* (0u != (CapSense_JITTER_FILTER & \
1359:Generated_Source\PSoC5/CapSense_CSHL.c ****                                *           CapSense_LINEAR_SLIDERS_POS_FILTERS_MASK))
1360:Generated_Source\PSoC5/CapSense_CSHL.c ****                                */
1361:Generated_Source\PSoC5/CapSense_CSHL.c ****                     }
1362:Generated_Source\PSoC5/CapSense_CSHL.c ****                 }
1363:Generated_Source\PSoC5/CapSense_CSHL.c ****             #endif /* (0u != CapSense_LINEAR_SLIDERS_POS_FILTERS_MASK) */
1364:Generated_Source\PSoC5/CapSense_CSHL.c **** 
1365:Generated_Source\PSoC5/CapSense_CSHL.c ****         }
1366:Generated_Source\PSoC5/CapSense_CSHL.c ****         else
1367:Generated_Source\PSoC5/CapSense_CSHL.c ****         {
1368:Generated_Source\PSoC5/CapSense_CSHL.c ****             /* The maximum wasn't found */
1369:Generated_Source\PSoC5/CapSense_CSHL.c ****             position = 0xFFFFu;
ARM GAS  C:\Users\ESTEBAN\AppData\Local\Temp\ccTkMZau.s 			page 45


 1124              		.loc 1 1369 0
 1125 0038 4FF6FF70 		movw	r0, #65535
 1126              	.LVL151:
 1127              	.L96:
1370:Generated_Source\PSoC5/CapSense_CSHL.c **** 
1371:Generated_Source\PSoC5/CapSense_CSHL.c ****             #if(0u != CapSense_LINEAR_SLIDERS_POS_FILTERS_MASK)
1372:Generated_Source\PSoC5/CapSense_CSHL.c ****                 /* Reset the filters */
1373:Generated_Source\PSoC5/CapSense_CSHL.c ****                 if(0u != (posFiltersMask & CapSense_ANY_POS_FILTER))
1374:Generated_Source\PSoC5/CapSense_CSHL.c ****                 {
1375:Generated_Source\PSoC5/CapSense_CSHL.c ****                     CapSense_posFiltersData[firstTimeIndex] = 0u;
1376:Generated_Source\PSoC5/CapSense_CSHL.c ****                 }
1377:Generated_Source\PSoC5/CapSense_CSHL.c ****             #endif /* (0u != CapSense_LINEAR_SLIDERS_POS_FILTERS_MASK) */
1378:Generated_Source\PSoC5/CapSense_CSHL.c ****         }
1379:Generated_Source\PSoC5/CapSense_CSHL.c **** 
1380:Generated_Source\PSoC5/CapSense_CSHL.c ****         
1381:Generated_Source\PSoC5/CapSense_CSHL.c ****         return (position);
1382:Generated_Source\PSoC5/CapSense_CSHL.c ****     }
 1128              		.loc 1 1382 0
 1129 003c 02B0     		add	sp, sp, #8
 1130              		.cfi_def_cfa_offset 16
 1131              		@ sp needed
 1132 003e 70BD     		pop	{r4, r5, r6, pc}
 1133              	.LVL152:
 1134              	.L100:
 1135              		.align	2
 1136              	.L99:
 1137 0040 00000000 		.word	.LANCHOR2
 1138 0044 00000000 		.word	.LANCHOR0
 1139              		.cfi_endproc
 1140              	.LFE13:
 1141              		.size	CapSense_GetCentroidPos, .-CapSense_GetCentroidPos
 1142              		.global	CapSense_centroidMult
 1143              		.global	CapSense_numberOfSensors
 1144              		.global	CapSense_rawDataIndex
 1145              		.global	CapSense_debounceCounter
 1146              		.global	CapSense_debounce
 1147              		.global	CapSense_hysteresis
 1148              		.global	CapSense_noiseThreshold
 1149              		.global	CapSense_fingerThreshold
 1150              		.comm	CapSense_lowBaselineResetCnt,7,4
 1151              		.comm	CapSense_sensorOnMask,1,4
 1152              		.comm	CapSense_sensorSignal,7,4
 1153              		.comm	CapSense_sensorBaselineLow,7,4
 1154              		.comm	CapSense_sensorBaseline,14,4
 1155              		.section	.rodata
 1156              		.align	2
 1157              		.set	.LANCHOR2,. + 0
 1158              		.type	CapSense_rawDataIndex, %object
 1159              		.size	CapSense_rawDataIndex, 3
 1160              	CapSense_rawDataIndex:
 1161 0000 02       		.byte	2
 1162 0001 01       		.byte	1
 1163 0002 00       		.byte	0
 1164 0003 00       		.space	1
 1165              		.type	CapSense_numberOfSensors, %object
 1166              		.size	CapSense_numberOfSensors, 3
 1167              	CapSense_numberOfSensors:
ARM GAS  C:\Users\ESTEBAN\AppData\Local\Temp\ccTkMZau.s 			page 46


 1168 0004 05       		.byte	5
 1169 0005 01       		.byte	1
 1170 0006 01       		.byte	1
 1171 0007 00       		.space	1
 1172              		.type	CapSense_centroidMult, %object
 1173              		.size	CapSense_centroidMult, 2
 1174              	CapSense_centroidMult:
 1175 0008 0019     		.short	6400
 1176              		.data
 1177              		.align	2
 1178              		.set	.LANCHOR0,. + 0
 1179              		.type	CapSense_debounce, %object
 1180              		.size	CapSense_debounce, 3
 1181              	CapSense_debounce:
 1182 0000 01       		.byte	1
 1183 0001 01       		.byte	1
 1184 0002 01       		.byte	1
 1185 0003 00       		.space	1
 1186              		.type	CapSense_noiseThreshold, %object
 1187              		.size	CapSense_noiseThreshold, 3
 1188              	CapSense_noiseThreshold:
 1189 0004 14       		.byte	20
 1190 0005 28       		.byte	40
 1191 0006 28       		.byte	40
 1192 0007 00       		.space	1
 1193              		.type	CapSense_fingerThreshold, %object
 1194              		.size	CapSense_fingerThreshold, 3
 1195              	CapSense_fingerThreshold:
 1196 0008 28       		.byte	40
 1197 0009 50       		.byte	80
 1198 000a 50       		.byte	80
 1199 000b 00       		.space	1
 1200              		.type	CapSense_hysteresis, %object
 1201              		.size	CapSense_hysteresis, 3
 1202              	CapSense_hysteresis:
 1203 000c 00       		.byte	0
 1204 000d 05       		.byte	5
 1205 000e 05       		.byte	5
 1206              		.bss
 1207              		.align	2
 1208              		.set	.LANCHOR1,. + 0
 1209              		.type	CapSense_debounceCounter, %object
 1210              		.size	CapSense_debounceCounter, 3
 1211              	CapSense_debounceCounter:
 1212 0000 000000   		.space	3
 1213 0003 00       		.space	1
 1214              		.type	CapSense_centroid.5253, %object
 1215              		.size	CapSense_centroid.5253, 3
 1216              	CapSense_centroid.5253:
 1217 0004 000000   		.space	3
 1218              		.text
 1219              	.Letext0:
 1220              		.file 2 "Generated_Source\\PSoC5\\cytypes.h"
 1221              		.file 3 "Generated_Source\\PSoC5\\CapSense.h"
 1222              		.file 4 "Generated_Source\\PSoC5\\CapSense_CSHL.h"