ARM GAS  C:\Users\ESTEBAN\AppData\Local\Temp\ccewZgmc.s 			page 1


   1              		.syntax unified
   2              		.cpu cortex-m3
   3              		.fpu softvfp
   4              		.eabi_attribute 20, 1
   5              		.eabi_attribute 21, 1
   6              		.eabi_attribute 23, 3
   7              		.eabi_attribute 24, 1
   8              		.eabi_attribute 25, 1
   9              		.eabi_attribute 26, 1
  10              		.eabi_attribute 30, 1
  11              		.eabi_attribute 34, 1
  12              		.eabi_attribute 18, 4
  13              		.thumb
  14              		.syntax unified
  15              		.file	"main.c"
  16              		.text
  17              	.Ltext0:
  18              		.cfi_sections	.debug_frame
  19              		.section	.text.Conta,"ax",%progbits
  20              		.align	2
  21              		.global	Conta
  22              		.thumb
  23              		.thumb_func
  24              		.type	Conta, %function
  25              	Conta:
  26              	.LFB64:
  27              		.file 1 "main.c"
   1:main.c        **** /* ========================================
   2:main.c        ****  *
   3:main.c        ****  * Copyright YOUR COMPANY, THE YEAR
   4:main.c        ****  * All Rights Reserved
   5:main.c        ****  * UNPUBLISHED, LICENSED SOFTWARE.
   6:main.c        ****  *
   7:main.c        ****  * CONFIDENTIAL AND PROPRIETARY INFORMATION
   8:main.c        ****  * WHICH IS THE PROPERTY OF your company.
   9:main.c        ****  *
  10:main.c        ****  * ========================================
  11:main.c        **** */
  12:main.c        **** #include "project.h"
  13:main.c        **** #include "stdio.h"
  14:main.c        **** uint16 dato=0;
  15:main.c        **** char8 texto[10];
  16:main.c        **** int contador=0;
  17:main.c        **** int f=0,entrar=0,g=0;
  18:main.c        **** int rpm=0;
  19:main.c        **** float rev;
  20:main.c        **** uint8 Boton_1=0;
  21:main.c        **** uint8 Boton_2=0;
  22:main.c        **** uint16 Slider=0;
  23:main.c        **** uint8  dutty1=0;
  24:main.c        **** uint8  dutty2=0;
  25:main.c        **** 
  26:main.c        **** CY_ISR (Conta){
  28              		.loc 1 26 0
  29              		.cfi_startproc
  30              		@ args = 0, pretend = 0, frame = 0
  31              		@ frame_needed = 0, uses_anonymous_args = 0
ARM GAS  C:\Users\ESTEBAN\AppData\Local\Temp\ccewZgmc.s 			page 2


  32              		@ link register save eliminated.
  27:main.c        ****    
  28:main.c        ****     contador++;
  33              		.loc 1 28 0
  34 0000 024A     		ldr	r2, .L2
  35 0002 1368     		ldr	r3, [r2]
  36 0004 0133     		adds	r3, r3, #1
  37 0006 1360     		str	r3, [r2]
  29:main.c        ****      rpm=contador;
  38              		.loc 1 29 0
  39 0008 5360     		str	r3, [r2, #4]
  40 000a 7047     		bx	lr
  41              	.L3:
  42              		.align	2
  43              	.L2:
  44 000c 00000000 		.word	.LANCHOR0
  45              		.cfi_endproc
  46              	.LFE64:
  47              		.size	Conta, .-Conta
  48              		.section	.text.Tempo,"ax",%progbits
  49              		.align	2
  50              		.global	Tempo
  51              		.thumb
  52              		.thumb_func
  53              		.type	Tempo, %function
  54              	Tempo:
  55              	.LFB65:
  30:main.c        ****     //USB_PutString("c");
  31:main.c        **** }
  32:main.c        **** 
  33:main.c        **** CY_ISR (Tempo){
  56              		.loc 1 33 0
  57              		.cfi_startproc
  58              		@ args = 0, pretend = 0, frame = 0
  59              		@ frame_needed = 0, uses_anonymous_args = 0
  60              		@ link register save eliminated.
  34:main.c        ****     
  35:main.c        ****     contador=0;
  61              		.loc 1 35 0
  62 0000 0022     		movs	r2, #0
  63 0002 014B     		ldr	r3, .L5
  64 0004 1A60     		str	r2, [r3]
  65 0006 7047     		bx	lr
  66              	.L6:
  67              		.align	2
  68              	.L5:
  69 0008 00000000 		.word	.LANCHOR0
  70              		.cfi_endproc
  71              	.LFE65:
  72              		.size	Tempo, .-Tempo
  73              		.section	.text.publicar,"ax",%progbits
  74              		.align	2
  75              		.global	publicar
  76              		.thumb
  77              		.thumb_func
  78              		.type	publicar, %function
  79              	publicar:
ARM GAS  C:\Users\ESTEBAN\AppData\Local\Temp\ccewZgmc.s 			page 3


  80              	.LFB66:
  36:main.c        ****     //USB_PutString("a");
  37:main.c        **** }
  38:main.c        **** 
  39:main.c        **** CY_ISR (publicar){
  81              		.loc 1 39 0
  82              		.cfi_startproc
  83              		@ args = 0, pretend = 0, frame = 0
  84              		@ frame_needed = 0, uses_anonymous_args = 0
  85 0000 08B5     		push	{r3, lr}
  86              		.cfi_def_cfa_offset 8
  87              		.cfi_offset 3, -8
  88              		.cfi_offset 14, -4
  40:main.c        ****     
  41:main.c        ****     USB_PutString(texto);
  89              		.loc 1 41 0
  90 0002 0248     		ldr	r0, .L9
  91 0004 FFF7FEFF 		bl	USB_PutString
  92              	.LVL0:
  93 0008 08BD     		pop	{r3, pc}
  94              	.L10:
  95 000a 00BF     		.align	2
  96              	.L9:
  97 000c 00000000 		.word	texto
  98              		.cfi_endproc
  99              	.LFE66:
 100              		.size	publicar, .-publicar
 101              		.global	__aeabi_i2d
 102              		.global	__aeabi_dmul
 103              		.global	__aeabi_ddiv
 104              		.global	__aeabi_d2f
 105              		.global	__aeabi_f2d
 106              		.global	__aeabi_f2uiz
 107              		.section	.text.main,"ax",%progbits
 108              		.align	2
 109              		.global	main
 110              		.thumb
 111              		.thumb_func
 112              		.type	main, %function
 113              	main:
 114              	.LFB67:
  42:main.c        ****     
  43:main.c        ****  
  44:main.c        ****     
  45:main.c        **** }
  46:main.c        **** 
  47:main.c        **** 
  48:main.c        **** int main(void)
  49:main.c        **** {
 115              		.loc 1 49 0
 116              		.cfi_startproc
 117              		@ Volatile: function does not return.
 118              		@ args = 0, pretend = 0, frame = 0
 119              		@ frame_needed = 0, uses_anonymous_args = 0
 120 0000 00B5     		push	{lr}
 121              		.cfi_def_cfa_offset 4
 122              		.cfi_offset 14, -4
ARM GAS  C:\Users\ESTEBAN\AppData\Local\Temp\ccewZgmc.s 			page 4


 123 0002 83B0     		sub	sp, sp, #12
 124              		.cfi_def_cfa_offset 16
  50:main.c        ****     CyGlobalIntEnable; 
 125              		.loc 1 50 0
 126              		.syntax unified
 127              	@ 50 "main.c" 1
 128 0004 62B6     		CPSIE   i
 129              	@ 0 "" 2
  51:main.c        ****     /* Iniciar Perifericos */
  52:main.c        ****     USB_Start(0u,USB_3V_OPERATION);
 130              		.loc 1 52 0
 131              		.thumb
 132              		.syntax unified
 133 0006 0021     		movs	r1, #0
 134 0008 0846     		mov	r0, r1
 135 000a FFF7FEFF 		bl	USB_Start
 136              	.LVL1:
 137              	.L12:
  53:main.c        ****     while(!USB_GetConfiguration());
 138              		.loc 1 53 0 discriminator 1
 139 000e FFF7FEFF 		bl	USB_GetConfiguration
 140              	.LVL2:
 141 0012 0028     		cmp	r0, #0
 142 0014 FBD0     		beq	.L12
  54:main.c        ****     USB_CDC_Init();
 143              		.loc 1 54 0
 144 0016 FFF7FEFF 		bl	USB_CDC_Init
 145              	.LVL3:
  55:main.c        ****     
  56:main.c        ****     LCD_Start();
 146              		.loc 1 56 0
 147 001a FFF7FEFF 		bl	LCD_Start
 148              	.LVL4:
  57:main.c        ****     PWM_1_Start();
 149              		.loc 1 57 0
 150 001e FFF7FEFF 		bl	PWM_1_Start
 151              	.LVL5:
  58:main.c        ****     PWM_2_Start();
 152              		.loc 1 58 0
 153 0022 FFF7FEFF 		bl	PWM_2_Start
 154              	.LVL6:
  59:main.c        ****     CapSense_Start();
 155              		.loc 1 59 0
 156 0026 FFF7FEFF 		bl	CapSense_Start
 157              	.LVL7:
  60:main.c        ****     CapSense_InitializeAllBaselines();
 158              		.loc 1 60 0
 159 002a FFF7FEFF 		bl	CapSense_InitializeAllBaselines
 160              	.LVL8:
  61:main.c        ****   
  62:main.c        ****     
  63:main.c        ****     Timer_Start();
 161              		.loc 1 63 0
 162 002e FFF7FEFF 		bl	Timer_Start
 163              	.LVL9:
  64:main.c        ****    Timer_1_Start();
 164              		.loc 1 64 0
ARM GAS  C:\Users\ESTEBAN\AppData\Local\Temp\ccewZgmc.s 			page 5


 165 0032 FFF7FEFF 		bl	Timer_1_Start
 166              	.LVL10:
  65:main.c        ****     isr_3_Start();
 167              		.loc 1 65 0
 168 0036 FFF7FEFF 		bl	isr_3_Start
 169              	.LVL11:
  66:main.c        ****     isr_3_StartEx(publicar);
 170              		.loc 1 66 0
 171 003a 8B48     		ldr	r0, .L24
 172 003c FFF7FEFF 		bl	isr_3_StartEx
 173              	.LVL12:
  67:main.c        ****     isr_2_Start();
 174              		.loc 1 67 0
 175 0040 FFF7FEFF 		bl	isr_2_Start
 176              	.LVL13:
  68:main.c        ****     isr_2_StartEx(Tempo);
 177              		.loc 1 68 0
 178 0044 8948     		ldr	r0, .L24+4
 179 0046 FFF7FEFF 		bl	isr_2_StartEx
 180              	.LVL14:
  69:main.c        ****     isr_1_Start();
 181              		.loc 1 69 0
 182 004a FFF7FEFF 		bl	isr_1_Start
 183              	.LVL15:
  70:main.c        ****     isr_1_StartEx(Conta);
 184              		.loc 1 70 0
 185 004e 8848     		ldr	r0, .L24+8
 186 0050 FFF7FEFF 		bl	isr_1_StartEx
 187              	.LVL16:
 188              	.L19:
  71:main.c        ****     
  72:main.c        ****     for(;;)
  73:main.c        ****     {
  74:main.c        ****         
  75:main.c        ****      
  76:main.c        ****         
  77:main.c        ****         
  78:main.c        ****         //Actuzalizar Estado del Sensor Capacitivo
  79:main.c        ****         CapSense_UpdateEnabledBaselines();	
 189              		.loc 1 79 0
 190 0054 FFF7FEFF 		bl	CapSense_UpdateEnabledBaselines
 191              	.LVL17:
  80:main.c        **** 	    CapSense_ScanEnabledWidgets();
 192              		.loc 1 80 0
 193 0058 FFF7FEFF 		bl	CapSense_ScanEnabledWidgets
 194              	.LVL18:
  81:main.c        ****         while(CapSense_IsBusy() != 0){
 195              		.loc 1 81 0
 196 005c 93E0     		b	.L17
 197              	.L18:
  82:main.c        ****               //Leer Estado de los botones
  83:main.c        ****               
  84:main.c        ****               //Leer estado del Slider
  85:main.c        ****               Slider =(uint8)CapSense_GetCentroidPos(CapSense_LS__LS);
 198              		.loc 1 85 0
 199 005e 0020     		movs	r0, #0
 200 0060 FFF7FEFF 		bl	CapSense_GetCentroidPos
ARM GAS  C:\Users\ESTEBAN\AppData\Local\Temp\ccewZgmc.s 			page 6


 201              	.LVL19:
 202 0064 C0B2     		uxtb	r0, r0
 203 0066 834B     		ldr	r3, .L24+12
 204 0068 1881     		strh	r0, [r3, #8]	@ movhi
  86:main.c        ****          
  87:main.c        ****        if(Slider==255){
 205              		.loc 1 87 0
 206 006a FF28     		cmp	r0, #255
 207 006c 26D1     		bne	.L14
  88:main.c        ****        dutty1=0;
 208              		.loc 1 88 0
 209 006e 1C46     		mov	r4, r3
 210 0070 0020     		movs	r0, #0
 211 0072 9872     		strb	r0, [r3, #10]
  89:main.c        ****        dutty2=0;
 212              		.loc 1 89 0
 213 0074 D872     		strb	r0, [r3, #11]
  90:main.c        ****          LCD_Position(0,1);  
 214              		.loc 1 90 0
 215 0076 0121     		movs	r1, #1
 216 0078 FFF7FEFF 		bl	LCD_Position
 217              	.LVL20:
  91:main.c        ****          LCD_PrintString("        ");
 218              		.loc 1 91 0
 219 007c 7E4D     		ldr	r5, .L24+16
 220 007e 2846     		mov	r0, r5
 221 0080 FFF7FEFF 		bl	LCD_PrintString
 222              	.LVL21:
  92:main.c        ****          LCD_Position(1,1);  
 223              		.loc 1 92 0
 224 0084 0121     		movs	r1, #1
 225 0086 0846     		mov	r0, r1
 226 0088 FFF7FEFF 		bl	LCD_Position
 227              	.LVL22:
  93:main.c        ****          LCD_PrintString("        ");
 228              		.loc 1 93 0
 229 008c 2846     		mov	r0, r5
 230 008e FFF7FEFF 		bl	LCD_PrintString
 231              	.LVL23:
  94:main.c        ****         PWM_1_WriteCompare(dutty1);
 232              		.loc 1 94 0
 233 0092 A07A     		ldrb	r0, [r4, #10]	@ zero_extendqisi2
 234 0094 FFF7FEFF 		bl	PWM_1_WriteCompare
 235              	.LVL24:
  95:main.c        ****         PWM_2_WriteCompare(dutty2);
 236              		.loc 1 95 0
 237 0098 E07A     		ldrb	r0, [r4, #11]	@ zero_extendqisi2
 238 009a FFF7FEFF 		bl	PWM_2_WriteCompare
 239              	.LVL25:
  96:main.c        ****         CyDelay(30);
 240              		.loc 1 96 0
 241 009e 1E20     		movs	r0, #30
 242 00a0 FFF7FEFF 		bl	CyDelay
 243              	.LVL26:
  97:main.c        ****         sprintf(texto,"%0.3f,%0.3f\n",0.000,0.000);
 244              		.loc 1 97 0
 245 00a4 0022     		movs	r2, #0
ARM GAS  C:\Users\ESTEBAN\AppData\Local\Temp\ccewZgmc.s 			page 7


 246 00a6 0023     		movs	r3, #0
 247 00a8 744C     		ldr	r4, .L24+20
 248 00aa CDE90023 		strd	r2, [sp]
 249 00ae 7449     		ldr	r1, .L24+24
 250 00b0 2046     		mov	r0, r4
 251 00b2 FFF7FEFF 		bl	sprintf
 252              	.LVL27:
  98:main.c        ****     
  99:main.c        ****         USB_PutString(texto);
 253              		.loc 1 99 0
 254 00b6 2046     		mov	r0, r4
 255 00b8 FFF7FEFF 		bl	USB_PutString
 256              	.LVL28:
 257              	.L14:
 100:main.c        ****       }
 101:main.c        **** 
 102:main.c        ****             if (Slider>60&&Slider!=255){
 258              		.loc 1 102 0
 259 00bc 6D4B     		ldr	r3, .L24+12
 260 00be 1B89     		ldrh	r3, [r3, #8]
 261 00c0 3C2B     		cmp	r3, #60
 262 00c2 22D9     		bls	.L15
 263              		.loc 1 102 0 is_stmt 0 discriminator 1
 264 00c4 FF2B     		cmp	r3, #255
 265 00c6 20D0     		beq	.L15
 103:main.c        ****             dutty1=(int)Slider-50;
 266              		.loc 1 103 0 is_stmt 1
 267 00c8 6A4C     		ldr	r4, .L24+12
 268 00ca 323B     		subs	r3, r3, #50
 269 00cc A372     		strb	r3, [r4, #10]
 104:main.c        ****              LCD_Position(1,1);           
 270              		.loc 1 104 0
 271 00ce 0121     		movs	r1, #1
 272 00d0 0846     		mov	r0, r1
 273 00d2 FFF7FEFF 		bl	LCD_Position
 274              	.LVL29:
 105:main.c        ****             LCD_PrintNumber(dutty1);
 275              		.loc 1 105 0
 276 00d6 A07A     		ldrb	r0, [r4, #10]	@ zero_extendqisi2
 277 00d8 FFF7FEFF 		bl	LCD_PrintU32Number
 278              	.LVL30:
 106:main.c        ****              LCD_Position(1,5);           
 279              		.loc 1 106 0
 280 00dc 0521     		movs	r1, #5
 281 00de 0120     		movs	r0, #1
 282 00e0 FFF7FEFF 		bl	LCD_Position
 283              	.LVL31:
 107:main.c        ****             LCD_PrintNumber(Slider);
 284              		.loc 1 107 0
 285 00e4 2089     		ldrh	r0, [r4, #8]
 286 00e6 FFF7FEFF 		bl	LCD_PrintU32Number
 287              	.LVL32:
 108:main.c        ****             LCD_Position(0,1);  
 288              		.loc 1 108 0
 289 00ea 0121     		movs	r1, #1
 290 00ec 0020     		movs	r0, #0
 291 00ee FFF7FEFF 		bl	LCD_Position
ARM GAS  C:\Users\ESTEBAN\AppData\Local\Temp\ccewZgmc.s 			page 8


 292              	.LVL33:
 109:main.c        ****             LCD_PrintString("derecha");
 293              		.loc 1 109 0
 294 00f2 6448     		ldr	r0, .L24+28
 295 00f4 FFF7FEFF 		bl	LCD_PrintString
 296              	.LVL34:
 110:main.c        ****             PWM_1_WriteCompare(dutty1*5);
 297              		.loc 1 110 0
 298 00f8 A07A     		ldrb	r0, [r4, #10]	@ zero_extendqisi2
 299 00fa 00EB8000 		add	r0, r0, r0, lsl #2
 300 00fe C0B2     		uxtb	r0, r0
 301 0100 FFF7FEFF 		bl	PWM_1_WriteCompare
 302              	.LVL35:
 111:main.c        ****             PWM_2_WriteCompare(0);
 303              		.loc 1 111 0
 304 0104 0020     		movs	r0, #0
 305 0106 FFF7FEFF 		bl	PWM_2_WriteCompare
 306              	.LVL36:
 307              	.L15:
 112:main.c        ****             }
 113:main.c        ****             if((Slider>50)&&(Slider<65)){
 308              		.loc 1 113 0
 309 010a 5A4B     		ldr	r3, .L24+12
 310 010c 1B89     		ldrh	r3, [r3, #8]
 311 010e 333B     		subs	r3, r3, #51
 312 0110 9BB2     		uxth	r3, r3
 313 0112 0D2B     		cmp	r3, #13
 314 0114 16D8     		bhi	.L16
 114:main.c        ****                   LCD_Position(0,1);  
 315              		.loc 1 114 0
 316 0116 0121     		movs	r1, #1
 317 0118 0020     		movs	r0, #0
 318 011a FFF7FEFF 		bl	LCD_Position
 319              	.LVL37:
 115:main.c        ****                   LCD_PrintString("centro");
 320              		.loc 1 115 0
 321 011e 5A48     		ldr	r0, .L24+32
 322 0120 FFF7FEFF 		bl	LCD_PrintString
 323              	.LVL38:
 116:main.c        ****                   LCD_Position(1,1); 
 324              		.loc 1 116 0
 325 0124 0121     		movs	r1, #1
 326 0126 0846     		mov	r0, r1
 327 0128 FFF7FEFF 		bl	LCD_Position
 328              	.LVL39:
 117:main.c        ****                   dutty1=0;
 329              		.loc 1 117 0
 330 012c 514C     		ldr	r4, .L24+12
 331 012e 0020     		movs	r0, #0
 332 0130 A072     		strb	r0, [r4, #10]
 118:main.c        ****                   dutty2=0;
 333              		.loc 1 118 0
 334 0132 E072     		strb	r0, [r4, #11]
 119:main.c        ****                   //LCD_PrintNumber(Slider);
 120:main.c        ****                   //LCD_Position(1,5);           
 121:main.c        ****                   LCD_PrintNumber(dutty1);
 335              		.loc 1 121 0
ARM GAS  C:\Users\ESTEBAN\AppData\Local\Temp\ccewZgmc.s 			page 9


 336 0134 FFF7FEFF 		bl	LCD_PrintU32Number
 337              	.LVL40:
 122:main.c        ****                   PWM_1_WriteCompare(dutty1);
 338              		.loc 1 122 0
 339 0138 A07A     		ldrb	r0, [r4, #10]	@ zero_extendqisi2
 340 013a FFF7FEFF 		bl	PWM_1_WriteCompare
 341              	.LVL41:
 123:main.c        ****                   PWM_2_WriteCompare(dutty2);}
 342              		.loc 1 123 0
 343 013e E07A     		ldrb	r0, [r4, #11]	@ zero_extendqisi2
 344 0140 FFF7FEFF 		bl	PWM_2_WriteCompare
 345              	.LVL42:
 346              	.L16:
 124:main.c        ****                 if((Slider<30&&Slider>0)){
 347              		.loc 1 124 0
 348 0144 4B4B     		ldr	r3, .L24+12
 349 0146 1A89     		ldrh	r2, [r3, #8]
 350 0148 531E     		subs	r3, r2, #1
 351 014a 9BB2     		uxth	r3, r3
 352 014c 1C2B     		cmp	r3, #28
 353 014e 1AD8     		bhi	.L17
 125:main.c        ****                    dutty2=30-Slider;
 354              		.loc 1 125 0
 355 0150 484C     		ldr	r4, .L24+12
 356 0152 C2F11E02 		rsb	r2, r2, #30
 357 0156 E272     		strb	r2, [r4, #11]
 126:main.c        ****                    LCD_Position(0,1);  
 358              		.loc 1 126 0
 359 0158 0121     		movs	r1, #1
 360 015a 0020     		movs	r0, #0
 361 015c FFF7FEFF 		bl	LCD_Position
 362              	.LVL43:
 127:main.c        ****                    LCD_PrintString("izquierda");
 363              		.loc 1 127 0
 364 0160 4A48     		ldr	r0, .L24+36
 365 0162 FFF7FEFF 		bl	LCD_PrintString
 366              	.LVL44:
 128:main.c        ****                    LCD_Position(1,1);           
 367              		.loc 1 128 0
 368 0166 0121     		movs	r1, #1
 369 0168 0846     		mov	r0, r1
 370 016a FFF7FEFF 		bl	LCD_Position
 371              	.LVL45:
 129:main.c        ****                  //LCD_PrintNumber(Slider);
 130:main.c        ****                  //LCD_Position(1,5);
 131:main.c        ****                   LCD_PrintNumber(dutty2);
 372              		.loc 1 131 0
 373 016e E07A     		ldrb	r0, [r4, #11]	@ zero_extendqisi2
 374 0170 FFF7FEFF 		bl	LCD_PrintU32Number
 375              	.LVL46:
 132:main.c        ****                   PWM_1_WriteCompare(0);
 376              		.loc 1 132 0
 377 0174 0020     		movs	r0, #0
 378 0176 FFF7FEFF 		bl	PWM_1_WriteCompare
 379              	.LVL47:
 133:main.c        ****                   PWM_2_WriteCompare(dutty2*5);\
 380              		.loc 1 133 0
ARM GAS  C:\Users\ESTEBAN\AppData\Local\Temp\ccewZgmc.s 			page 10


 381 017a E07A     		ldrb	r0, [r4, #11]	@ zero_extendqisi2
 382 017c 00EB8000 		add	r0, r0, r0, lsl #2
 383 0180 C0B2     		uxtb	r0, r0
 384 0182 FFF7FEFF 		bl	PWM_2_WriteCompare
 385              	.LVL48:
 386              	.L17:
  81:main.c        ****               //Leer Estado de los botones
 387              		.loc 1 81 0
 388 0186 FFF7FEFF 		bl	CapSense_IsBusy
 389              	.LVL49:
 390 018a 0028     		cmp	r0, #0
 391 018c 7FF467AF 		bne	.L18
 134:main.c        ****                   }
 135:main.c        ****                   }
 136:main.c        ****             CyDelay(100);
 392              		.loc 1 136 0
 393 0190 6420     		movs	r0, #100
 394 0192 FFF7FEFF 		bl	CyDelay
 395              	.LVL50:
 137:main.c        ****             LCD_ClearDisplay();
 396              		.loc 1 137 0
 397 0196 0120     		movs	r0, #1
 398 0198 FFF7FEFF 		bl	LCD_WriteControl
 399              	.LVL51:
 138:main.c        ****             
 139:main.c        ****               if(contador==0){
 400              		.loc 1 139 0
 401 019c 354B     		ldr	r3, .L24+12
 402 019e 1B68     		ldr	r3, [r3]
 403 01a0 002B     		cmp	r3, #0
 404 01a2 7FF457AF 		bne	.L19
 140:main.c        ****                 
 141:main.c        ****                 
 142:main.c        ****         if (Slider>60&&Slider!=255){
 405              		.loc 1 142 0
 406 01a6 334B     		ldr	r3, .L24+12
 407 01a8 1B89     		ldrh	r3, [r3, #8]
 408 01aa 3C2B     		cmp	r3, #60
 409 01ac 26D9     		bls	.L20
 410              		.loc 1 142 0 is_stmt 0 discriminator 1
 411 01ae FF2B     		cmp	r3, #255
 412 01b0 24D0     		beq	.L20
 143:main.c        ****         
 144:main.c        ****        rev=(rpm*256.0)/60.0;
 413              		.loc 1 144 0 is_stmt 1
 414 01b2 304B     		ldr	r3, .L24+12
 415 01b4 5868     		ldr	r0, [r3, #4]
 416 01b6 FFF7FEFF 		bl	__aeabi_i2d
 417              	.LVL52:
 418 01ba 0022     		movs	r2, #0
 419 01bc 344B     		ldr	r3, .L24+40
 420 01be FFF7FEFF 		bl	__aeabi_dmul
 421              	.LVL53:
 422 01c2 0022     		movs	r2, #0
 423 01c4 334B     		ldr	r3, .L24+44
 424 01c6 FFF7FEFF 		bl	__aeabi_ddiv
 425              	.LVL54:
ARM GAS  C:\Users\ESTEBAN\AppData\Local\Temp\ccewZgmc.s 			page 11


 426 01ca FFF7FEFF 		bl	__aeabi_d2f
 427              	.LVL55:
 428 01ce 324B     		ldr	r3, .L24+48
 429 01d0 1860     		str	r0, [r3]	@ float
 145:main.c        ****        if(pulsador_Read()==1){        
 430              		.loc 1 145 0
 431 01d2 FFF7FEFF 		bl	pulsador_Read
 432              	.LVL56:
 433 01d6 0128     		cmp	r0, #1
 434 01d8 10D1     		bne	.L20
 146:main.c        ****        sprintf(texto,"%0.3f,%0.3f\n",rev,0.000);
 435              		.loc 1 146 0
 436 01da 2F4B     		ldr	r3, .L24+48
 437 01dc 1868     		ldr	r0, [r3]	@ float
 438 01de FFF7FEFF 		bl	__aeabi_f2d
 439              	.LVL57:
 440 01e2 0022     		movs	r2, #0
 441 01e4 0023     		movs	r3, #0
 442 01e6 CDE90023 		strd	r2, [sp]
 443 01ea 0246     		mov	r2, r0
 444 01ec 0B46     		mov	r3, r1
 445 01ee 2449     		ldr	r1, .L24+24
 446 01f0 2248     		ldr	r0, .L24+20
 447 01f2 FFF7FEFF 		bl	sprintf
 448              	.LVL58:
 147:main.c        ****     
 148:main.c        ****       
 149:main.c        ****         //USB_PutString(texto);
 150:main.c        ****      //   CyDelay(30);
 151:main.c        ****         //rev=0;
 152:main.c        ****         rpm=0;}}
 449              		.loc 1 152 0
 450 01f6 0022     		movs	r2, #0
 451 01f8 1E4B     		ldr	r3, .L24+12
 452 01fa 5A60     		str	r2, [r3, #4]
 453              	.L20:
 153:main.c        ****     
 154:main.c        ****     
 155:main.c        ****        if((Slider<30&&Slider>0)){
 454              		.loc 1 155 0
 455 01fc 1D4B     		ldr	r3, .L24+12
 456 01fe 1B89     		ldrh	r3, [r3, #8]
 457 0200 013B     		subs	r3, r3, #1
 458 0202 9BB2     		uxth	r3, r3
 459 0204 1C2B     		cmp	r3, #28
 460 0206 22D8     		bhi	.L21
 156:main.c        ****     
 157:main.c        ****        rev=(rpm*256.0)/60.0;
 461              		.loc 1 157 0
 462 0208 1A4B     		ldr	r3, .L24+12
 463 020a 5868     		ldr	r0, [r3, #4]
 464 020c FFF7FEFF 		bl	__aeabi_i2d
 465              	.LVL59:
 466 0210 0022     		movs	r2, #0
 467 0212 1F4B     		ldr	r3, .L24+40
 468 0214 FFF7FEFF 		bl	__aeabi_dmul
 469              	.LVL60:
ARM GAS  C:\Users\ESTEBAN\AppData\Local\Temp\ccewZgmc.s 			page 12


 470 0218 0022     		movs	r2, #0
 471 021a 1E4B     		ldr	r3, .L24+44
 472 021c FFF7FEFF 		bl	__aeabi_ddiv
 473              	.LVL61:
 474 0220 FFF7FEFF 		bl	__aeabi_d2f
 475              	.LVL62:
 476 0224 1C4B     		ldr	r3, .L24+48
 477 0226 1860     		str	r0, [r3]	@ float
 158:main.c        ****        if(pulsador_Read()==1){        
 478              		.loc 1 158 0
 479 0228 FFF7FEFF 		bl	pulsador_Read
 480              	.LVL63:
 481 022c 0128     		cmp	r0, #1
 482 022e 0ED1     		bne	.L21
 159:main.c        ****        sprintf(texto,"%0.3f,%0.3f\n",0.000,rev);
 483              		.loc 1 159 0
 484 0230 194B     		ldr	r3, .L24+48
 485 0232 1868     		ldr	r0, [r3]	@ float
 486 0234 FFF7FEFF 		bl	__aeabi_f2d
 487              	.LVL64:
 488 0238 CDE90001 		strd	r0, [sp]
 489 023c 0022     		movs	r2, #0
 490 023e 0023     		movs	r3, #0
 491 0240 0F49     		ldr	r1, .L24+24
 492 0242 0E48     		ldr	r0, .L24+20
 493 0244 FFF7FEFF 		bl	sprintf
 494              	.LVL65:
 160:main.c        ****     
 161:main.c        ****        
 162:main.c        ****         //USB_PutString(texto);
 163:main.c        ****      //   CyDelay(30);
 164:main.c        ****         //rev=0;
 165:main.c        ****         rpm=0;}
 495              		.loc 1 165 0
 496 0248 0022     		movs	r2, #0
 497 024a 0A4B     		ldr	r3, .L24+12
 498 024c 5A60     		str	r2, [r3, #4]
 499              	.L21:
 166:main.c        ****     
 167:main.c        ****     }
 168:main.c        ****         LCD_Position(1,4);
 500              		.loc 1 168 0
 501 024e 0421     		movs	r1, #4
 502 0250 0120     		movs	r0, #1
 503 0252 FFF7FEFF 		bl	LCD_Position
 504              	.LVL66:
 169:main.c        ****         LCD_PrintDecUint16(rev);
 505              		.loc 1 169 0
 506 0256 104B     		ldr	r3, .L24+48
 507 0258 1868     		ldr	r0, [r3]	@ float
 508 025a FFF7FEFF 		bl	__aeabi_f2uiz
 509              	.LVL67:
 510 025e 80B2     		uxth	r0, r0
 511 0260 FFF7FEFF 		bl	LCD_PrintU32Number
 512              	.LVL68:
 513 0264 F6E6     		b	.L19
 514              	.L25:
ARM GAS  C:\Users\ESTEBAN\AppData\Local\Temp\ccewZgmc.s 			page 13


 515 0266 00BF     		.align	2
 516              	.L24:
 517 0268 00000000 		.word	publicar
 518 026c 00000000 		.word	Tempo
 519 0270 00000000 		.word	Conta
 520 0274 00000000 		.word	.LANCHOR0
 521 0278 00000000 		.word	.LC0
 522 027c 00000000 		.word	texto
 523 0280 0C000000 		.word	.LC1
 524 0284 1C000000 		.word	.LC2
 525 0288 24000000 		.word	.LC3
 526 028c 2C000000 		.word	.LC4
 527 0290 00007040 		.word	1081081856
 528 0294 00004E40 		.word	1078853632
 529 0298 00000000 		.word	rev
 530              		.cfi_endproc
 531              	.LFE67:
 532              		.size	main, .-main
 533              		.global	dutty2
 534              		.global	dutty1
 535              		.global	Slider
 536              		.global	Boton_2
 537              		.global	Boton_1
 538              		.comm	rev,4,4
 539              		.global	rpm
 540              		.global	g
 541              		.global	entrar
 542              		.global	f
 543              		.global	contador
 544              		.comm	texto,10,4
 545              		.global	dato
 546              		.section	.rodata.str1.4,"aMS",%progbits,1
 547              		.align	2
 548              	.LC0:
 549 0000 20202020 		.ascii	"        \000"
 549      20202020 
 549      00
 550 0009 000000   		.space	3
 551              	.LC1:
 552 000c 25302E33 		.ascii	"%0.3f,%0.3f\012\000"
 552      662C2530 
 552      2E33660A 
 552      00
 553 0019 000000   		.space	3
 554              	.LC2:
 555 001c 64657265 		.ascii	"derecha\000"
 555      63686100 
 556              	.LC3:
 557 0024 63656E74 		.ascii	"centro\000"
 557      726F00
 558 002b 00       		.space	1
 559              	.LC4:
 560 002c 697A7175 		.ascii	"izquierda\000"
 560      69657264 
 560      6100
 561              		.bss
 562              		.align	2
ARM GAS  C:\Users\ESTEBAN\AppData\Local\Temp\ccewZgmc.s 			page 14


 563              		.set	.LANCHOR0,. + 0
 564              		.type	contador, %object
 565              		.size	contador, 4
 566              	contador:
 567 0000 00000000 		.space	4
 568              		.type	rpm, %object
 569              		.size	rpm, 4
 570              	rpm:
 571 0004 00000000 		.space	4
 572              		.type	Slider, %object
 573              		.size	Slider, 2
 574              	Slider:
 575 0008 0000     		.space	2
 576              		.type	dutty1, %object
 577              		.size	dutty1, 1
 578              	dutty1:
 579 000a 00       		.space	1
 580              		.type	dutty2, %object
 581              		.size	dutty2, 1
 582              	dutty2:
 583 000b 00       		.space	1
 584              		.type	Boton_2, %object
 585              		.size	Boton_2, 1
 586              	Boton_2:
 587 000c 00       		.space	1
 588              		.type	Boton_1, %object
 589              		.size	Boton_1, 1
 590              	Boton_1:
 591 000d 00       		.space	1
 592 000e 0000     		.space	2
 593              		.type	g, %object
 594              		.size	g, 4
 595              	g:
 596 0010 00000000 		.space	4
 597              		.type	entrar, %object
 598              		.size	entrar, 4
 599              	entrar:
 600 0014 00000000 		.space	4
 601              		.type	f, %object
 602              		.size	f, 4
 603              	f:
 604 0018 00000000 		.space	4
 605              		.type	dato, %object
 606              		.size	dato, 2
 607              	dato:
 608 001c 0000     		.space	2
 609              		.text
 610              	.Letext0:
 611              		.file 2 "c:\\program files (x86)\\cypress\\psoc creator\\4.2\\psoc creator\\import\\gnu\\arm\\5.4.
 612              		.file 3 "c:\\program files (x86)\\cypress\\psoc creator\\4.2\\psoc creator\\import\\gnu\\arm\\5.4.
 613              		.file 4 "Generated_Source\\PSoC5/cytypes.h"
 614              		.file 5 "Generated_Source\\PSoC5/core_cm3.h"
 615              		.file 6 "Generated_Source\\PSoC5/USB_cdc.h"
 616              		.file 7 "Generated_Source\\PSoC5/USB.h"
 617              		.file 8 "Generated_Source\\PSoC5/LCD.h"
 618              		.file 9 "Generated_Source\\PSoC5/PWM_1.h"
 619              		.file 10 "Generated_Source\\PSoC5/PWM_2.h"
ARM GAS  C:\Users\ESTEBAN\AppData\Local\Temp\ccewZgmc.s 			page 15


 620              		.file 11 "Generated_Source\\PSoC5/CapSense.h"
 621              		.file 12 "Generated_Source\\PSoC5/CapSense_CSHL.h"
 622              		.file 13 "Generated_Source\\PSoC5/Timer.h"
 623              		.file 14 "Generated_Source\\PSoC5/Timer_1.h"
 624              		.file 15 "Generated_Source\\PSoC5/isr_3.h"
 625              		.file 16 "Generated_Source\\PSoC5/isr_2.h"
 626              		.file 17 "Generated_Source\\PSoC5/isr_1.h"
 627              		.file 18 "Generated_Source\\PSoC5/CyLib.h"
 628              		.file 19 "c:\\program files (x86)\\cypress\\psoc creator\\4.2\\psoc creator\\import\\gnu\\arm\\5.4
 629              		.file 20 "Generated_Source\\PSoC5/pulsador.h"