CCS PCM C Compiler, Version 5.015, 5967               06-ene.-20 19:20

               Filename:   D:\Users\ESTEBAN\Desktop\Materias\Codigos\CCS\codigos profesor\Timmers\TImer\Timer.lst

               ROM used:   101 words (1%)
                           Largest free fragment is 2048
               RAM used:   12 (3%) at main() level
                           12 (3%) worst case
               Stack used: 1 locations (0 in main + 1 for interrupts)
               Stack size: 8

*
0000:  MOVLW  00
0001:  MOVWF  0A
0002:  GOTO   03C
0003:  NOP
0004:  MOVWF  7F
0005:  SWAPF  03,W
0006:  CLRF   03
0007:  MOVWF  21
0008:  MOVF   0A,W
0009:  MOVWF  20
000A:  CLRF   0A
000B:  MOVF   04,W
000C:  MOVWF  22
000D:  MOVF   77,W
000E:  MOVWF  23
000F:  MOVF   78,W
0010:  MOVWF  24
0011:  MOVF   79,W
0012:  MOVWF  25
0013:  MOVF   7A,W
0014:  MOVWF  26
0015:  BCF    03.7
0016:  BCF    03.5
0017:  MOVLW  8C
0018:  MOVWF  04
0019:  BTFSS  00.0
001A:  GOTO   01D
001B:  BTFSC  0C.0
001C:  GOTO   02E
001D:  MOVF   22,W
001E:  MOVWF  04
001F:  MOVF   23,W
0020:  MOVWF  77
0021:  MOVF   24,W
0022:  MOVWF  78
0023:  MOVF   25,W
0024:  MOVWF  79
0025:  MOVF   26,W
0026:  MOVWF  7A
0027:  MOVF   20,W
0028:  MOVWF  0A
0029:  SWAPF  21,W
002A:  MOVWF  03
002B:  SWAPF  7F,F
002C:  SWAPF  7F,W
002D:  RETFIE
002E:  BCF    0A.3
002F:  BCF    0A.4
0030:  GOTO   031
.................... #include <16F887.h>//Pic utilizado 
.................... //////////// Standard Header file for the PIC16F887 device //////////////// 
.................... /////////////////////////////////////////////////////////////////////////// 
.................... ////        (C) Copyright 1996, 2013 Custom Computer Services          //// 
.................... //// This source code may only be used by licensed users of the CCS C  //// 
.................... //// compiler.  This source code may only be distributed to other      //// 
.................... //// licensed users of the CCS C compiler.  No other use, reproduction //// 
.................... //// or distribution is permitted without written permission.          //// 
.................... //// Derivative programs created using this software in object code    //// 
.................... //// form are not restricted in any way.                               //// 
.................... /////////////////////////////////////////////////////////////////////////// 
.................... #device PIC16F887 
....................  
.................... #list 
....................  
.................... #FUSES NOWDT, HS, NOPUT, NOMCLR, NOPROTECT, NOCPD, NOBROWNOUT, NOIESO, NOFCMEN, NOLVP, NODEBUG, NOWRT, BORV40 
.................... #use delay(clock=4000000) 
.................... #bit RB0=0x06.0 //Identificador para el bit RB7 
....................  
....................  
....................  
.................... #int_TIMER1 
....................  
.................... void TIMER1_isr(void){ 
....................  
.................... RB0=~RB0; 
0031:  MOVLW  01
0032:  XORWF  06,F
....................  
.................... set_timer1(0x0BDC); 
0033:  CLRF   0E
0034:  MOVLW  0B
0035:  MOVWF  0F
0036:  MOVLW  DC
0037:  MOVWF  0E
....................  
0038:  BCF    0C.0
0039:  BCF    0A.3
003A:  BCF    0A.4
003B:  GOTO   01D
.................... } 
....................  
....................  
.................... void main(){ 
003C:  MOVF   03,W
003D:  ANDLW  1F
003E:  MOVWF  03
003F:  BSF    03.5
0040:  BSF    03.6
0041:  MOVF   09,W
0042:  ANDLW  C0
0043:  MOVWF  09
0044:  BCF    03.6
0045:  BCF    1F.4
0046:  BCF    1F.5
0047:  MOVLW  00
0048:  BSF    03.6
0049:  MOVWF  08
004A:  BCF    03.5
004B:  CLRF   07
004C:  CLRF   08
004D:  CLRF   09
004E:  BCF    03.7
....................  
.................... set_tris_b(0x00); //configura RB7 como salida el resto como entrada 
004F:  MOVLW  00
0050:  BSF    03.5
0051:  BCF    03.6
0052:  MOVWF  06
.................... output_b(0x00);  
0053:  CLRF   06
0054:  BCF    03.5
0055:  CLRF   06
.................... RB0=0;//Inicializo RB7 
0056:  BCF    06.0
.................... setup_timer_1(T1_INTERNAL|T1_DIV_BY_8);//Setup timer: Reloj interno, preescaler= 8 
0057:  MOVLW  35
0058:  MOVWF  10
.................... enable_interrupts(INT_TIMER1);//Habilito interrupción particular del TIMER1 
0059:  BSF    03.5
005A:  BSF    0C.0
.................... enable_interrupts(GLOBAL);//Habilito interrupciones globales 
005B:  MOVLW  C0
005C:  BCF    03.5
005D:  IORWF  0B,F
....................  
.................... set_timer1(0x0BDC);//Carga del TMR1 
005E:  CLRF   0E
005F:  MOVLW  0B
0060:  MOVWF  0F
0061:  MOVLW  DC
0062:  MOVWF  0E
.................... while(true);//Bucle infinito hasta interrupción 
0063:  GOTO   063
.................... } 
....................  
0064:  SLEEP

Configuration Fuses:
   Word  1: 20D2   HS NOWDT NOPUT NOMCLR NOPROTECT NOCPD NOBROWNOUT NOIESO NOFCMEN NOLVP NODEBUG
   Word  2: 3FFF   BORV40 NOWRT
