ARM GAS  C:\Users\ESTEBAN\AppData\Local\Temp\ccJzDwR9.s 			page 1


   1              		.syntax unified
   2              		.cpu cortex-m3
   3              		.fpu softvfp
   4              		.eabi_attribute 20, 1
   5              		.eabi_attribute 21, 1
   6              		.eabi_attribute 23, 3
   7              		.eabi_attribute 24, 1
   8              		.eabi_attribute 25, 1
   9              		.eabi_attribute 26, 1
  10              		.eabi_attribute 30, 1
  11              		.eabi_attribute 34, 1
  12              		.eabi_attribute 18, 4
  13              		.thumb
  14              		.syntax unified
  15              		.file	"main.c"
  16              		.text
  17              	.Ltext0:
  18              		.cfi_sections	.debug_frame
  19              		.global	__aeabi_ui2f
  20              		.global	__aeabi_f2d
  21              		.section	.text.main,"ax",%progbits
  22              		.align	2
  23              		.global	main
  24              		.thumb
  25              		.thumb_func
  26              		.type	main, %function
  27              	main:
  28              	.LFB64:
  29              		.file 1 "main.c"
   1:main.c        **** //Define Librerias
   2:main.c        **** #include "project.h"
   3:main.c        **** #include "stdio.h"
   4:main.c        **** #define BUFFER_LEN  64u //Tamaño del buffer
   5:main.c        **** 
   6:main.c        **** int main(void)
   7:main.c        **** {
  30              		.loc 1 7 0
  31              		.cfi_startproc
  32              		@ args = 0, pretend = 0, frame = 24
  33              		@ frame_needed = 0, uses_anonymous_args = 0
  34 0000 F0B5     		push	{r4, r5, r6, r7, lr}
  35              		.cfi_def_cfa_offset 20
  36              		.cfi_offset 4, -20
  37              		.cfi_offset 5, -16
  38              		.cfi_offset 6, -12
  39              		.cfi_offset 7, -8
  40              		.cfi_offset 14, -4
  41 0002 8BB0     		sub	sp, sp, #44
  42              		.cfi_def_cfa_offset 64
  43              	.LVL0:
   8:main.c        ****     //Variables para Manejar el Buffer
   9:main.c        ****     uint32 Valor_ADC1=0;
  10:main.c        ****     uint32 Valor_ADC2=0;
  11:main.c        ****     uint16 Cuenta;
  12:main.c        ****     uint8 buffer[BUFFER_LEN];
  13:main.c        ****     char8 Texto[20];
  14:main.c        ****     float t1=0,t2=0,t3=0;
ARM GAS  C:\Users\ESTEBAN\AppData\Local\Temp\ccJzDwR9.s 			page 2


  15:main.c        ****     //Habilita las Interrupciones
  16:main.c        ****     CyGlobalIntEnable;
  44              		.loc 1 16 0
  45              		.syntax unified
  46              	@ 16 "main.c" 1
  47 0004 62B6     		CPSIE   i
  48              	@ 0 "" 2
  17:main.c        ****     //Estos Tres parametros Van en grupo
  18:main.c        ****     //Se encargar de que el computador detecte el USB-Serial
  19:main.c        ****     ADC_1_Start();
  49              		.loc 1 19 0
  50              		.thumb
  51              		.syntax unified
  52 0006 FFF7FEFF 		bl	ADC_1_Start
  53              	.LVL1:
  20:main.c        ****     ADC_1_StartConvert();
  54              		.loc 1 20 0
  55 000a FFF7FEFF 		bl	ADC_1_StartConvert
  56              	.LVL2:
  21:main.c        ****     ADC_2_Start();
  57              		.loc 1 21 0
  58 000e FFF7FEFF 		bl	ADC_2_Start
  59              	.LVL3:
  22:main.c        ****     ADC_2_StartConvert();
  60              		.loc 1 22 0
  61 0012 FFF7FEFF 		bl	ADC_2_StartConvert
  62              	.LVL4:
  23:main.c        ****     USB_Start(0u, USB_3V_OPERATION);	
  63              		.loc 1 23 0
  64 0016 0021     		movs	r1, #0
  65 0018 0846     		mov	r0, r1
  66 001a FFF7FEFF 		bl	USB_Start
  67              	.LVL5:
  68              	.L2:
  24:main.c        ****     while(!USB_GetConfiguration());
  69              		.loc 1 24 0 discriminator 1
  70 001e FFF7FEFF 		bl	USB_GetConfiguration
  71              	.LVL6:
  72 0022 0028     		cmp	r0, #0
  73 0024 FBD0     		beq	.L2
  25:main.c        ****     USB_CDC_Init();
  74              		.loc 1 25 0
  75 0026 FFF7FEFF 		bl	USB_CDC_Init
  76              	.LVL7:
  77              	.L3:
  26:main.c        ****     /* Iniciar LCD */
  27:main.c        ****    
  28:main.c        ****     for(;;)
  29:main.c        ****     {
  30:main.c        ****        
  31:main.c        ****      ADC_1_IsEndConversion(ADC_1_WAIT_FOR_RESULT);
  78              		.loc 1 31 0
  79 002a 0020     		movs	r0, #0
  80 002c FFF7FEFF 		bl	ADC_1_IsEndConversion
  81              	.LVL8:
  32:main.c        ****         Valor_ADC1 = ADC_1_GetResult16();
  82              		.loc 1 32 0
ARM GAS  C:\Users\ESTEBAN\AppData\Local\Temp\ccJzDwR9.s 			page 3


  83 0030 FFF7FEFF 		bl	ADC_1_GetResult16
  84              	.LVL9:
  33:main.c        ****       t1=  Valor_ADC1; 
  85              		.loc 1 33 0
  86 0034 FFF7FEFF 		bl	__aeabi_ui2f
  87              	.LVL10:
  88 0038 0546     		mov	r5, r0
  89              	.LVL11:
  34:main.c        ****         ADC_2_IsEndConversion(ADC_2_WAIT_FOR_RESULT);
  90              		.loc 1 34 0
  91 003a 0020     		movs	r0, #0
  92              	.LVL12:
  93 003c FFF7FEFF 		bl	ADC_2_IsEndConversion
  94              	.LVL13:
  35:main.c        ****         Valor_ADC2 = ADC_2_GetResult16();
  95              		.loc 1 35 0
  96 0040 FFF7FEFF 		bl	ADC_2_GetResult16
  97              	.LVL14:
  36:main.c        ****       t2=  Valor_ADC2; 
  98              		.loc 1 36 0
  99 0044 FFF7FEFF 		bl	__aeabi_ui2f
 100              	.LVL15:
 101 0048 0446     		mov	r4, r0
 102              	.LVL16:
  37:main.c        ****                     
  38:main.c        ****       
  39:main.c        ****                              
  40:main.c        ****       if(Pulsador_Read()==1){
 103              		.loc 1 40 0
 104 004a FFF7FEFF 		bl	Pulsador_Read
 105              	.LVL17:
 106 004e 0128     		cmp	r0, #1
 107 0050 1BD1     		bne	.L4
 108              	.LVL18:
  41:main.c        ****         t3=1;
  42:main.c        ****      sprintf(Texto,"%0.3f,%0.3f,%0.3f\n", t1,t2,t3); 
 109              		.loc 1 42 0
 110 0052 2846     		mov	r0, r5
 111 0054 FFF7FEFF 		bl	__aeabi_f2d
 112              	.LVL19:
 113 0058 0646     		mov	r6, r0
 114 005a 0F46     		mov	r7, r1
 115 005c 0022     		movs	r2, #0
 116 005e 174B     		ldr	r3, .L7
 117 0060 CDE90223 		strd	r2, [sp, #8]
 118 0064 2046     		mov	r0, r4
 119 0066 FFF7FEFF 		bl	__aeabi_f2d
 120              	.LVL20:
 121 006a CDE90001 		strd	r0, [sp]
 122 006e 3246     		mov	r2, r6
 123 0070 3B46     		mov	r3, r7
 124 0072 1349     		ldr	r1, .L7+4
 125 0074 05A8     		add	r0, sp, #20
 126 0076 FFF7FEFF 		bl	sprintf
 127              	.LVL21:
  43:main.c        ****             USB_PutString(Texto);
 128              		.loc 1 43 0
ARM GAS  C:\Users\ESTEBAN\AppData\Local\Temp\ccJzDwR9.s 			page 4


 129 007a 05A8     		add	r0, sp, #20
 130 007c FFF7FEFF 		bl	USB_PutString
 131              	.LVL22:
  44:main.c        ****             CyDelay(1000);
 132              		.loc 1 44 0
 133 0080 4FF47A70 		mov	r0, #1000
 134 0084 FFF7FEFF 		bl	CyDelay
 135              	.LVL23:
 136 0088 CFE7     		b	.L3
 137              	.LVL24:
 138              	.L4:
  45:main.c        ****     }
  46:main.c        ****     else{
  47:main.c        ****         
  48:main.c        ****         t3=0;
  49:main.c        ****         sprintf(Texto,"%0.3f,%0.3f,%0.3f", t1,t2,t3); 
 139              		.loc 1 49 0
 140 008a 2846     		mov	r0, r5
 141 008c FFF7FEFF 		bl	__aeabi_f2d
 142              	.LVL25:
 143 0090 0646     		mov	r6, r0
 144 0092 0F46     		mov	r7, r1
 145 0094 0022     		movs	r2, #0
 146 0096 0023     		movs	r3, #0
 147 0098 CDE90223 		strd	r2, [sp, #8]
 148 009c 2046     		mov	r0, r4
 149 009e FFF7FEFF 		bl	__aeabi_f2d
 150              	.LVL26:
 151 00a2 CDE90001 		strd	r0, [sp]
 152 00a6 3246     		mov	r2, r6
 153 00a8 3B46     		mov	r3, r7
 154 00aa 0649     		ldr	r1, .L7+8
 155 00ac 05A8     		add	r0, sp, #20
 156 00ae FFF7FEFF 		bl	sprintf
 157              	.LVL27:
  50:main.c        ****             USB_PutString(Texto);}
 158              		.loc 1 50 0
 159 00b2 05A8     		add	r0, sp, #20
 160 00b4 FFF7FEFF 		bl	USB_PutString
 161              	.LVL28:
 162 00b8 B7E7     		b	.L3
 163              	.L8:
 164 00ba 00BF     		.align	2
 165              	.L7:
 166 00bc 0000F03F 		.word	1072693248
 167 00c0 00000000 		.word	.LC0
 168 00c4 14000000 		.word	.LC1
 169              		.cfi_endproc
 170              	.LFE64:
 171              		.size	main, .-main
 172              		.section	.rodata.str1.4,"aMS",%progbits,1
 173              		.align	2
 174              	.LC0:
 175 0000 25302E33 		.ascii	"%0.3f,%0.3f,%0.3f\012\000"
 175      662C2530 
 175      2E33662C 
 175      25302E33 
ARM GAS  C:\Users\ESTEBAN\AppData\Local\Temp\ccJzDwR9.s 			page 5


 175      660A00
 176 0013 00       		.space	1
 177              	.LC1:
 178 0014 25302E33 		.ascii	"%0.3f,%0.3f,%0.3f\000"
 178      662C2530 
 178      2E33662C 
 178      25302E33 
 178      6600
 179              		.text
 180              	.Letext0:
 181              		.file 2 "c:\\program files (x86)\\cypress\\psoc creator\\4.2\\psoc creator\\import\\gnu\\arm\\5.4.
 182              		.file 3 "c:\\program files (x86)\\cypress\\psoc creator\\4.2\\psoc creator\\import\\gnu\\arm\\5.4.
 183              		.file 4 "Generated_Source\\PSoC5/cytypes.h"
 184              		.file 5 "Generated_Source\\PSoC5/ADC_1.h"
 185              		.file 6 "Generated_Source\\PSoC5/ADC_2.h"
 186              		.file 7 "Generated_Source\\PSoC5/USB.h"
 187              		.file 8 "Generated_Source\\PSoC5/USB_cdc.h"
 188              		.file 9 "Generated_Source\\PSoC5/Pulsador.h"
 189              		.file 10 "c:\\program files (x86)\\cypress\\psoc creator\\4.2\\psoc creator\\import\\gnu\\arm\\5.4
 190              		.file 11 "Generated_Source\\PSoC5/CyLib.h"
 191              		.file 12 "Generated_Source\\PSoC5/core_cm3.h"