ARM GAS  C:\Users\danie\AppData\Local\Temp\ccNUruxW.s 			page 1


   1              		.syntax unified
   2              		.cpu cortex-m3
   3              		.fpu softvfp
   4              		.eabi_attribute 20, 1
   5              		.eabi_attribute 21, 1
   6              		.eabi_attribute 23, 3
   7              		.eabi_attribute 24, 1
   8              		.eabi_attribute 25, 1
   9              		.eabi_attribute 26, 1
  10              		.eabi_attribute 30, 1
  11              		.eabi_attribute 34, 1
  12              		.eabi_attribute 18, 4
  13              		.thumb
  14              		.syntax unified
  15              		.file	"PWM4_PM.c"
  16              		.text
  17              	.Ltext0:
  18              		.cfi_sections	.debug_frame
  19              		.section	.text.PWM4_SaveConfig,"ax",%progbits
  20              		.align	2
  21              		.global	PWM4_SaveConfig
  22              		.thumb
  23              		.thumb_func
  24              		.type	PWM4_SaveConfig, %function
  25              	PWM4_SaveConfig:
  26              	.LFB0:
  27              		.file 1 "Generated_Source\\PSoC5\\PWM4_PM.c"
   1:Generated_Source\PSoC5/PWM4_PM.c **** /*******************************************************************************
   2:Generated_Source\PSoC5/PWM4_PM.c **** * File Name: PWM4_PM.c
   3:Generated_Source\PSoC5/PWM4_PM.c **** * Version 3.30
   4:Generated_Source\PSoC5/PWM4_PM.c **** *
   5:Generated_Source\PSoC5/PWM4_PM.c **** * Description:
   6:Generated_Source\PSoC5/PWM4_PM.c **** *  This file provides the power management source code to API for the
   7:Generated_Source\PSoC5/PWM4_PM.c **** *  PWM.
   8:Generated_Source\PSoC5/PWM4_PM.c **** *
   9:Generated_Source\PSoC5/PWM4_PM.c **** * Note:
  10:Generated_Source\PSoC5/PWM4_PM.c **** *
  11:Generated_Source\PSoC5/PWM4_PM.c **** ********************************************************************************
  12:Generated_Source\PSoC5/PWM4_PM.c **** * Copyright 2008-2014, Cypress Semiconductor Corporation.  All rights reserved.
  13:Generated_Source\PSoC5/PWM4_PM.c **** * You may use this file only in accordance with the license, terms, conditions,
  14:Generated_Source\PSoC5/PWM4_PM.c **** * disclaimers, and limitations in the end user license agreement accompanying
  15:Generated_Source\PSoC5/PWM4_PM.c **** * the software package with which this file was provided.
  16:Generated_Source\PSoC5/PWM4_PM.c **** *******************************************************************************/
  17:Generated_Source\PSoC5/PWM4_PM.c **** 
  18:Generated_Source\PSoC5/PWM4_PM.c **** #include "PWM4.h"
  19:Generated_Source\PSoC5/PWM4_PM.c **** 
  20:Generated_Source\PSoC5/PWM4_PM.c **** static PWM4_backupStruct PWM4_backup;
  21:Generated_Source\PSoC5/PWM4_PM.c **** 
  22:Generated_Source\PSoC5/PWM4_PM.c **** 
  23:Generated_Source\PSoC5/PWM4_PM.c **** /*******************************************************************************
  24:Generated_Source\PSoC5/PWM4_PM.c **** * Function Name: PWM4_SaveConfig
  25:Generated_Source\PSoC5/PWM4_PM.c **** ********************************************************************************
  26:Generated_Source\PSoC5/PWM4_PM.c **** *
  27:Generated_Source\PSoC5/PWM4_PM.c **** * Summary:
  28:Generated_Source\PSoC5/PWM4_PM.c **** *  Saves the current user configuration of the component.
  29:Generated_Source\PSoC5/PWM4_PM.c **** *
  30:Generated_Source\PSoC5/PWM4_PM.c **** * Parameters:
ARM GAS  C:\Users\danie\AppData\Local\Temp\ccNUruxW.s 			page 2


  31:Generated_Source\PSoC5/PWM4_PM.c **** *  None
  32:Generated_Source\PSoC5/PWM4_PM.c **** *
  33:Generated_Source\PSoC5/PWM4_PM.c **** * Return:
  34:Generated_Source\PSoC5/PWM4_PM.c **** *  None
  35:Generated_Source\PSoC5/PWM4_PM.c **** *
  36:Generated_Source\PSoC5/PWM4_PM.c **** * Global variables:
  37:Generated_Source\PSoC5/PWM4_PM.c **** *  PWM4_backup:  Variables of this global structure are modified to
  38:Generated_Source\PSoC5/PWM4_PM.c **** *  store the values of non retention configuration registers when Sleep() API is
  39:Generated_Source\PSoC5/PWM4_PM.c **** *  called.
  40:Generated_Source\PSoC5/PWM4_PM.c **** *
  41:Generated_Source\PSoC5/PWM4_PM.c **** *******************************************************************************/
  42:Generated_Source\PSoC5/PWM4_PM.c **** void PWM4_SaveConfig(void) 
  43:Generated_Source\PSoC5/PWM4_PM.c **** {
  28              		.loc 1 43 0
  29              		.cfi_startproc
  30              		@ args = 0, pretend = 0, frame = 0
  31              		@ frame_needed = 0, uses_anonymous_args = 0
  32 0000 10B5     		push	{r4, lr}
  33              		.cfi_def_cfa_offset 8
  34              		.cfi_offset 4, -8
  35              		.cfi_offset 14, -4
  44:Generated_Source\PSoC5/PWM4_PM.c **** 
  45:Generated_Source\PSoC5/PWM4_PM.c ****     #if(!PWM4_UsingFixedFunction)
  46:Generated_Source\PSoC5/PWM4_PM.c ****         #if(!PWM4_PWMModeIsCenterAligned)
  47:Generated_Source\PSoC5/PWM4_PM.c ****             PWM4_backup.PWMPeriod = PWM4_ReadPeriod();
  36              		.loc 1 47 0
  37 0002 FFF7FEFF 		bl	PWM4_ReadPeriod
  38              	.LVL0:
  39 0006 044C     		ldr	r4, .L3
  40 0008 A080     		strh	r0, [r4, #4]	@ movhi
  48:Generated_Source\PSoC5/PWM4_PM.c ****         #endif /* (!PWM4_PWMModeIsCenterAligned) */
  49:Generated_Source\PSoC5/PWM4_PM.c ****         PWM4_backup.PWMUdb = PWM4_ReadCounter();
  41              		.loc 1 49 0
  42 000a FFF7FEFF 		bl	PWM4_ReadCounter
  43              	.LVL1:
  44 000e 6080     		strh	r0, [r4, #2]	@ movhi
  50:Generated_Source\PSoC5/PWM4_PM.c ****         #if (PWM4_UseStatus)
  51:Generated_Source\PSoC5/PWM4_PM.c ****             PWM4_backup.InterruptMaskValue = PWM4_STATUS_MASK;
  45              		.loc 1 51 0
  46 0010 024B     		ldr	r3, .L3+4
  47 0012 1B78     		ldrb	r3, [r3]	@ zero_extendqisi2
  48 0014 A371     		strb	r3, [r4, #6]
  49 0016 10BD     		pop	{r4, pc}
  50              	.L4:
  51              		.align	2
  52              	.L3:
  53 0018 00000000 		.word	.LANCHOR0
  54 001c 8A640040 		.word	1073767562
  55              		.cfi_endproc
  56              	.LFE0:
  57              		.size	PWM4_SaveConfig, .-PWM4_SaveConfig
  58              		.section	.text.PWM4_RestoreConfig,"ax",%progbits
  59              		.align	2
  60              		.global	PWM4_RestoreConfig
  61              		.thumb
  62              		.thumb_func
  63              		.type	PWM4_RestoreConfig, %function
ARM GAS  C:\Users\danie\AppData\Local\Temp\ccNUruxW.s 			page 3


  64              	PWM4_RestoreConfig:
  65              	.LFB1:
  52:Generated_Source\PSoC5/PWM4_PM.c ****         #endif /* (PWM4_UseStatus) */
  53:Generated_Source\PSoC5/PWM4_PM.c **** 
  54:Generated_Source\PSoC5/PWM4_PM.c ****         #if(PWM4_DeadBandMode == PWM4__B_PWM__DBM_256_CLOCKS || \
  55:Generated_Source\PSoC5/PWM4_PM.c ****             PWM4_DeadBandMode == PWM4__B_PWM__DBM_2_4_CLOCKS)
  56:Generated_Source\PSoC5/PWM4_PM.c ****             PWM4_backup.PWMdeadBandValue = PWM4_ReadDeadTime();
  57:Generated_Source\PSoC5/PWM4_PM.c ****         #endif /*  deadband count is either 2-4 clocks or 256 clocks */
  58:Generated_Source\PSoC5/PWM4_PM.c **** 
  59:Generated_Source\PSoC5/PWM4_PM.c ****         #if(PWM4_KillModeMinTime)
  60:Generated_Source\PSoC5/PWM4_PM.c ****              PWM4_backup.PWMKillCounterPeriod = PWM4_ReadKillTime();
  61:Generated_Source\PSoC5/PWM4_PM.c ****         #endif /* (PWM4_KillModeMinTime) */
  62:Generated_Source\PSoC5/PWM4_PM.c **** 
  63:Generated_Source\PSoC5/PWM4_PM.c ****         #if(PWM4_UseControl)
  64:Generated_Source\PSoC5/PWM4_PM.c ****             PWM4_backup.PWMControlRegister = PWM4_ReadControlRegister();
  65:Generated_Source\PSoC5/PWM4_PM.c ****         #endif /* (PWM4_UseControl) */
  66:Generated_Source\PSoC5/PWM4_PM.c ****     #endif  /* (!PWM4_UsingFixedFunction) */
  67:Generated_Source\PSoC5/PWM4_PM.c **** }
  68:Generated_Source\PSoC5/PWM4_PM.c **** 
  69:Generated_Source\PSoC5/PWM4_PM.c **** 
  70:Generated_Source\PSoC5/PWM4_PM.c **** /*******************************************************************************
  71:Generated_Source\PSoC5/PWM4_PM.c **** * Function Name: PWM4_RestoreConfig
  72:Generated_Source\PSoC5/PWM4_PM.c **** ********************************************************************************
  73:Generated_Source\PSoC5/PWM4_PM.c **** *
  74:Generated_Source\PSoC5/PWM4_PM.c **** * Summary:
  75:Generated_Source\PSoC5/PWM4_PM.c **** *  Restores the current user configuration of the component.
  76:Generated_Source\PSoC5/PWM4_PM.c **** *
  77:Generated_Source\PSoC5/PWM4_PM.c **** * Parameters:
  78:Generated_Source\PSoC5/PWM4_PM.c **** *  None
  79:Generated_Source\PSoC5/PWM4_PM.c **** *
  80:Generated_Source\PSoC5/PWM4_PM.c **** * Return:
  81:Generated_Source\PSoC5/PWM4_PM.c **** *  None
  82:Generated_Source\PSoC5/PWM4_PM.c **** *
  83:Generated_Source\PSoC5/PWM4_PM.c **** * Global variables:
  84:Generated_Source\PSoC5/PWM4_PM.c **** *  PWM4_backup:  Variables of this global structure are used to
  85:Generated_Source\PSoC5/PWM4_PM.c **** *  restore the values of non retention registers on wakeup from sleep mode.
  86:Generated_Source\PSoC5/PWM4_PM.c **** *
  87:Generated_Source\PSoC5/PWM4_PM.c **** *******************************************************************************/
  88:Generated_Source\PSoC5/PWM4_PM.c **** void PWM4_RestoreConfig(void) 
  89:Generated_Source\PSoC5/PWM4_PM.c **** {
  66              		.loc 1 89 0
  67              		.cfi_startproc
  68              		@ args = 0, pretend = 0, frame = 0
  69              		@ frame_needed = 0, uses_anonymous_args = 0
  70 0000 10B5     		push	{r4, lr}
  71              		.cfi_def_cfa_offset 8
  72              		.cfi_offset 4, -8
  73              		.cfi_offset 14, -4
  90:Generated_Source\PSoC5/PWM4_PM.c ****         #if(!PWM4_UsingFixedFunction)
  91:Generated_Source\PSoC5/PWM4_PM.c ****             #if(!PWM4_PWMModeIsCenterAligned)
  92:Generated_Source\PSoC5/PWM4_PM.c ****                 PWM4_WritePeriod(PWM4_backup.PWMPeriod);
  74              		.loc 1 92 0
  75 0002 054C     		ldr	r4, .L7
  76 0004 A088     		ldrh	r0, [r4, #4]
  77 0006 FFF7FEFF 		bl	PWM4_WritePeriod
  78              	.LVL2:
  93:Generated_Source\PSoC5/PWM4_PM.c ****             #endif /* (!PWM4_PWMModeIsCenterAligned) */
ARM GAS  C:\Users\danie\AppData\Local\Temp\ccNUruxW.s 			page 4


  94:Generated_Source\PSoC5/PWM4_PM.c **** 
  95:Generated_Source\PSoC5/PWM4_PM.c ****             PWM4_WriteCounter(PWM4_backup.PWMUdb);
  79              		.loc 1 95 0
  80 000a 6088     		ldrh	r0, [r4, #2]
  81 000c FFF7FEFF 		bl	PWM4_WriteCounter
  82              	.LVL3:
  96:Generated_Source\PSoC5/PWM4_PM.c **** 
  97:Generated_Source\PSoC5/PWM4_PM.c ****             #if (PWM4_UseStatus)
  98:Generated_Source\PSoC5/PWM4_PM.c ****                 PWM4_STATUS_MASK = PWM4_backup.InterruptMaskValue;
  83              		.loc 1 98 0
  84 0010 A279     		ldrb	r2, [r4, #6]	@ zero_extendqisi2
  85 0012 024B     		ldr	r3, .L7+4
  86 0014 1A70     		strb	r2, [r3]
  87 0016 10BD     		pop	{r4, pc}
  88              	.L8:
  89              		.align	2
  90              	.L7:
  91 0018 00000000 		.word	.LANCHOR0
  92 001c 8A640040 		.word	1073767562
  93              		.cfi_endproc
  94              	.LFE1:
  95              		.size	PWM4_RestoreConfig, .-PWM4_RestoreConfig
  96              		.section	.text.PWM4_Sleep,"ax",%progbits
  97              		.align	2
  98              		.global	PWM4_Sleep
  99              		.thumb
 100              		.thumb_func
 101              		.type	PWM4_Sleep, %function
 102              	PWM4_Sleep:
 103              	.LFB2:
  99:Generated_Source\PSoC5/PWM4_PM.c ****             #endif /* (PWM4_UseStatus) */
 100:Generated_Source\PSoC5/PWM4_PM.c **** 
 101:Generated_Source\PSoC5/PWM4_PM.c ****             #if(PWM4_DeadBandMode == PWM4__B_PWM__DBM_256_CLOCKS || \
 102:Generated_Source\PSoC5/PWM4_PM.c ****                 PWM4_DeadBandMode == PWM4__B_PWM__DBM_2_4_CLOCKS)
 103:Generated_Source\PSoC5/PWM4_PM.c ****                 PWM4_WriteDeadTime(PWM4_backup.PWMdeadBandValue);
 104:Generated_Source\PSoC5/PWM4_PM.c ****             #endif /* deadband count is either 2-4 clocks or 256 clocks */
 105:Generated_Source\PSoC5/PWM4_PM.c **** 
 106:Generated_Source\PSoC5/PWM4_PM.c ****             #if(PWM4_KillModeMinTime)
 107:Generated_Source\PSoC5/PWM4_PM.c ****                 PWM4_WriteKillTime(PWM4_backup.PWMKillCounterPeriod);
 108:Generated_Source\PSoC5/PWM4_PM.c ****             #endif /* (PWM4_KillModeMinTime) */
 109:Generated_Source\PSoC5/PWM4_PM.c **** 
 110:Generated_Source\PSoC5/PWM4_PM.c ****             #if(PWM4_UseControl)
 111:Generated_Source\PSoC5/PWM4_PM.c ****                 PWM4_WriteControlRegister(PWM4_backup.PWMControlRegister);
 112:Generated_Source\PSoC5/PWM4_PM.c ****             #endif /* (PWM4_UseControl) */
 113:Generated_Source\PSoC5/PWM4_PM.c ****         #endif  /* (!PWM4_UsingFixedFunction) */
 114:Generated_Source\PSoC5/PWM4_PM.c ****     }
 115:Generated_Source\PSoC5/PWM4_PM.c **** 
 116:Generated_Source\PSoC5/PWM4_PM.c **** 
 117:Generated_Source\PSoC5/PWM4_PM.c **** /*******************************************************************************
 118:Generated_Source\PSoC5/PWM4_PM.c **** * Function Name: PWM4_Sleep
 119:Generated_Source\PSoC5/PWM4_PM.c **** ********************************************************************************
 120:Generated_Source\PSoC5/PWM4_PM.c **** *
 121:Generated_Source\PSoC5/PWM4_PM.c **** * Summary:
 122:Generated_Source\PSoC5/PWM4_PM.c **** *  Disables block's operation and saves the user configuration. Should be called
 123:Generated_Source\PSoC5/PWM4_PM.c **** *  just prior to entering sleep.
 124:Generated_Source\PSoC5/PWM4_PM.c **** *
 125:Generated_Source\PSoC5/PWM4_PM.c **** * Parameters:
ARM GAS  C:\Users\danie\AppData\Local\Temp\ccNUruxW.s 			page 5


 126:Generated_Source\PSoC5/PWM4_PM.c **** *  None
 127:Generated_Source\PSoC5/PWM4_PM.c **** *
 128:Generated_Source\PSoC5/PWM4_PM.c **** * Return:
 129:Generated_Source\PSoC5/PWM4_PM.c **** *  None
 130:Generated_Source\PSoC5/PWM4_PM.c **** *
 131:Generated_Source\PSoC5/PWM4_PM.c **** * Global variables:
 132:Generated_Source\PSoC5/PWM4_PM.c **** *  PWM4_backup.PWMEnableState:  Is modified depending on the enable
 133:Generated_Source\PSoC5/PWM4_PM.c **** *  state of the block before entering sleep mode.
 134:Generated_Source\PSoC5/PWM4_PM.c **** *
 135:Generated_Source\PSoC5/PWM4_PM.c **** *******************************************************************************/
 136:Generated_Source\PSoC5/PWM4_PM.c **** void PWM4_Sleep(void) 
 137:Generated_Source\PSoC5/PWM4_PM.c **** {
 104              		.loc 1 137 0
 105              		.cfi_startproc
 106              		@ args = 0, pretend = 0, frame = 0
 107              		@ frame_needed = 0, uses_anonymous_args = 0
 108 0000 08B5     		push	{r3, lr}
 109              		.cfi_def_cfa_offset 8
 110              		.cfi_offset 3, -8
 111              		.cfi_offset 14, -4
 138:Generated_Source\PSoC5/PWM4_PM.c ****     #if(PWM4_UseControl)
 139:Generated_Source\PSoC5/PWM4_PM.c ****         if(PWM4_CTRL_ENABLE == (PWM4_CONTROL & PWM4_CTRL_ENABLE))
 140:Generated_Source\PSoC5/PWM4_PM.c ****         {
 141:Generated_Source\PSoC5/PWM4_PM.c ****             /*Component is enabled */
 142:Generated_Source\PSoC5/PWM4_PM.c ****             PWM4_backup.PWMEnableState = 1u;
 143:Generated_Source\PSoC5/PWM4_PM.c ****         }
 144:Generated_Source\PSoC5/PWM4_PM.c ****         else
 145:Generated_Source\PSoC5/PWM4_PM.c ****         {
 146:Generated_Source\PSoC5/PWM4_PM.c ****             /* Component is disabled */
 147:Generated_Source\PSoC5/PWM4_PM.c ****             PWM4_backup.PWMEnableState = 0u;
 148:Generated_Source\PSoC5/PWM4_PM.c ****         }
 149:Generated_Source\PSoC5/PWM4_PM.c ****     #endif /* (PWM4_UseControl) */
 150:Generated_Source\PSoC5/PWM4_PM.c **** 
 151:Generated_Source\PSoC5/PWM4_PM.c ****     /* Stop component */
 152:Generated_Source\PSoC5/PWM4_PM.c ****     PWM4_Stop();
 112              		.loc 1 152 0
 113 0002 FFF7FEFF 		bl	PWM4_Stop
 114              	.LVL4:
 153:Generated_Source\PSoC5/PWM4_PM.c **** 
 154:Generated_Source\PSoC5/PWM4_PM.c ****     /* Save registers configuration */
 155:Generated_Source\PSoC5/PWM4_PM.c ****     PWM4_SaveConfig();
 115              		.loc 1 155 0
 116 0006 FFF7FEFF 		bl	PWM4_SaveConfig
 117              	.LVL5:
 118 000a 08BD     		pop	{r3, pc}
 119              		.cfi_endproc
 120              	.LFE2:
 121              		.size	PWM4_Sleep, .-PWM4_Sleep
 122              		.section	.text.PWM4_Wakeup,"ax",%progbits
 123              		.align	2
 124              		.global	PWM4_Wakeup
 125              		.thumb
 126              		.thumb_func
 127              		.type	PWM4_Wakeup, %function
 128              	PWM4_Wakeup:
 129              	.LFB3:
 156:Generated_Source\PSoC5/PWM4_PM.c **** }
ARM GAS  C:\Users\danie\AppData\Local\Temp\ccNUruxW.s 			page 6


 157:Generated_Source\PSoC5/PWM4_PM.c **** 
 158:Generated_Source\PSoC5/PWM4_PM.c **** 
 159:Generated_Source\PSoC5/PWM4_PM.c **** /*******************************************************************************
 160:Generated_Source\PSoC5/PWM4_PM.c **** * Function Name: PWM4_Wakeup
 161:Generated_Source\PSoC5/PWM4_PM.c **** ********************************************************************************
 162:Generated_Source\PSoC5/PWM4_PM.c **** *
 163:Generated_Source\PSoC5/PWM4_PM.c **** * Summary:
 164:Generated_Source\PSoC5/PWM4_PM.c **** *  Restores and enables the user configuration. Should be called just after
 165:Generated_Source\PSoC5/PWM4_PM.c **** *  awaking from sleep.
 166:Generated_Source\PSoC5/PWM4_PM.c **** *
 167:Generated_Source\PSoC5/PWM4_PM.c **** * Parameters:
 168:Generated_Source\PSoC5/PWM4_PM.c **** *  None
 169:Generated_Source\PSoC5/PWM4_PM.c **** *
 170:Generated_Source\PSoC5/PWM4_PM.c **** * Return:
 171:Generated_Source\PSoC5/PWM4_PM.c **** *  None
 172:Generated_Source\PSoC5/PWM4_PM.c **** *
 173:Generated_Source\PSoC5/PWM4_PM.c **** * Global variables:
 174:Generated_Source\PSoC5/PWM4_PM.c **** *  PWM4_backup.pwmEnable:  Is used to restore the enable state of
 175:Generated_Source\PSoC5/PWM4_PM.c **** *  block on wakeup from sleep mode.
 176:Generated_Source\PSoC5/PWM4_PM.c **** *
 177:Generated_Source\PSoC5/PWM4_PM.c **** *******************************************************************************/
 178:Generated_Source\PSoC5/PWM4_PM.c **** void PWM4_Wakeup(void) 
 179:Generated_Source\PSoC5/PWM4_PM.c **** {
 130              		.loc 1 179 0
 131              		.cfi_startproc
 132              		@ args = 0, pretend = 0, frame = 0
 133              		@ frame_needed = 0, uses_anonymous_args = 0
 134 0000 08B5     		push	{r3, lr}
 135              		.cfi_def_cfa_offset 8
 136              		.cfi_offset 3, -8
 137              		.cfi_offset 14, -4
 180:Generated_Source\PSoC5/PWM4_PM.c ****      /* Restore registers values */
 181:Generated_Source\PSoC5/PWM4_PM.c ****     PWM4_RestoreConfig();
 138              		.loc 1 181 0
 139 0002 FFF7FEFF 		bl	PWM4_RestoreConfig
 140              	.LVL6:
 182:Generated_Source\PSoC5/PWM4_PM.c **** 
 183:Generated_Source\PSoC5/PWM4_PM.c ****     if(PWM4_backup.PWMEnableState != 0u)
 141              		.loc 1 183 0
 142 0006 034B     		ldr	r3, .L14
 143 0008 1B78     		ldrb	r3, [r3]	@ zero_extendqisi2
 144 000a 0BB1     		cbz	r3, .L11
 184:Generated_Source\PSoC5/PWM4_PM.c ****     {
 185:Generated_Source\PSoC5/PWM4_PM.c ****         /* Enable component's operation */
 186:Generated_Source\PSoC5/PWM4_PM.c ****         PWM4_Enable();
 145              		.loc 1 186 0
 146 000c FFF7FEFF 		bl	PWM4_Enable
 147              	.LVL7:
 148              	.L11:
 149 0010 08BD     		pop	{r3, pc}
 150              	.L15:
 151 0012 00BF     		.align	2
 152              	.L14:
 153 0014 00000000 		.word	.LANCHOR0
 154              		.cfi_endproc
 155              	.LFE3:
 156              		.size	PWM4_Wakeup, .-PWM4_Wakeup
ARM GAS  C:\Users\danie\AppData\Local\Temp\ccNUruxW.s 			page 7


 157              		.bss
 158              		.align	2
 159              		.set	.LANCHOR0,. + 0
 160              		.type	PWM4_backup, %object
 161              		.size	PWM4_backup, 8
 162              	PWM4_backup:
 163 0000 00000000 		.space	8
 163      00000000 
 164              		.text
 165              	.Letext0:
 166              		.file 2 "Generated_Source\\PSoC5\\cytypes.h"
 167              		.file 3 "Generated_Source\\PSoC5\\PWM4.h"