ARM GAS  C:\Users\ESTEBAN\AppData\Local\Temp\ccT3HKR5.s 			page 1


   1              		.syntax unified
   2              		.cpu cortex-m3
   3              		.fpu softvfp
   4              		.eabi_attribute 20, 1
   5              		.eabi_attribute 21, 1
   6              		.eabi_attribute 23, 3
   7              		.eabi_attribute 24, 1
   8              		.eabi_attribute 25, 1
   9              		.eabi_attribute 26, 1
  10              		.eabi_attribute 30, 1
  11              		.eabi_attribute 34, 1
  12              		.eabi_attribute 18, 4
  13              		.thumb
  14              		.syntax unified
  15              		.file	"main.c"
  16              		.text
  17              	.Ltext0:
  18              		.cfi_sections	.debug_frame
  19              		.global	__aeabi_f2d
  20              		.section	.text.Enviar,"ax",%progbits
  21              		.align	2
  22              		.global	Enviar
  23              		.thumb
  24              		.thumb_func
  25              		.type	Enviar, %function
  26              	Enviar:
  27              	.LFB64:
  28              		.file 1 "main.c"
   1:main.c        **** /* ========================================
   2:main.c        ****  *
   3:main.c        ****  * Copyright YOUR COMPANY, THE YEAR
   4:main.c        ****  * All Rights Reserved
   5:main.c        ****  * UNPUBLISHED, LICENSED SOFTWARE.
   6:main.c        ****  *
   7:main.c        ****  * CONFIDENTIAL AND PROPRIETARY INFORMATION
   8:main.c        ****  * WHICH IS THE PROPERTY OF your company.
   9:main.c        ****  *
  10:main.c        ****  * ========================================
  11:main.c        **** */
  12:main.c        **** #include "project.h"
  13:main.c        **** #include <stdio.h>
  14:main.c        **** 
  15:main.c        **** int numero[5];
  16:main.c        **** float32 voltiosADC[5];
  17:main.c        **** char publicar[12];
  18:main.c        **** char recibir;
  19:main.c        **** int canal=0;
  20:main.c        **** CY_ISR(Enviar){
  29              		.loc 1 20 0
  30              		.cfi_startproc
  31              		@ args = 0, pretend = 0, frame = 0
  32              		@ frame_needed = 0, uses_anonymous_args = 0
  33 0000 10B5     		push	{r4, lr}
  34              		.cfi_def_cfa_offset 8
  35              		.cfi_offset 4, -8
  36              		.cfi_offset 14, -4
  21:main.c        **** if(canal==0){
ARM GAS  C:\Users\ESTEBAN\AppData\Local\Temp\ccT3HKR5.s 			page 2


  37              		.loc 1 21 0
  38 0002 2B4B     		ldr	r3, .L8
  39 0004 1B68     		ldr	r3, [r3]
  40 0006 4BB9     		cbnz	r3, .L2
  22:main.c        ****  
  23:main.c        ****   sprintf(publicar,"%3d \n \r" ,numero[0]);
  41              		.loc 1 23 0
  42 0008 2A4C     		ldr	r4, .L8+4
  43 000a 2B4B     		ldr	r3, .L8+8
  44 000c 1A68     		ldr	r2, [r3]
  45 000e 2B49     		ldr	r1, .L8+12
  46 0010 2046     		mov	r0, r4
  47 0012 FFF7FEFF 		bl	sprintf
  48              	.LVL0:
  24:main.c        ****   UART_PutString(publicar);
  49              		.loc 1 24 0
  50 0016 2046     		mov	r0, r4
  51 0018 FFF7FEFF 		bl	UART_PutString
  52              	.LVL1:
  53              	.L2:
  25:main.c        **** }
  26:main.c        **** if(canal==1){
  54              		.loc 1 26 0
  55 001c 244B     		ldr	r3, .L8
  56 001e 1B68     		ldr	r3, [r3]
  57 0020 012B     		cmp	r3, #1
  58 0022 0DD1     		bne	.L3
  27:main.c        ****   sprintf(publicar,"%.3f \n \r" ,voltiosADC[1]);
  59              		.loc 1 27 0
  60 0024 264B     		ldr	r3, .L8+16
  61 0026 5868     		ldr	r0, [r3, #4]	@ float
  62 0028 FFF7FEFF 		bl	__aeabi_f2d
  63              	.LVL2:
  64 002c 214C     		ldr	r4, .L8+4
  65 002e 0246     		mov	r2, r0
  66 0030 0B46     		mov	r3, r1
  67 0032 2449     		ldr	r1, .L8+20
  68 0034 2046     		mov	r0, r4
  69 0036 FFF7FEFF 		bl	sprintf
  70              	.LVL3:
  28:main.c        ****   UART_PutString(publicar);
  71              		.loc 1 28 0
  72 003a 2046     		mov	r0, r4
  73 003c FFF7FEFF 		bl	UART_PutString
  74              	.LVL4:
  75              	.L3:
  29:main.c        **** }
  30:main.c        **** if(canal==2){
  76              		.loc 1 30 0
  77 0040 1B4B     		ldr	r3, .L8
  78 0042 1B68     		ldr	r3, [r3]
  79 0044 022B     		cmp	r3, #2
  80 0046 0DD1     		bne	.L4
  31:main.c        ****   sprintf(publicar,"%.3f \n \r" ,voltiosADC[2]);
  81              		.loc 1 31 0
  82 0048 1D4B     		ldr	r3, .L8+16
  83 004a 9868     		ldr	r0, [r3, #8]	@ float
ARM GAS  C:\Users\ESTEBAN\AppData\Local\Temp\ccT3HKR5.s 			page 3


  84 004c FFF7FEFF 		bl	__aeabi_f2d
  85              	.LVL5:
  86 0050 184C     		ldr	r4, .L8+4
  87 0052 0246     		mov	r2, r0
  88 0054 0B46     		mov	r3, r1
  89 0056 1B49     		ldr	r1, .L8+20
  90 0058 2046     		mov	r0, r4
  91 005a FFF7FEFF 		bl	sprintf
  92              	.LVL6:
  32:main.c        ****   UART_PutString(publicar);
  93              		.loc 1 32 0
  94 005e 2046     		mov	r0, r4
  95 0060 FFF7FEFF 		bl	UART_PutString
  96              	.LVL7:
  97              	.L4:
  33:main.c        **** }
  34:main.c        **** if(canal==3){
  98              		.loc 1 34 0
  99 0064 124B     		ldr	r3, .L8
 100 0066 1B68     		ldr	r3, [r3]
 101 0068 032B     		cmp	r3, #3
 102 006a 0DD1     		bne	.L5
  35:main.c        ****   sprintf(publicar,"%.3f \n \r" ,voltiosADC[3]);
 103              		.loc 1 35 0
 104 006c 144B     		ldr	r3, .L8+16
 105 006e D868     		ldr	r0, [r3, #12]	@ float
 106 0070 FFF7FEFF 		bl	__aeabi_f2d
 107              	.LVL8:
 108 0074 0F4C     		ldr	r4, .L8+4
 109 0076 0246     		mov	r2, r0
 110 0078 0B46     		mov	r3, r1
 111 007a 1249     		ldr	r1, .L8+20
 112 007c 2046     		mov	r0, r4
 113 007e FFF7FEFF 		bl	sprintf
 114              	.LVL9:
  36:main.c        ****   UART_PutString(publicar);
 115              		.loc 1 36 0
 116 0082 2046     		mov	r0, r4
 117 0084 FFF7FEFF 		bl	UART_PutString
 118              	.LVL10:
 119              	.L5:
  37:main.c        **** }
  38:main.c        **** if(canal==4){
 120              		.loc 1 38 0
 121 0088 094B     		ldr	r3, .L8
 122 008a 1B68     		ldr	r3, [r3]
 123 008c 042B     		cmp	r3, #4
 124 008e 0DD1     		bne	.L1
  39:main.c        ****   sprintf(publicar,"%.3f \n \r" ,voltiosADC[4]);
 125              		.loc 1 39 0
 126 0090 0B4B     		ldr	r3, .L8+16
 127 0092 1869     		ldr	r0, [r3, #16]	@ float
 128 0094 FFF7FEFF 		bl	__aeabi_f2d
 129              	.LVL11:
 130 0098 064C     		ldr	r4, .L8+4
 131 009a 0246     		mov	r2, r0
 132 009c 0B46     		mov	r3, r1
ARM GAS  C:\Users\ESTEBAN\AppData\Local\Temp\ccT3HKR5.s 			page 4


 133 009e 0949     		ldr	r1, .L8+20
 134 00a0 2046     		mov	r0, r4
 135 00a2 FFF7FEFF 		bl	sprintf
 136              	.LVL12:
  40:main.c        ****   UART_PutString(publicar);
 137              		.loc 1 40 0
 138 00a6 2046     		mov	r0, r4
 139 00a8 FFF7FEFF 		bl	UART_PutString
 140              	.LVL13:
 141              	.L1:
 142 00ac 10BD     		pop	{r4, pc}
 143              	.L9:
 144 00ae 00BF     		.align	2
 145              	.L8:
 146 00b0 00000000 		.word	.LANCHOR0
 147 00b4 00000000 		.word	publicar
 148 00b8 00000000 		.word	numero
 149 00bc 00000000 		.word	.LC0
 150 00c0 00000000 		.word	voltiosADC
 151 00c4 08000000 		.word	.LC1
 152              		.cfi_endproc
 153              	.LFE64:
 154              		.size	Enviar, .-Enviar
 155              		.section	.text.Recibir,"ax",%progbits
 156              		.align	2
 157              		.global	Recibir
 158              		.thumb
 159              		.thumb_func
 160              		.type	Recibir, %function
 161              	Recibir:
 162              	.LFB65:
  41:main.c        **** }
  42:main.c        **** }
  43:main.c        **** 
  44:main.c        **** 
  45:main.c        **** CY_ISR(Recibir){
 163              		.loc 1 45 0
 164              		.cfi_startproc
 165              		@ args = 0, pretend = 0, frame = 0
 166              		@ frame_needed = 0, uses_anonymous_args = 0
 167 0000 08B5     		push	{r3, lr}
 168              		.cfi_def_cfa_offset 8
 169              		.cfi_offset 3, -8
 170              		.cfi_offset 14, -4
  46:main.c        **** 
  47:main.c        ****     recibir=UART_GetChar();
 171              		.loc 1 47 0
 172 0002 FFF7FEFF 		bl	UART_GetChar
 173              	.LVL14:
 174 0006 0E4B     		ldr	r3, .L17
 175 0008 1870     		strb	r0, [r3]
  48:main.c        ****  if(recibir=='a'){
 176              		.loc 1 48 0
 177 000a 6128     		cmp	r0, #97
 178 000c 02D1     		bne	.L11
  49:main.c        ****     canal=0;
 179              		.loc 1 49 0
ARM GAS  C:\Users\ESTEBAN\AppData\Local\Temp\ccT3HKR5.s 			page 5


 180 000e 0022     		movs	r2, #0
 181 0010 0C4B     		ldr	r3, .L17+4
 182 0012 1A60     		str	r2, [r3]
 183              	.L11:
  50:main.c        ****  }
  51:main.c        **** if(recibir=='b'){
 184              		.loc 1 51 0
 185 0014 6228     		cmp	r0, #98
 186 0016 02D1     		bne	.L12
  52:main.c        ****     canal=1;
 187              		.loc 1 52 0
 188 0018 0122     		movs	r2, #1
 189 001a 0A4B     		ldr	r3, .L17+4
 190 001c 1A60     		str	r2, [r3]
 191              	.L12:
  53:main.c        ****  }
  54:main.c        **** if(recibir=='c'){
 192              		.loc 1 54 0
 193 001e 6328     		cmp	r0, #99
 194 0020 02D1     		bne	.L13
  55:main.c        ****     canal=2;
 195              		.loc 1 55 0
 196 0022 0222     		movs	r2, #2
 197 0024 074B     		ldr	r3, .L17+4
 198 0026 1A60     		str	r2, [r3]
 199              	.L13:
  56:main.c        ****  }
  57:main.c        **** if(recibir=='d'){
 200              		.loc 1 57 0
 201 0028 6428     		cmp	r0, #100
 202 002a 02D1     		bne	.L14
  58:main.c        ****     canal=3;
 203              		.loc 1 58 0
 204 002c 0322     		movs	r2, #3
 205 002e 054B     		ldr	r3, .L17+4
 206 0030 1A60     		str	r2, [r3]
 207              	.L14:
  59:main.c        ****  }
  60:main.c        **** if(recibir=='e'){
 208              		.loc 1 60 0
 209 0032 6528     		cmp	r0, #101
 210 0034 02D1     		bne	.L10
  61:main.c        ****     canal=4;
 211              		.loc 1 61 0
 212 0036 0422     		movs	r2, #4
 213 0038 024B     		ldr	r3, .L17+4
 214 003a 1A60     		str	r2, [r3]
 215              	.L10:
 216 003c 08BD     		pop	{r3, pc}
 217              	.L18:
 218 003e 00BF     		.align	2
 219              	.L17:
 220 0040 00000000 		.word	recibir
 221 0044 00000000 		.word	.LANCHOR0
 222              		.cfi_endproc
 223              	.LFE65:
 224              		.size	Recibir, .-Recibir
ARM GAS  C:\Users\ESTEBAN\AppData\Local\Temp\ccT3HKR5.s 			page 6


 225              		.section	.text.main,"ax",%progbits
 226              		.align	2
 227              		.global	main
 228              		.thumb
 229              		.thumb_func
 230              		.type	main, %function
 231              	main:
 232              	.LFB66:
  62:main.c        ****  }
  63:main.c        **** 
  64:main.c        **** 
  65:main.c        **** }
  66:main.c        **** 
  67:main.c        **** 
  68:main.c        **** int main(void)
  69:main.c        **** {
 233              		.loc 1 69 0
 234              		.cfi_startproc
 235              		@ Volatile: function does not return.
 236              		@ args = 0, pretend = 0, frame = 0
 237              		@ frame_needed = 0, uses_anonymous_args = 0
 238 0000 08B5     		push	{r3, lr}
 239              		.cfi_def_cfa_offset 8
 240              		.cfi_offset 3, -8
 241              		.cfi_offset 14, -4
  70:main.c        ****     CyGlobalIntEnable; 
 242              		.loc 1 70 0
 243              		.syntax unified
 244              	@ 70 "main.c" 1
 245 0002 62B6     		CPSIE   i
 246              	@ 0 "" 2
  71:main.c        ****     PWM_Start();
 247              		.loc 1 71 0
 248              		.thumb
 249              		.syntax unified
 250 0004 FFF7FEFF 		bl	PWM_Start
 251              	.LVL15:
  72:main.c        ****     MUX_Start();
 252              		.loc 1 72 0
 253 0008 FFF7FEFF 		bl	MUX_Start
 254              	.LVL16:
  73:main.c        ****     UART_Start();
 255              		.loc 1 73 0
 256 000c FFF7FEFF 		bl	UART_Start
 257              	.LVL17:
  74:main.c        ****     ADC_Start();
 258              		.loc 1 74 0
 259 0010 FFF7FEFF 		bl	ADC_Start
 260              	.LVL18:
  75:main.c        ****     
  76:main.c        ****     isrRX_StartEx(Recibir);
 261              		.loc 1 76 0
 262 0014 2E48     		ldr	r0, .L22
 263 0016 FFF7FEFF 		bl	isrRX_StartEx
 264              	.LVL19:
  77:main.c        ****     isrEnvio_StartEx(Enviar);
 265              		.loc 1 77 0
ARM GAS  C:\Users\ESTEBAN\AppData\Local\Temp\ccT3HKR5.s 			page 7


 266 001a 2E48     		ldr	r0, .L22+4
 267 001c FFF7FEFF 		bl	isrEnvio_StartEx
 268              	.LVL20:
 269              	.L20:
  78:main.c        ****     for(;;)
  79:main.c        ****     {
  80:main.c        ****         MUX_FastSelect(0);
 270              		.loc 1 80 0 discriminator 1
 271 0020 0020     		movs	r0, #0
 272 0022 FFF7FEFF 		bl	MUX_FastSelect
 273              	.LVL21:
  81:main.c        ****         ADC_StartConvert();
 274              		.loc 1 81 0 discriminator 1
 275 0026 FFF7FEFF 		bl	ADC_StartConvert
 276              	.LVL22:
  82:main.c        ****         ADC_IsEndConversion(ADC_WAIT_FOR_RESULT);
 277              		.loc 1 82 0 discriminator 1
 278 002a 0020     		movs	r0, #0
 279 002c FFF7FEFF 		bl	ADC_IsEndConversion
 280              	.LVL23:
  83:main.c        ****         numero[0]=ADC_GetResult32();
 281              		.loc 1 83 0 discriminator 1
 282 0030 FFF7FEFF 		bl	ADC_GetResult32
 283              	.LVL24:
 284 0034 284C     		ldr	r4, .L22+8
 285 0036 2060     		str	r0, [r4]
  84:main.c        ****         ADC_StopConvert();
 286              		.loc 1 84 0 discriminator 1
 287 0038 FFF7FEFF 		bl	ADC_StopConvert
 288              	.LVL25:
  85:main.c        ****         
  86:main.c        ****         MUX_FastSelect(1);
 289              		.loc 1 86 0 discriminator 1
 290 003c 0120     		movs	r0, #1
 291 003e FFF7FEFF 		bl	MUX_FastSelect
 292              	.LVL26:
  87:main.c        ****         ADC_StartConvert();
 293              		.loc 1 87 0 discriminator 1
 294 0042 FFF7FEFF 		bl	ADC_StartConvert
 295              	.LVL27:
  88:main.c        ****         ADC_IsEndConversion(ADC_WAIT_FOR_RESULT);
 296              		.loc 1 88 0 discriminator 1
 297 0046 0020     		movs	r0, #0
 298 0048 FFF7FEFF 		bl	ADC_IsEndConversion
 299              	.LVL28:
  89:main.c        ****         numero[1]=ADC_GetResult32();
 300              		.loc 1 89 0 discriminator 1
 301 004c FFF7FEFF 		bl	ADC_GetResult32
 302              	.LVL29:
 303 0050 6060     		str	r0, [r4, #4]
  90:main.c        ****         ADC_StopConvert();
 304              		.loc 1 90 0 discriminator 1
 305 0052 FFF7FEFF 		bl	ADC_StopConvert
 306              	.LVL30:
  91:main.c        ****         
  92:main.c        ****         MUX_FastSelect(2);
 307              		.loc 1 92 0 discriminator 1
ARM GAS  C:\Users\ESTEBAN\AppData\Local\Temp\ccT3HKR5.s 			page 8


 308 0056 0220     		movs	r0, #2
 309 0058 FFF7FEFF 		bl	MUX_FastSelect
 310              	.LVL31:
  93:main.c        ****         ADC_StartConvert();
 311              		.loc 1 93 0 discriminator 1
 312 005c FFF7FEFF 		bl	ADC_StartConvert
 313              	.LVL32:
  94:main.c        ****         ADC_IsEndConversion(ADC_WAIT_FOR_RESULT);
 314              		.loc 1 94 0 discriminator 1
 315 0060 0020     		movs	r0, #0
 316 0062 FFF7FEFF 		bl	ADC_IsEndConversion
 317              	.LVL33:
  95:main.c        ****         numero[2]=ADC_GetResult32();
 318              		.loc 1 95 0 discriminator 1
 319 0066 FFF7FEFF 		bl	ADC_GetResult32
 320              	.LVL34:
 321 006a A060     		str	r0, [r4, #8]
  96:main.c        ****         ADC_StopConvert();
 322              		.loc 1 96 0 discriminator 1
 323 006c FFF7FEFF 		bl	ADC_StopConvert
 324              	.LVL35:
  97:main.c        ****         
  98:main.c        ****         MUX_FastSelect(3);
 325              		.loc 1 98 0 discriminator 1
 326 0070 0320     		movs	r0, #3
 327 0072 FFF7FEFF 		bl	MUX_FastSelect
 328              	.LVL36:
  99:main.c        ****         ADC_StartConvert();
 329              		.loc 1 99 0 discriminator 1
 330 0076 FFF7FEFF 		bl	ADC_StartConvert
 331              	.LVL37:
 100:main.c        ****         ADC_IsEndConversion(ADC_WAIT_FOR_RESULT);
 332              		.loc 1 100 0 discriminator 1
 333 007a 0020     		movs	r0, #0
 334 007c FFF7FEFF 		bl	ADC_IsEndConversion
 335              	.LVL38:
 101:main.c        ****         numero[3]=ADC_GetResult32();
 336              		.loc 1 101 0 discriminator 1
 337 0080 FFF7FEFF 		bl	ADC_GetResult32
 338              	.LVL39:
 339 0084 E060     		str	r0, [r4, #12]
 102:main.c        ****         ADC_StopConvert();
 340              		.loc 1 102 0 discriminator 1
 341 0086 FFF7FEFF 		bl	ADC_StopConvert
 342              	.LVL40:
 103:main.c        ****         
 104:main.c        ****         MUX_FastSelect(4);
 343              		.loc 1 104 0 discriminator 1
 344 008a 0420     		movs	r0, #4
 345 008c FFF7FEFF 		bl	MUX_FastSelect
 346              	.LVL41:
 105:main.c        ****         ADC_StartConvert();
 347              		.loc 1 105 0 discriminator 1
 348 0090 FFF7FEFF 		bl	ADC_StartConvert
 349              	.LVL42:
 106:main.c        ****         ADC_IsEndConversion(ADC_WAIT_FOR_RESULT);
 350              		.loc 1 106 0 discriminator 1
ARM GAS  C:\Users\ESTEBAN\AppData\Local\Temp\ccT3HKR5.s 			page 9


 351 0094 0020     		movs	r0, #0
 352 0096 FFF7FEFF 		bl	ADC_IsEndConversion
 353              	.LVL43:
 107:main.c        ****         numero[4]=ADC_GetResult32();
 354              		.loc 1 107 0 discriminator 1
 355 009a FFF7FEFF 		bl	ADC_GetResult32
 356              	.LVL44:
 357 009e 2061     		str	r0, [r4, #16]
 108:main.c        ****         ADC_StopConvert();
 358              		.loc 1 108 0 discriminator 1
 359 00a0 FFF7FEFF 		bl	ADC_StopConvert
 360              	.LVL45:
 109:main.c        ****         
 110:main.c        ****         voltiosADC[0]=ADC_CountsTo_Volts(numero[0]);
 361              		.loc 1 110 0 discriminator 1
 362 00a4 2068     		ldr	r0, [r4]
 363 00a6 FFF7FEFF 		bl	ADC_CountsTo_Volts
 364              	.LVL46:
 365 00aa 0C4D     		ldr	r5, .L22+12
 366 00ac 2860     		str	r0, [r5]	@ float
 111:main.c        ****         voltiosADC[1]=ADC_CountsTo_Volts(numero[1]);
 367              		.loc 1 111 0 discriminator 1
 368 00ae 6068     		ldr	r0, [r4, #4]
 369 00b0 FFF7FEFF 		bl	ADC_CountsTo_Volts
 370              	.LVL47:
 371 00b4 6860     		str	r0, [r5, #4]	@ float
 112:main.c        ****         voltiosADC[2]=ADC_CountsTo_Volts(numero[2]);
 372              		.loc 1 112 0 discriminator 1
 373 00b6 A068     		ldr	r0, [r4, #8]
 374 00b8 FFF7FEFF 		bl	ADC_CountsTo_Volts
 375              	.LVL48:
 376 00bc A860     		str	r0, [r5, #8]	@ float
 113:main.c        ****         voltiosADC[3]=ADC_CountsTo_Volts(numero[3]);
 377              		.loc 1 113 0 discriminator 1
 378 00be E068     		ldr	r0, [r4, #12]
 379 00c0 FFF7FEFF 		bl	ADC_CountsTo_Volts
 380              	.LVL49:
 381 00c4 E860     		str	r0, [r5, #12]	@ float
 114:main.c        ****         voltiosADC[4]=ADC_CountsTo_Volts(numero[4]);
 382              		.loc 1 114 0 discriminator 1
 383 00c6 2069     		ldr	r0, [r4, #16]
 384 00c8 FFF7FEFF 		bl	ADC_CountsTo_Volts
 385              	.LVL50:
 386 00cc 2861     		str	r0, [r5, #16]	@ float
 387 00ce A7E7     		b	.L20
 388              	.L23:
 389              		.align	2
 390              	.L22:
 391 00d0 00000000 		.word	Recibir
 392 00d4 00000000 		.word	Enviar
 393 00d8 00000000 		.word	numero
 394 00dc 00000000 		.word	voltiosADC
 395              		.cfi_endproc
 396              	.LFE66:
 397              		.size	main, .-main
 398              		.global	canal
 399              		.comm	recibir,1,1
ARM GAS  C:\Users\ESTEBAN\AppData\Local\Temp\ccT3HKR5.s 			page 10


 400              		.comm	publicar,12,4
 401              		.comm	voltiosADC,20,4
 402              		.comm	numero,20,4
 403              		.section	.rodata.str1.4,"aMS",%progbits,1
 404              		.align	2
 405              	.LC0:
 406 0000 25336420 		.ascii	"%3d \012 \015\000"
 406      0A200D00 
 407              	.LC1:
 408 0008 252E3366 		.ascii	"%.3f \012 \015\000"
 408      200A200D 
 408      00
 409              		.bss
 410              		.align	2
 411              		.set	.LANCHOR0,. + 0
 412              		.type	canal, %object
 413              		.size	canal, 4
 414              	canal:
 415 0000 00000000 		.space	4
 416              		.text
 417              	.Letext0:
 418              		.file 2 "c:\\program files (x86)\\cypress\\psoc creator\\4.2\\psoc creator\\import\\gnu\\arm\\5.4.
 419              		.file 3 "c:\\program files (x86)\\cypress\\psoc creator\\4.2\\psoc creator\\import\\gnu\\arm\\5.4.
 420              		.file 4 "Generated_Source\\PSoC5/cytypes.h"
 421              		.file 5 "Generated_Source\\PSoC5/core_cm3.h"
 422              		.file 6 "c:\\program files (x86)\\cypress\\psoc creator\\4.2\\psoc creator\\import\\gnu\\arm\\5.4.
 423              		.file 7 "Generated_Source\\PSoC5/UART.h"
 424              		.file 8 "Generated_Source\\PSoC5/PWM.h"
 425              		.file 9 "Generated_Source\\PSoC5/MUX.h"
 426              		.file 10 "Generated_Source\\PSoC5/ADC.h"
 427              		.file 11 "Generated_Source\\PSoC5/isrRX.h"
 428              		.file 12 "Generated_Source\\PSoC5/isrEnvio.h"