ARM GAS  C:\Users\ESTEBAN\AppData\Local\Temp\ccarh6t8.s 			page 1


   1              		.syntax unified
   2              		.cpu cortex-m3
   3              		.fpu softvfp
   4              		.eabi_attribute 20, 1
   5              		.eabi_attribute 21, 1
   6              		.eabi_attribute 23, 3
   7              		.eabi_attribute 24, 1
   8              		.eabi_attribute 25, 1
   9              		.eabi_attribute 26, 1
  10              		.eabi_attribute 30, 1
  11              		.eabi_attribute 34, 1
  12              		.eabi_attribute 18, 4
  13              		.thumb
  14              		.syntax unified
  15              		.file	"Display0.c"
  16              		.text
  17              	.Ltext0:
  18              		.cfi_sections	.debug_frame
  19              		.section	.text.Display0_DmaConfigure,"ax",%progbits
  20              		.align	2
  21              		.thumb
  22              		.thumb_func
  23              		.type	Display0_DmaConfigure, %function
  24              	Display0_DmaConfigure:
  25              	.LFB2:
  26              		.file 1 "Generated_Source\\PSoC5\\Display0.c"
   1:Generated_Source\PSoC5/Display0.c **** /*******************************************************************************
   2:Generated_Source\PSoC5/Display0.c **** * File Name: Display0.c
   3:Generated_Source\PSoC5/Display0.c **** * Version 2.30
   4:Generated_Source\PSoC5/Display0.c **** *
   5:Generated_Source\PSoC5/Display0.c **** * Description:
   6:Generated_Source\PSoC5/Display0.c **** *  This file provides the API source code for the Static Segment LCD component.
   7:Generated_Source\PSoC5/Display0.c **** *
   8:Generated_Source\PSoC5/Display0.c **** * Note:
   9:Generated_Source\PSoC5/Display0.c **** *
  10:Generated_Source\PSoC5/Display0.c **** ********************************************************************************
  11:Generated_Source\PSoC5/Display0.c **** * Copyright 2008-2013, Cypress Semiconductor Corporation.  All rights reserved.
  12:Generated_Source\PSoC5/Display0.c **** * You may use this file only in accordance with the license, terms, conditions,
  13:Generated_Source\PSoC5/Display0.c **** * disclaimers, and limitations in the end user license agreement accompanying
  14:Generated_Source\PSoC5/Display0.c **** * the software package with which this file was provided.
  15:Generated_Source\PSoC5/Display0.c **** *******************************************************************************/
  16:Generated_Source\PSoC5/Display0.c **** 
  17:Generated_Source\PSoC5/Display0.c **** #include "Display0.h"
  18:Generated_Source\PSoC5/Display0.c **** #include <Display0_InClock.h>
  19:Generated_Source\PSoC5/Display0.c **** #include <Display0_LCD_ISR.h>
  20:Generated_Source\PSoC5/Display0.c **** #include <Display0_Lcd_Dma_dma.h>
  21:Generated_Source\PSoC5/Display0.c **** 
  22:Generated_Source\PSoC5/Display0.c **** static uint8  Display0_DmaConfigure(void) CYREENTRANT;
  23:Generated_Source\PSoC5/Display0.c **** static void   Display0_DmaDispose(void) CYREENTRANT;
  24:Generated_Source\PSoC5/Display0.c **** 
  25:Generated_Source\PSoC5/Display0.c **** 
  26:Generated_Source\PSoC5/Display0.c **** /* Look-up tables for different kinds of displays */
  27:Generated_Source\PSoC5/Display0.c **** #ifdef Display0_7SEG
  28:Generated_Source\PSoC5/Display0.c **** 
  29:Generated_Source\PSoC5/Display0.c ****     static const uint8 CYCODE Display0_7SegDigits[] =
  30:Generated_Source\PSoC5/Display0.c ****     /* '0'   '1'    '2'    '3'    '4'    '5'    '6'    '7' */
  31:Generated_Source\PSoC5/Display0.c ****     {0x3fu, 0x06u, 0x5bu, 0x4fu, 0x66u, 0x6du, 0x7du, 0x07u,
ARM GAS  C:\Users\ESTEBAN\AppData\Local\Temp\ccarh6t8.s 			page 2


  32:Generated_Source\PSoC5/Display0.c ****     /* '8'  '9'    'A'    'B'    'C'    'D'    'E'    'F'   null */
  33:Generated_Source\PSoC5/Display0.c ****     0x7fu, 0x6fu, 0x77u, 0x7cu, 0x39u, 0x5eu, 0x79u, 0x71u, 0x00u};
  34:Generated_Source\PSoC5/Display0.c **** 
  35:Generated_Source\PSoC5/Display0.c **** #endif /* Display0_7SEG */
  36:Generated_Source\PSoC5/Display0.c **** 
  37:Generated_Source\PSoC5/Display0.c **** #ifdef ALPHANUMERIC
  38:Generated_Source\PSoC5/Display0.c **** 
  39:Generated_Source\PSoC5/Display0.c ****     #ifdef Display0_14SEG
  40:Generated_Source\PSoC5/Display0.c **** 
  41:Generated_Source\PSoC5/Display0.c ****         static const uint16 CYCODE Display0_14SegChars[] = {
  42:Generated_Source\PSoC5/Display0.c ****         /*------------------------------------------------------------*/
  43:Generated_Source\PSoC5/Display0.c ****         /*                           Blank                            */
  44:Generated_Source\PSoC5/Display0.c ****         /*------------------------------------------------------------*/
  45:Generated_Source\PSoC5/Display0.c ****         0x0000u,0x0000u,0x0000u,0x0000u,0x0000u,0x0000u,0x0000u,0x0000u,
  46:Generated_Source\PSoC5/Display0.c ****         0x0000u,0x0000u,0x0000u,0x0000u,0x0000u,0x0000u,0x0000u,0x0000u,
  47:Generated_Source\PSoC5/Display0.c ****         0x0000u,0x0000u,0x0000u,0x0000u,0x0000u,0x0000u,0x0000u,0x0000u,
  48:Generated_Source\PSoC5/Display0.c ****         0x0000u,0x0000u,0x0000u,0x0000u,0x0000u,0x0000u,0x0000u,0x0000u,
  49:Generated_Source\PSoC5/Display0.c ****         /*------------------------------------------------------------*/
  50:Generated_Source\PSoC5/Display0.c ****         /*         !       "       #       $       %       &       '  */
  51:Generated_Source\PSoC5/Display0.c ****         /*------------------------------------------------------------*/
  52:Generated_Source\PSoC5/Display0.c ****         0x0000u,0x0006u,0x0120u,0x3fffu,0x156du,0x2ee4u,0x2a8du,0x0200u,
  53:Generated_Source\PSoC5/Display0.c ****         /*------------------------------------------------------------*/
  54:Generated_Source\PSoC5/Display0.c ****         /* (       )       *       +       ,       -       .       /  */
  55:Generated_Source\PSoC5/Display0.c ****         /*------------------------------------------------------------*/
  56:Generated_Source\PSoC5/Display0.c ****         0x0a00u,0x2080u,0x3fc0u,0x1540u,0x2000u,0x0440u,0x1058u,0x2200u,
  57:Generated_Source\PSoC5/Display0.c ****         /*------------------------------------------------------------*/
  58:Generated_Source\PSoC5/Display0.c ****         /* 0       1       2       3       4       5       6       7  */
  59:Generated_Source\PSoC5/Display0.c ****         /*------------------------------------------------------------*/
  60:Generated_Source\PSoC5/Display0.c ****         0x223fu,0x0206u,0x045bu,0x040fu,0x0466u,0x0869u,0x047du,0x1201u,
  61:Generated_Source\PSoC5/Display0.c ****         /*------------------------------------------------------------*/
  62:Generated_Source\PSoC5/Display0.c ****         /* 8       9       :       ;       <       =       >       ?  */
  63:Generated_Source\PSoC5/Display0.c ****         /*------------------------------------------------------------*/
  64:Generated_Source\PSoC5/Display0.c ****         0x047fu,0x046fu,0x1100u,0x2100u,0x0a00u,0x0448u,0x2080u,0x1423u,
  65:Generated_Source\PSoC5/Display0.c ****         /*------------------------------------------------------------*/
  66:Generated_Source\PSoC5/Display0.c ****         /* @       A       B       C       D       E       F       G  */
  67:Generated_Source\PSoC5/Display0.c ****         /*------------------------------------------------------------*/
  68:Generated_Source\PSoC5/Display0.c ****         0x053bu,0x0477u,0x150fu,0x0039u,0x110Fu,0x0079u,0x0071u,0x043du,
  69:Generated_Source\PSoC5/Display0.c ****         /*------------------------------------------------------------*/
  70:Generated_Source\PSoC5/Display0.c ****         /* H       I       J       K       L       M       N       O  */
  71:Generated_Source\PSoC5/Display0.c ****         /*------------------------------------------------------------*/
  72:Generated_Source\PSoC5/Display0.c ****         0x0476u,0x1100u,0x001eu,0x0a70u,0x0038u,0x02b6u,0x08b6u,0x003fu,
  73:Generated_Source\PSoC5/Display0.c ****         /*------------------------------------------------------------*/
  74:Generated_Source\PSoC5/Display0.c ****         /* P       Q       R       S       T       U       V       W  */
  75:Generated_Source\PSoC5/Display0.c ****         /*------------------------------------------------------------*/
  76:Generated_Source\PSoC5/Display0.c ****         0x0473u,0x083fu,0x0C73u,0x046du,0x1101u,0x003eu,0x2230u,0x2836u,
  77:Generated_Source\PSoC5/Display0.c ****         /*------------------------------------------------------------*/
  78:Generated_Source\PSoC5/Display0.c ****         /* X       Y       Z       [       \       ]       ^       _  */
  79:Generated_Source\PSoC5/Display0.c ****         /*------------------------------------------------------------*/
  80:Generated_Source\PSoC5/Display0.c ****         0x2a80u,0x1462u,0x2209u,0x0039u,0x0880u,0x000fu,0x0003u,0x0008u,
  81:Generated_Source\PSoC5/Display0.c ****         /*------------------------------------------------------------*/
  82:Generated_Source\PSoC5/Display0.c ****         /* @       a       b       c       d       e       f       g  */
  83:Generated_Source\PSoC5/Display0.c ****         /*------------------------------------------------------------*/
  84:Generated_Source\PSoC5/Display0.c ****         0x053bu,0x0477u,0x150fu,0x0039u,0x110Fu,0x0079u,0x0071u,0x043du,
  85:Generated_Source\PSoC5/Display0.c ****         /*------------------------------------------------------------*/
  86:Generated_Source\PSoC5/Display0.c ****         /* h       i       j       k       l       m       n       o  */
  87:Generated_Source\PSoC5/Display0.c ****         /*------------------------------------------------------------*/
  88:Generated_Source\PSoC5/Display0.c ****         0x0476u,0x1100u,0x001eu,0x0a70u,0x0038u,0x02b6u,0x08b6u,0x003fu,
ARM GAS  C:\Users\ESTEBAN\AppData\Local\Temp\ccarh6t8.s 			page 3


  89:Generated_Source\PSoC5/Display0.c ****         /*------------------------------------------------------------*/
  90:Generated_Source\PSoC5/Display0.c ****         /* p       q       r       s       t       u       v       w  */
  91:Generated_Source\PSoC5/Display0.c ****         /*------------------------------------------------------------*/
  92:Generated_Source\PSoC5/Display0.c ****         0x0473u,0x083fu,0x0C73u,0x046du,0x1101u,0x003eu,0x2230u,0x2836u,
  93:Generated_Source\PSoC5/Display0.c ****         /*------------------------------------------------------------*/
  94:Generated_Source\PSoC5/Display0.c ****         /* x       y       z       {       |       }        ~      O  */
  95:Generated_Source\PSoC5/Display0.c ****         /*------------------------------------------------------------*/
  96:Generated_Source\PSoC5/Display0.c ****         0x2a80u,0x1280u,0x2209u,0x0e00u,0x1100u,0x20C0u,0x0452u,0x003fu};
  97:Generated_Source\PSoC5/Display0.c **** 
  98:Generated_Source\PSoC5/Display0.c ****     #endif /* Display0_14SEG */
  99:Generated_Source\PSoC5/Display0.c **** 
 100:Generated_Source\PSoC5/Display0.c ****     #ifdef Display0_16SEG
 101:Generated_Source\PSoC5/Display0.c **** 
 102:Generated_Source\PSoC5/Display0.c ****         static const uint16 CYCODE Display0_16SegChars[] = {
 103:Generated_Source\PSoC5/Display0.c ****         /*------------------------------------------------------------*/
 104:Generated_Source\PSoC5/Display0.c ****         /*                           Blank                            */
 105:Generated_Source\PSoC5/Display0.c ****         /*------------------------------------------------------------*/
 106:Generated_Source\PSoC5/Display0.c ****         0x0000u,0x0000u,0x0000u,0x0000u,0x0000u,0x0000u,0x0000u,0x0000u,
 107:Generated_Source\PSoC5/Display0.c ****         0x0000u,0x0000u,0x0000u,0x0000u,0x0000u,0x0000u,0x0000u,0x0000u,
 108:Generated_Source\PSoC5/Display0.c ****         0x0000u,0x0000u,0x0000u,0x0000u,0x0000u,0x0000u,0x0000u,0x0000u,
 109:Generated_Source\PSoC5/Display0.c ****         0x0000u,0x0000u,0x0000u,0x0000u,0x0000u,0x0000u,0x0000u,0x0000u,
 110:Generated_Source\PSoC5/Display0.c ****         /*------------------------------------------------------------*/
 111:Generated_Source\PSoC5/Display0.c ****         /*         !       "       #       $       %       &       '  */
 112:Generated_Source\PSoC5/Display0.c ****         /*------------------------------------------------------------*/
 113:Generated_Source\PSoC5/Display0.c ****         0x0000u,0x000cu,0x0480u,0xffffu,0x55bbu,0xdd99u,0xaa3bu,0x0800u,
 114:Generated_Source\PSoC5/Display0.c ****         /*------------------------------------------------------------*/
 115:Generated_Source\PSoC5/Display0.c ****         /* (       )       *       +       ,       -       .       /  */
 116:Generated_Source\PSoC5/Display0.c ****         /*------------------------------------------------------------*/
 117:Generated_Source\PSoC5/Display0.c ****         0x2800u,0x8200u,0xff00u,0x5500u,0x8000u,0x1100u,0x4160u,0x8800u,
 118:Generated_Source\PSoC5/Display0.c ****         /*------------------------------------------------------------*/
 119:Generated_Source\PSoC5/Display0.c ****         /* 0       1       2       3       4       5       6       7  */
 120:Generated_Source\PSoC5/Display0.c ****         /*------------------------------------------------------------*/
 121:Generated_Source\PSoC5/Display0.c ****         0x88ffu,0x000cu,0x1177u,0x103fu,0x118cu,0x21b3u,0x11fbu,0x4803u,
 122:Generated_Source\PSoC5/Display0.c ****         /*------------------------------------------------------------*/
 123:Generated_Source\PSoC5/Display0.c ****         /* 8       9       :       ;       <       =       >       ?  */
 124:Generated_Source\PSoC5/Display0.c ****         /*------------------------------------------------------------*/
 125:Generated_Source\PSoC5/Display0.c ****         0x11ffu,0x11bfu,0x4400u,0x8400u,0x2800u,0x1130u,0x8200u,0x5087u,
 126:Generated_Source\PSoC5/Display0.c ****         /*------------------------------------------------------------*/
 127:Generated_Source\PSoC5/Display0.c ****         /* @       A       B       C       D       E       F       G  */
 128:Generated_Source\PSoC5/Display0.c ****         /*------------------------------------------------------------*/
 129:Generated_Source\PSoC5/Display0.c ****         0x14f7u,0x11cfu,0x543fu,0x00f3u,0x443fu,0x01f3u,0x01c3u,0x10fbu,
 130:Generated_Source\PSoC5/Display0.c ****         /*------------------------------------------------------------*/
 131:Generated_Source\PSoC5/Display0.c ****         /* H       I       J       K       L       M       N       O  */
 132:Generated_Source\PSoC5/Display0.c ****         /*------------------------------------------------------------*/
 133:Generated_Source\PSoC5/Display0.c ****         0x11ccu,0x4400u,0x007eu,0x29c0u,0x00f0u,0x0accu,0x22ccu,0x00ffu,
 134:Generated_Source\PSoC5/Display0.c ****         /*------------------------------------------------------------*/
 135:Generated_Source\PSoC5/Display0.c ****         /* P       Q       R       S       T       U       V       W  */
 136:Generated_Source\PSoC5/Display0.c ****         /*------------------------------------------------------------*/
 137:Generated_Source\PSoC5/Display0.c ****         0x11c7u,0x20ffu,0x31c7u,0x11bbu,0x4403u,0x00fcu,0x88c0u,0xa0ccu,
 138:Generated_Source\PSoC5/Display0.c ****         /*------------------------------------------------------------*/
 139:Generated_Source\PSoC5/Display0.c ****         /* X       Y       Z       [       \       ]       ^       _  */
 140:Generated_Source\PSoC5/Display0.c ****         /*------------------------------------------------------------*/
 141:Generated_Source\PSoC5/Display0.c ****         0xaa00u,0x5184u,0x8833u,0x4412u,0x2200u,0x4421u,0x0006u,0x0030u,
 142:Generated_Source\PSoC5/Display0.c ****         /*------------------------------------------------------------*/
 143:Generated_Source\PSoC5/Display0.c ****         /* @       a       b       c       d       e       f       g  */
 144:Generated_Source\PSoC5/Display0.c ****         /*------------------------------------------------------------*/
 145:Generated_Source\PSoC5/Display0.c ****         0x14f7u,0x11cfu,0x543fu,0x00f3u,0x443fu,0x01f3u,0x01c3u,0x10fbu,
ARM GAS  C:\Users\ESTEBAN\AppData\Local\Temp\ccarh6t8.s 			page 4


 146:Generated_Source\PSoC5/Display0.c ****         /*------------------------------------------------------------*/
 147:Generated_Source\PSoC5/Display0.c ****         /* h       i       j       k       l       m       n       o  */
 148:Generated_Source\PSoC5/Display0.c ****         /*------------------------------------------------------------*/
 149:Generated_Source\PSoC5/Display0.c ****         0x11ccu,0x4400u,0x007eu,0x29c0u,0x00f0u,0x0accu,0x22ccu,0x00ffu,
 150:Generated_Source\PSoC5/Display0.c ****         /*------------------------------------------------------------*/
 151:Generated_Source\PSoC5/Display0.c ****         /* p       q       r       s       t       u       v       w  */
 152:Generated_Source\PSoC5/Display0.c ****         /*------------------------------------------------------------*/
 153:Generated_Source\PSoC5/Display0.c ****         0x11c7u,0x20ffu,0x31c7u,0x11bbu,0x4403u,0x00fcu,0x88c0u,0xa0ccu,
 154:Generated_Source\PSoC5/Display0.c ****         /*------------------------------------------------------------*/
 155:Generated_Source\PSoC5/Display0.c ****         /* x       y       z       {       |       }        ~         */
 156:Generated_Source\PSoC5/Display0.c ****         /*------------------------------------------------------------*/
 157:Generated_Source\PSoC5/Display0.c ****         0xaa00u,0x4A00u,0x8833u,0x3800u,0x4400u,0x8300u,0x1144u,0x0000u};
 158:Generated_Source\PSoC5/Display0.c **** 
 159:Generated_Source\PSoC5/Display0.c ****     #endif /* Display0_16SEG */
 160:Generated_Source\PSoC5/Display0.c **** 
 161:Generated_Source\PSoC5/Display0.c **** #endif /* ALPHANUMERIC */
 162:Generated_Source\PSoC5/Display0.c **** 
 163:Generated_Source\PSoC5/Display0.c **** /* Frame Buffer */
 164:Generated_Source\PSoC5/Display0.c **** static uint8 Display0_buffer[Display0_BUFFER_LENGTH] ;
 165:Generated_Source\PSoC5/Display0.c **** 
 166:Generated_Source\PSoC5/Display0.c **** /* Array of common port TDs */
 167:Generated_Source\PSoC5/Display0.c **** static uint8 Display0_lcdTd[Display0_LCD_TD_SIZE * Display0_COMM_NUM];
 168:Generated_Source\PSoC5/Display0.c **** 
 169:Generated_Source\PSoC5/Display0.c **** /* DMA channel dedicated for SegLCD commons */
 170:Generated_Source\PSoC5/Display0.c **** static uint8 Display0_lcdChannel;
 171:Generated_Source\PSoC5/Display0.c **** 
 172:Generated_Source\PSoC5/Display0.c **** uint8 Display0_initVar = 0u;
 173:Generated_Source\PSoC5/Display0.c **** 
 174:Generated_Source\PSoC5/Display0.c **** /* Saves state of the component if it turned on or off */
 175:Generated_Source\PSoC5/Display0.c **** uint8 Display0_enableState = 0u;
 176:Generated_Source\PSoC5/Display0.c **** 
 177:Generated_Source\PSoC5/Display0.c **** /* Start of customizer generated code */
 178:Generated_Source\PSoC5/Display0.c **** 
 179:Generated_Source\PSoC5/Display0.c **** static uint16 CYCODE Display0_commons[1u] = {Display0_Com0};
 180:Generated_Source\PSoC5/Display0.c **** 
 181:Generated_Source\PSoC5/Display0.c **** 
 182:Generated_Source\PSoC5/Display0.c **** /*******************************************************************************
 183:Generated_Source\PSoC5/Display0.c **** * Function Name: Display0_Init
 184:Generated_Source\PSoC5/Display0.c **** ********************************************************************************
 185:Generated_Source\PSoC5/Display0.c **** *
 186:Generated_Source\PSoC5/Display0.c **** * Summary:
 187:Generated_Source\PSoC5/Display0.c **** *  Configures every-frame ISR and initializes a Frame Buffer.
 188:Generated_Source\PSoC5/Display0.c **** *
 189:Generated_Source\PSoC5/Display0.c **** * Parameters:
 190:Generated_Source\PSoC5/Display0.c **** *  None.
 191:Generated_Source\PSoC5/Display0.c **** *
 192:Generated_Source\PSoC5/Display0.c **** * Return:
 193:Generated_Source\PSoC5/Display0.c **** *  None.
 194:Generated_Source\PSoC5/Display0.c **** *
 195:Generated_Source\PSoC5/Display0.c **** * Reentrant:
 196:Generated_Source\PSoC5/Display0.c **** *  No.
 197:Generated_Source\PSoC5/Display0.c **** *
 198:Generated_Source\PSoC5/Display0.c **** *******************************************************************************/
 199:Generated_Source\PSoC5/Display0.c **** void Display0_Init(void) 
 200:Generated_Source\PSoC5/Display0.c **** {
 201:Generated_Source\PSoC5/Display0.c ****     Display0_ClearDisplay();
 202:Generated_Source\PSoC5/Display0.c **** 
ARM GAS  C:\Users\ESTEBAN\AppData\Local\Temp\ccarh6t8.s 			page 5


 203:Generated_Source\PSoC5/Display0.c ****     /*ISR initialization */
 204:Generated_Source\PSoC5/Display0.c ****     CyIntDisable(Display0_ISR_NUMBER);
 205:Generated_Source\PSoC5/Display0.c **** 
 206:Generated_Source\PSoC5/Display0.c ****     /* Set the ISR to point to the RTC_SUT_isr Interrupt. */
 207:Generated_Source\PSoC5/Display0.c ****     (void) CyIntSetVector(Display0_ISR_NUMBER, &Display0_ISR);
 208:Generated_Source\PSoC5/Display0.c **** 
 209:Generated_Source\PSoC5/Display0.c ****     /* Set the priority. */
 210:Generated_Source\PSoC5/Display0.c ****     CyIntSetPriority(Display0_ISR_NUMBER, Display0_ISR_PRIORITY);
 211:Generated_Source\PSoC5/Display0.c **** }
 212:Generated_Source\PSoC5/Display0.c **** 
 213:Generated_Source\PSoC5/Display0.c **** 
 214:Generated_Source\PSoC5/Display0.c **** /*******************************************************************************
 215:Generated_Source\PSoC5/Display0.c **** * Function Name: Display0_Enable
 216:Generated_Source\PSoC5/Display0.c **** ********************************************************************************
 217:Generated_Source\PSoC5/Display0.c **** *
 218:Generated_Source\PSoC5/Display0.c **** * Summary:
 219:Generated_Source\PSoC5/Display0.c **** *  Enables clock generation for the component and configures DMA channels.
 220:Generated_Source\PSoC5/Display0.c **** *
 221:Generated_Source\PSoC5/Display0.c **** * Parameters:
 222:Generated_Source\PSoC5/Display0.c **** *  None.
 223:Generated_Source\PSoC5/Display0.c **** *
 224:Generated_Source\PSoC5/Display0.c **** * Return:
 225:Generated_Source\PSoC5/Display0.c **** *  Status one of standard status for PSoC3 Component:
 226:Generated_Source\PSoC5/Display0.c **** *      CYRET_SUCCESS - Function completed successfully.
 227:Generated_Source\PSoC5/Display0.c **** *      CYRET_LOCKED - The object was locked, already in use. Some of TDs or
 228:Generated_Source\PSoC5/Display0.c **** *                     a channel already in use.
 229:Generated_Source\PSoC5/Display0.c **** *
 230:Generated_Source\PSoC5/Display0.c **** * Global variables:
 231:Generated_Source\PSoC5/Display0.c **** *  Display0_enableState - Initializes variable to '1', it means that
 232:Generated_Source\PSoC5/Display0.c **** *  the component was initialized and enabled before entering into a Sleep.
 233:Generated_Source\PSoC5/Display0.c **** *
 234:Generated_Source\PSoC5/Display0.c **** * Reentrant:
 235:Generated_Source\PSoC5/Display0.c **** *  No.
 236:Generated_Source\PSoC5/Display0.c **** *
 237:Generated_Source\PSoC5/Display0.c **** *******************************************************************************/
 238:Generated_Source\PSoC5/Display0.c **** uint8 Display0_Enable(void) 
 239:Generated_Source\PSoC5/Display0.c **** {
 240:Generated_Source\PSoC5/Display0.c ****     uint8 status;
 241:Generated_Source\PSoC5/Display0.c **** 
 242:Generated_Source\PSoC5/Display0.c ****     /* Configure DMA TDs and return status */
 243:Generated_Source\PSoC5/Display0.c ****     status = Display0_DmaConfigure();
 244:Generated_Source\PSoC5/Display0.c **** 
 245:Generated_Source\PSoC5/Display0.c ****     /* Enable Internal clock */
 246:Generated_Source\PSoC5/Display0.c ****     Display0_InClock_Enable();
 247:Generated_Source\PSoC5/Display0.c **** 
 248:Generated_Source\PSoC5/Display0.c ****     /* The component is started so set the state appropriately */
 249:Generated_Source\PSoC5/Display0.c ****     Display0_enableState = 1u;
 250:Generated_Source\PSoC5/Display0.c **** 
 251:Generated_Source\PSoC5/Display0.c ****     return(status);
 252:Generated_Source\PSoC5/Display0.c **** }
 253:Generated_Source\PSoC5/Display0.c **** 
 254:Generated_Source\PSoC5/Display0.c **** 
 255:Generated_Source\PSoC5/Display0.c **** /*******************************************************************************
 256:Generated_Source\PSoC5/Display0.c **** * Function Name: Display0_DmaConfigure
 257:Generated_Source\PSoC5/Display0.c **** ********************************************************************************
 258:Generated_Source\PSoC5/Display0.c **** *
 259:Generated_Source\PSoC5/Display0.c **** * Summary:
ARM GAS  C:\Users\ESTEBAN\AppData\Local\Temp\ccarh6t8.s 			page 6


 260:Generated_Source\PSoC5/Display0.c **** *  Configures DMA to transfer data from the frame buffer to port alliased
 261:Generated_Source\PSoC5/Display0.c **** *  memory.
 262:Generated_Source\PSoC5/Display0.c **** *
 263:Generated_Source\PSoC5/Display0.c **** * Parameters:
 264:Generated_Source\PSoC5/Display0.c **** *  None.
 265:Generated_Source\PSoC5/Display0.c **** *
 266:Generated_Source\PSoC5/Display0.c **** * Return:
 267:Generated_Source\PSoC5/Display0.c **** *  Status one of standard status for PSoC3 Component
 268:Generated_Source\PSoC5/Display0.c **** *      CYRET_SUCCESS - Function completed successfully.
 269:Generated_Source\PSoC5/Display0.c **** *      CYRET_LOCKED - The object was locked, already in use. Some of TDs or
 270:Generated_Source\PSoC5/Display0.c **** *                     a channel already in use.
 271:Generated_Source\PSoC5/Display0.c **** *
 272:Generated_Source\PSoC5/Display0.c **** * Global variables:
 273:Generated_Source\PSoC5/Display0.c **** * Display0_lcdTd[] - used to store a set of allocated TD IDs that are
 274:Generated_Source\PSoC5/Display0.c **** *  used by this component.
 275:Generated_Source\PSoC5/Display0.c **** *
 276:Generated_Source\PSoC5/Display0.c **** *  Display0_lcdChannel - stores a DMA Channel allocated for an LCD usage.
 277:Generated_Source\PSoC5/Display0.c **** *
 278:Generated_Source\PSoC5/Display0.c **** *  Display0_termOut - used as a parameter for LCD DMA configuration API
 279:Generated_Source\PSoC5/Display0.c **** *  to select proper TermOut signal that was previously calculated.
 280:Generated_Source\PSoC5/Display0.c **** *
 281:Generated_Source\PSoC5/Display0.c **** *  Display0LcdPort_DMA_TD_PROTO_BLOCK[] - used as a parameter for DMA
 282:Generated_Source\PSoC5/Display0.c **** *  configuration API.
 283:Generated_Source\PSoC5/Display0.c **** *
 284:Generated_Source\PSoC5/Display0.c **** * Reentrant:
 285:Generated_Source\PSoC5/Display0.c **** *  No.
 286:Generated_Source\PSoC5/Display0.c **** *
 287:Generated_Source\PSoC5/Display0.c **** *******************************************************************************/
 288:Generated_Source\PSoC5/Display0.c **** static uint8 Display0_DmaConfigure(void) CYREENTRANT
 289:Generated_Source\PSoC5/Display0.c **** {
  27              		.loc 1 289 0
  28              		.cfi_startproc
  29              		@ args = 0, pretend = 0, frame = 0
  30              		@ frame_needed = 0, uses_anonymous_args = 0
  31 0000 2DE9F843 		push	{r3, r4, r5, r6, r7, r8, r9, lr}
  32              		.cfi_def_cfa_offset 32
  33              		.cfi_offset 3, -32
  34              		.cfi_offset 4, -28
  35              		.cfi_offset 5, -24
  36              		.cfi_offset 6, -20
  37              		.cfi_offset 7, -16
  38              		.cfi_offset 8, -12
  39              		.cfi_offset 9, -8
  40              		.cfi_offset 14, -4
  41              	.LVL0:
 290:Generated_Source\PSoC5/Display0.c ****     uint8 status = CYRET_LOCKED;
 291:Generated_Source\PSoC5/Display0.c ****     uint8 i;
 292:Generated_Source\PSoC5/Display0.c ****     uint8 j;
 293:Generated_Source\PSoC5/Display0.c ****     uint8 errorCnt = 0u;
 294:Generated_Source\PSoC5/Display0.c ****     uint32 srcAddr;
 295:Generated_Source\PSoC5/Display0.c ****     uint32 dstAddr;
 296:Generated_Source\PSoC5/Display0.c ****     uint8 comTdCount;
 297:Generated_Source\PSoC5/Display0.c ****     /* DMA_PROTO_TD_DEF */
 298:Generated_Source\PSoC5/Display0.c ****     static const struct Display0_DMA_TD_PROTO_ENTRY CYCODE Display0_StSegLcdPort_DMA_TD_PROTO_BLOCK
 299:Generated_Source\PSoC5/Display0.c ****     {
 300:Generated_Source\PSoC5/Display0.c ****         {1u, 1u},
 301:Generated_Source\PSoC5/Display0.c ****     };
ARM GAS  C:\Users\ESTEBAN\AppData\Local\Temp\ccarh6t8.s 			page 7


 302:Generated_Source\PSoC5/Display0.c **** 
 303:Generated_Source\PSoC5/Display0.c ****     /* Display0_termOut selects signal which triggers
 304:Generated_Source\PSoC5/Display0.c ****     * LCD every frame interrupt.
 305:Generated_Source\PSoC5/Display0.c ****     */
 306:Generated_Source\PSoC5/Display0.c ****     static uint8 Display0_termOut = (Display0_Lcd_Dma__TERMOUT0_EN ? TD_TERMOUT0_EN : 0u) |
 307:Generated_Source\PSoC5/Display0.c ****                                  (Display0_Lcd_Dma__TERMOUT1_EN ? TD_TERMOUT1_EN : 0u);
 308:Generated_Source\PSoC5/Display0.c **** 
 309:Generated_Source\PSoC5/Display0.c ****     /* Get addressed of source and destination for DMA transactions */
 310:Generated_Source\PSoC5/Display0.c ****     srcAddr = Display0_DMA_ADDRESS_MASK & ((uint32) Display0_buffer);
  42              		.loc 1 310 0
  43 0004 434F     		ldr	r7, .L19
  44              	.LVL1:
 311:Generated_Source\PSoC5/Display0.c ****     dstAddr = Display0_DMA_ADDRESS_MASK & Display0_ALIASED_AREA_PTR;
 312:Generated_Source\PSoC5/Display0.c **** 
 313:Generated_Source\PSoC5/Display0.c ****     /* Allocate DMA channel */
 314:Generated_Source\PSoC5/Display0.c ****     Display0_lcdChannel = Display0_Lcd_Dma_DmaInitialize(0u, 0u, HI16(srcAddr), HI16(dstAddr));
  45              		.loc 1 314 0
  46 0006 4FF48043 		mov	r3, #16384
  47 000a 3A0C     		lsrs	r2, r7, #16
  48 000c 0021     		movs	r1, #0
  49 000e 0846     		mov	r0, r1
  50 0010 FFF7FEFF 		bl	Display0_Lcd_Dma_DmaInitialize
  51              	.LVL2:
  52 0014 87F82000 		strb	r0, [r7, #32]
 315:Generated_Source\PSoC5/Display0.c **** 
 316:Generated_Source\PSoC5/Display0.c ****     /* Check if the channel is valid */
 317:Generated_Source\PSoC5/Display0.c ****     if(Display0_lcdChannel == DMA_INVALID_CHANNEL)
  53              		.loc 1 317 0
  54 0018 FF28     		cmp	r0, #255
  55 001a 01D0     		beq	.L14
 293:Generated_Source\PSoC5/Display0.c ****     uint32 srcAddr;
  56              		.loc 1 293 0
  57 001c 0026     		movs	r6, #0
  58 001e 00E0     		b	.L2
  59              	.L14:
 318:Generated_Source\PSoC5/Display0.c ****     {
 319:Generated_Source\PSoC5/Display0.c ****         errorCnt++;
  60              		.loc 1 319 0
  61 0020 0126     		movs	r6, #1
  62              	.L2:
  63 0022 4FF00008 		mov	r8, #0
  64 0026 15E0     		b	.L3
  65              	.LVL3:
  66              	.L5:
 320:Generated_Source\PSoC5/Display0.c ****     }
 321:Generated_Source\PSoC5/Display0.c **** 
 322:Generated_Source\PSoC5/Display0.c ****     /* Allocate required number of DMA TDs */
 323:Generated_Source\PSoC5/Display0.c ****     for(j = 0u; j < Display0_COMM_NUM; j++)
 324:Generated_Source\PSoC5/Display0.c ****     {
 325:Generated_Source\PSoC5/Display0.c ****         for(i = 0u; i < Display0_LCD_TD_SIZE; i++)
 326:Generated_Source\PSoC5/Display0.c ****         {
 327:Generated_Source\PSoC5/Display0.c ****             Display0_lcdTd[(j * Display0_LCD_TD_SIZE) + i] = CyDmaTdAllocate();
  67              		.loc 1 327 0
  68 0028 04EB0805 		add	r5, r4, r8
  69 002c FFF7FEFF 		bl	CyDmaTdAllocate
  70              	.LVL4:
  71 0030 384B     		ldr	r3, .L19
ARM GAS  C:\Users\ESTEBAN\AppData\Local\Temp\ccarh6t8.s 			page 8


  72 0032 1D44     		add	r5, r5, r3
  73 0034 85F82400 		strb	r0, [r5, #36]
 328:Generated_Source\PSoC5/Display0.c ****             if(Display0_lcdTd[(j * Display0_LCD_TD_SIZE) + i] == DMA_INVALID_TD)
  74              		.loc 1 328 0
  75 0038 FF28     		cmp	r0, #255
  76 003a 01D1     		bne	.L4
 329:Generated_Source\PSoC5/Display0.c ****             {
 330:Generated_Source\PSoC5/Display0.c ****                 errorCnt++;
  77              		.loc 1 330 0
  78 003c 0136     		adds	r6, r6, #1
  79              	.LVL5:
  80 003e F6B2     		uxtb	r6, r6
  81              	.LVL6:
  82              	.L4:
 325:Generated_Source\PSoC5/Display0.c ****         {
  83              		.loc 1 325 0 discriminator 2
  84 0040 0134     		adds	r4, r4, #1
  85              	.LVL7:
  86 0042 E4B2     		uxtb	r4, r4
  87              	.LVL8:
  88 0044 00E0     		b	.L6
  89              	.LVL9:
  90              	.L15:
  91 0046 0024     		movs	r4, #0
  92              	.L6:
  93              	.LVL10:
 325:Generated_Source\PSoC5/Display0.c ****         {
  94              		.loc 1 325 0 is_stmt 0 discriminator 1
  95 0048 002C     		cmp	r4, #0
  96 004a EDD0     		beq	.L5
 323:Generated_Source\PSoC5/Display0.c ****     {
  97              		.loc 1 323 0 is_stmt 1 discriminator 2
  98 004c 08F10108 		add	r8, r8, #1
  99              	.LVL11:
 100 0050 5FFA88F8 		uxtb	r8, r8
 101              	.LVL12:
 102              	.L3:
 323:Generated_Source\PSoC5/Display0.c ****     {
 103              		.loc 1 323 0 is_stmt 0 discriminator 1
 104 0054 B8F1010F 		cmp	r8, #1
 105 0058 F5D9     		bls	.L15
 106 005a 4FF00008 		mov	r8, #0
 107              	.LVL13:
 108 005e 42E0     		b	.L7
 109              	.LVL14:
 110              	.L11:
 331:Generated_Source\PSoC5/Display0.c ****             }
 332:Generated_Source\PSoC5/Display0.c ****         }
 333:Generated_Source\PSoC5/Display0.c ****     }
 334:Generated_Source\PSoC5/Display0.c **** 
 335:Generated_Source\PSoC5/Display0.c ****     /* comTdCount stores the number of TDs allocated for this configuration */
 336:Generated_Source\PSoC5/Display0.c ****     comTdCount = (Display0_COMM_NUM * Display0_LCD_TD_SIZE);
 337:Generated_Source\PSoC5/Display0.c **** 
 338:Generated_Source\PSoC5/Display0.c ****     /* TD configuration loop */
 339:Generated_Source\PSoC5/Display0.c ****     for(j = 0u; j < Display0_COMM_NUM; j++)
 340:Generated_Source\PSoC5/Display0.c ****     {
 341:Generated_Source\PSoC5/Display0.c ****         for(i = 0u; i < Display0_LCD_TD_SIZE; i++)
ARM GAS  C:\Users\ESTEBAN\AppData\Local\Temp\ccarh6t8.s 			page 9


 342:Generated_Source\PSoC5/Display0.c ****         {
 343:Generated_Source\PSoC5/Display0.c ****             /* The last TD need to point to TD[0] */
 344:Generated_Source\PSoC5/Display0.c ****             if(((j * Display0_LCD_TD_SIZE) + i) == (comTdCount - 1u))
 111              		.loc 1 344 0 is_stmt 1
 112 0060 A146     		mov	r9, r4
 113 0062 08EB0405 		add	r5, r8, r4
 114 0066 012D     		cmp	r5, #1
 115 0068 0AD1     		bne	.L8
 345:Generated_Source\PSoC5/Display0.c ****             {
 346:Generated_Source\PSoC5/Display0.c ****                 (void) CyDmaTdSetConfiguration(Display0_lcdTd[(j * Display0_LCD_TD_SIZE) + i],
 116              		.loc 1 346 0
 117 006a 2A4A     		ldr	r2, .L19
 118 006c 5019     		adds	r0, r2, r5
 119 006e 0723     		movs	r3, #7
 120 0070 92F82420 		ldrb	r2, [r2, #36]	@ zero_extendqisi2
 121 0074 0121     		movs	r1, #1
 122 0076 90F82400 		ldrb	r0, [r0, #36]	@ zero_extendqisi2
 123 007a FFF7FEFF 		bl	CyDmaTdSetConfiguration
 124              	.LVL15:
 125 007e 19E0     		b	.L9
 126              	.L8:
 347:Generated_Source\PSoC5/Display0.c ****                                         (uint16) Display0_StSegLcdPort_DMA_TD_PROTO_BLOCK[i].length
 348:Generated_Source\PSoC5/Display0.c ****                                         Display0_lcdTd[0u],
 349:Generated_Source\PSoC5/Display0.c ****                                         TD_INC_DST_ADR | TD_INC_SRC_ADR | Display0_termOut);
 350:Generated_Source\PSoC5/Display0.c ****             }
 351:Generated_Source\PSoC5/Display0.c ****             /* Last TD in the row should generate an interrupt signal */
 352:Generated_Source\PSoC5/Display0.c ****             else if(i == (Display0_LCD_TD_SIZE - 1u))
 127              		.loc 1 352 0
 128 0080 64B9     		cbnz	r4, .L10
 353:Generated_Source\PSoC5/Display0.c ****             {
 354:Generated_Source\PSoC5/Display0.c ****                 (void) CyDmaTdSetConfiguration(Display0_lcdTd[(j * Display0_LCD_TD_SIZE) + i],
 129              		.loc 1 354 0
 130 0082 244A     		ldr	r2, .L19
 131 0084 5019     		adds	r0, r2, r5
 355:Generated_Source\PSoC5/Display0.c ****                                         (uint16) Display0_StSegLcdPort_DMA_TD_PROTO_BLOCK[i].length
 356:Generated_Source\PSoC5/Display0.c ****                                         Display0_lcdTd[(j * Display0_LCD_TD_SIZE) + i + 1u],
 132              		.loc 1 356 0
 133 0086 6B1C     		adds	r3, r5, #1
 354:Generated_Source\PSoC5/Display0.c ****                                         (uint16) Display0_StSegLcdPort_DMA_TD_PROTO_BLOCK[i].length
 134              		.loc 1 354 0
 135 0088 1A44     		add	r2, r2, r3
 136 008a 0723     		movs	r3, #7
 137 008c 92F82420 		ldrb	r2, [r2, #36]	@ zero_extendqisi2
 138 0090 0121     		movs	r1, #1
 139 0092 90F82400 		ldrb	r0, [r0, #36]	@ zero_extendqisi2
 140 0096 FFF7FEFF 		bl	CyDmaTdSetConfiguration
 141              	.LVL16:
 142 009a 0BE0     		b	.L9
 143              	.L10:
 357:Generated_Source\PSoC5/Display0.c ****                                         TD_INC_DST_ADR | TD_INC_SRC_ADR | Display0_termOut);
 358:Generated_Source\PSoC5/Display0.c ****             }
 359:Generated_Source\PSoC5/Display0.c ****             else
 360:Generated_Source\PSoC5/Display0.c ****             {
 361:Generated_Source\PSoC5/Display0.c ****                 /* If this is not the last TD in the row it should automatically
 362:Generated_Source\PSoC5/Display0.c ****                 * next standing TDs.
 363:Generated_Source\PSoC5/Display0.c ****                 */
 364:Generated_Source\PSoC5/Display0.c ****                (void) CyDmaTdSetConfiguration(Display0_lcdTd[(j * Display0_LCD_TD_SIZE) + i],
ARM GAS  C:\Users\ESTEBAN\AppData\Local\Temp\ccarh6t8.s 			page 10


 144              		.loc 1 364 0
 145 009c 1D4A     		ldr	r2, .L19
 146 009e 5019     		adds	r0, r2, r5
 365:Generated_Source\PSoC5/Display0.c ****                                         (uint16) Display0_StSegLcdPort_DMA_TD_PROTO_BLOCK[i].length
 366:Generated_Source\PSoC5/Display0.c ****                                         Display0_lcdTd[(j * Display0_LCD_TD_SIZE) + i + 1u],
 147              		.loc 1 366 0
 148 00a0 6B1C     		adds	r3, r5, #1
 364:Generated_Source\PSoC5/Display0.c ****                                         (uint16) Display0_StSegLcdPort_DMA_TD_PROTO_BLOCK[i].length
 149              		.loc 1 364 0
 150 00a2 1A44     		add	r2, r2, r3
 151 00a4 2323     		movs	r3, #35
 152 00a6 92F82420 		ldrb	r2, [r2, #36]	@ zero_extendqisi2
 153 00aa 0121     		movs	r1, #1
 154 00ac 90F82400 		ldrb	r0, [r0, #36]	@ zero_extendqisi2
 155 00b0 FFF7FEFF 		bl	CyDmaTdSetConfiguration
 156              	.LVL17:
 157              	.L9:
 367:Generated_Source\PSoC5/Display0.c ****                                         TD_INC_DST_ADR | TD_INC_SRC_ADR | TD_AUTO_EXEC_NEXT);
 368:Generated_Source\PSoC5/Display0.c ****             }
 369:Generated_Source\PSoC5/Display0.c **** 
 370:Generated_Source\PSoC5/Display0.c ****             /* Set the low 16 bits of the source and destination addresses
 371:Generated_Source\PSoC5/Display0.c ****             * for TDs.
 372:Generated_Source\PSoC5/Display0.c ****             */
 373:Generated_Source\PSoC5/Display0.c ****             (void) CyDmaTdSetAddress(Display0_lcdTd[(j * Display0_LCD_TD_SIZE) + i],
 158              		.loc 1 373 0 discriminator 2
 159 00b4 174B     		ldr	r3, .L19
 160 00b6 1D44     		add	r5, r5, r3
 161 00b8 174B     		ldr	r3, .L19+4
 162 00ba 13F81920 		ldrb	r2, [r3, r9, lsl #1]	@ zero_extendqisi2
 163 00be 07EB0811 		add	r1, r7, r8, lsl #4
 164 00c2 1144     		add	r1, r1, r2
 165 00c4 02F5A142 		add	r2, r2, #20608
 166 00c8 89B2     		uxth	r1, r1
 167 00ca 95F82400 		ldrb	r0, [r5, #36]	@ zero_extendqisi2
 168 00ce FFF7FEFF 		bl	CyDmaTdSetAddress
 169              	.LVL18:
 341:Generated_Source\PSoC5/Display0.c ****         {
 170              		.loc 1 341 0 discriminator 2
 171 00d2 0134     		adds	r4, r4, #1
 172              	.LVL19:
 173 00d4 E4B2     		uxtb	r4, r4
 174              	.LVL20:
 175 00d6 00E0     		b	.L12
 176              	.LVL21:
 177              	.L16:
 178 00d8 0024     		movs	r4, #0
 179              	.L12:
 180              	.LVL22:
 341:Generated_Source\PSoC5/Display0.c ****         {
 181              		.loc 1 341 0 is_stmt 0 discriminator 1
 182 00da 002C     		cmp	r4, #0
 183 00dc C0D0     		beq	.L11
 339:Generated_Source\PSoC5/Display0.c ****     {
 184              		.loc 1 339 0 is_stmt 1 discriminator 2
 185 00de 08F10108 		add	r8, r8, #1
 186              	.LVL23:
 187 00e2 5FFA88F8 		uxtb	r8, r8
ARM GAS  C:\Users\ESTEBAN\AppData\Local\Temp\ccarh6t8.s 			page 11


 188              	.LVL24:
 189              	.L7:
 339:Generated_Source\PSoC5/Display0.c ****     {
 190              		.loc 1 339 0 is_stmt 0 discriminator 1
 191 00e6 B8F1010F 		cmp	r8, #1
 192 00ea F5D9     		bls	.L16
 374:Generated_Source\PSoC5/Display0.c ****                               LO16(srcAddr) + (((uint16) j) * Display0_ROW_LENGTH) +
 375:Generated_Source\PSoC5/Display0.c ****                               (uint16) Display0_StSegLcdPort_DMA_TD_PROTO_BLOCK[i].offset,
 376:Generated_Source\PSoC5/Display0.c ****                               LO16(dstAddr) + Display0_StSegLcdPort_DMA_TD_PROTO_BLOCK[i].offset);
 377:Generated_Source\PSoC5/Display0.c ****         }
 378:Generated_Source\PSoC5/Display0.c ****     }
 379:Generated_Source\PSoC5/Display0.c **** 
 380:Generated_Source\PSoC5/Display0.c ****     /* If there was no errors during DMA configuration then enable the channel. */
 381:Generated_Source\PSoC5/Display0.c ****     if(errorCnt == 0u)
 193              		.loc 1 381 0 is_stmt 1
 194 00ec 76B9     		cbnz	r6, .L17
 382:Generated_Source\PSoC5/Display0.c ****     {
 383:Generated_Source\PSoC5/Display0.c ****         (void) CyDmaChSetInitialTd(Display0_lcdChannel, Display0_lcdTd[0u]);
 195              		.loc 1 383 0
 196 00ee 094C     		ldr	r4, .L19
 197 00f0 94F82410 		ldrb	r1, [r4, #36]	@ zero_extendqisi2
 198 00f4 94F82000 		ldrb	r0, [r4, #32]	@ zero_extendqisi2
 199 00f8 FFF7FEFF 		bl	CyDmaChSetInitialTd
 200              	.LVL25:
 384:Generated_Source\PSoC5/Display0.c ****         (void) CyDmaChEnable(Display0_lcdChannel, 1u);
 201              		.loc 1 384 0
 202 00fc 0121     		movs	r1, #1
 203 00fe 94F82000 		ldrb	r0, [r4, #32]	@ zero_extendqisi2
 204 0102 FFF7FEFF 		bl	CyDmaChEnable
 205              	.LVL26:
 385:Generated_Source\PSoC5/Display0.c ****         status = CYRET_SUCCESS;
 206              		.loc 1 385 0
 207 0106 0020     		movs	r0, #0
 208 0108 BDE8F883 		pop	{r3, r4, r5, r6, r7, r8, r9, pc}
 209              	.LVL27:
 210              	.L17:
 290:Generated_Source\PSoC5/Display0.c ****     uint8 i;
 211              		.loc 1 290 0
 212 010c 0420     		movs	r0, #4
 213              	.LVL28:
 386:Generated_Source\PSoC5/Display0.c ****     }
 387:Generated_Source\PSoC5/Display0.c **** 
 388:Generated_Source\PSoC5/Display0.c ****     return(status);
 389:Generated_Source\PSoC5/Display0.c **** }
 214              		.loc 1 389 0
 215 010e BDE8F883 		pop	{r3, r4, r5, r6, r7, r8, r9, pc}
 216              	.LVL29:
 217              	.L20:
 218 0112 00BF     		.align	2
 219              	.L19:
 220 0114 00000000 		.word	.LANCHOR0
 221 0118 00000000 		.word	.LANCHOR1
 222              		.cfi_endproc
 223              	.LFE2:
 224              		.size	Display0_DmaConfigure, .-Display0_DmaConfigure
 225              		.section	.text.Display0_DmaDispose,"ax",%progbits
 226              		.align	2
ARM GAS  C:\Users\ESTEBAN\AppData\Local\Temp\ccarh6t8.s 			page 12


 227              		.thumb
 228              		.thumb_func
 229              		.type	Display0_DmaDispose, %function
 230              	Display0_DmaDispose:
 231              	.LFB3:
 390:Generated_Source\PSoC5/Display0.c **** 
 391:Generated_Source\PSoC5/Display0.c **** 
 392:Generated_Source\PSoC5/Display0.c **** /*******************************************************************************
 393:Generated_Source\PSoC5/Display0.c **** * Function Name: Display0_DmaDispose
 394:Generated_Source\PSoC5/Display0.c **** ********************************************************************************
 395:Generated_Source\PSoC5/Display0.c **** *
 396:Generated_Source\PSoC5/Display0.c **** * Summary:
 397:Generated_Source\PSoC5/Display0.c **** *  Releases transaction descriptors and DMA channel previously used by the
 398:Generated_Source\PSoC5/Display0.c **** *  component.
 399:Generated_Source\PSoC5/Display0.c **** *
 400:Generated_Source\PSoC5/Display0.c **** * Parameters:
 401:Generated_Source\PSoC5/Display0.c **** *  None.
 402:Generated_Source\PSoC5/Display0.c **** *
 403:Generated_Source\PSoC5/Display0.c **** * Return:
 404:Generated_Source\PSoC5/Display0.c **** *  None.
 405:Generated_Source\PSoC5/Display0.c **** *
 406:Generated_Source\PSoC5/Display0.c **** * Global variables:
 407:Generated_Source\PSoC5/Display0.c **** *  Display0_lcdTd[] - used  store a set of allocated TD IDs that are
 408:Generated_Source\PSoC5/Display0.c **** *  used by this component which will be released by this function.
 409:Generated_Source\PSoC5/Display0.c **** *
 410:Generated_Source\PSoC5/Display0.c **** *  Display0_lcdChannel - holds the channel number used by the LCD
 411:Generated_Source\PSoC5/Display0.c **** *  component that will be released by this function.
 412:Generated_Source\PSoC5/Display0.c **** *
 413:Generated_Source\PSoC5/Display0.c **** * Reentrant:
 414:Generated_Source\PSoC5/Display0.c **** *  No.
 415:Generated_Source\PSoC5/Display0.c **** *
 416:Generated_Source\PSoC5/Display0.c **** *******************************************************************************/
 417:Generated_Source\PSoC5/Display0.c **** static void Display0_DmaDispose(void) CYREENTRANT
 418:Generated_Source\PSoC5/Display0.c **** {
 232              		.loc 1 418 0
 233              		.cfi_startproc
 234              		@ args = 0, pretend = 0, frame = 0
 235              		@ frame_needed = 0, uses_anonymous_args = 0
 236 0000 10B5     		push	{r4, lr}
 237              		.cfi_def_cfa_offset 8
 238              		.cfi_offset 4, -8
 239              		.cfi_offset 14, -4
 419:Generated_Source\PSoC5/Display0.c ****     uint8 i;
 420:Generated_Source\PSoC5/Display0.c **** 
 421:Generated_Source\PSoC5/Display0.c ****     /* Release DMA handle, this will disable the LCD channel */
 422:Generated_Source\PSoC5/Display0.c ****     Display0_Lcd_Dma_DmaRelease();
 240              		.loc 1 422 0
 241 0002 FFF7FEFF 		bl	Display0_Lcd_Dma_DmaRelease
 242              	.LVL30:
 423:Generated_Source\PSoC5/Display0.c **** 
 424:Generated_Source\PSoC5/Display0.c ****     /* Free unused channel */
 425:Generated_Source\PSoC5/Display0.c ****     (void) CyDmaChFree(Display0_lcdChannel);
 243              		.loc 1 425 0
 244 0006 094B     		ldr	r3, .L25
 245 0008 93F82000 		ldrb	r0, [r3, #32]	@ zero_extendqisi2
 246 000c FFF7FEFF 		bl	CyDmaChFree
 247              	.LVL31:
ARM GAS  C:\Users\ESTEBAN\AppData\Local\Temp\ccarh6t8.s 			page 13


 426:Generated_Source\PSoC5/Display0.c **** 
 427:Generated_Source\PSoC5/Display0.c ****     /* Release all allocated TDs */
 428:Generated_Source\PSoC5/Display0.c ****     for(i = 0u; i < (Display0_LCD_TD_SIZE * Display0_COMM_NUM); i++)
 248              		.loc 1 428 0
 249 0010 0024     		movs	r4, #0
 250 0012 07E0     		b	.L22
 251              	.LVL32:
 252              	.L23:
 429:Generated_Source\PSoC5/Display0.c ****     {
 430:Generated_Source\PSoC5/Display0.c ****         CyDmaTdFree(Display0_lcdTd[i]);
 253              		.loc 1 430 0 discriminator 3
 254 0014 054B     		ldr	r3, .L25
 255 0016 2344     		add	r3, r3, r4
 256 0018 93F82400 		ldrb	r0, [r3, #36]	@ zero_extendqisi2
 257 001c FFF7FEFF 		bl	CyDmaTdFree
 258              	.LVL33:
 428:Generated_Source\PSoC5/Display0.c ****     {
 259              		.loc 1 428 0 discriminator 3
 260 0020 0134     		adds	r4, r4, #1
 261              	.LVL34:
 262 0022 E4B2     		uxtb	r4, r4
 263              	.LVL35:
 264              	.L22:
 428:Generated_Source\PSoC5/Display0.c ****     {
 265              		.loc 1 428 0 is_stmt 0 discriminator 1
 266 0024 012C     		cmp	r4, #1
 267 0026 F5D9     		bls	.L23
 431:Generated_Source\PSoC5/Display0.c ****     }
 432:Generated_Source\PSoC5/Display0.c **** }
 268              		.loc 1 432 0 is_stmt 1
 269 0028 10BD     		pop	{r4, pc}
 270              	.LVL36:
 271              	.L26:
 272 002a 00BF     		.align	2
 273              	.L25:
 274 002c 00000000 		.word	.LANCHOR0
 275              		.cfi_endproc
 276              	.LFE3:
 277              		.size	Display0_DmaDispose, .-Display0_DmaDispose
 278              		.section	.text.Display0_Enable,"ax",%progbits
 279              		.align	2
 280              		.global	Display0_Enable
 281              		.thumb
 282              		.thumb_func
 283              		.type	Display0_Enable, %function
 284              	Display0_Enable:
 285              	.LFB1:
 239:Generated_Source\PSoC5/Display0.c ****     uint8 status;
 286              		.loc 1 239 0
 287              		.cfi_startproc
 288              		@ args = 0, pretend = 0, frame = 0
 289              		@ frame_needed = 0, uses_anonymous_args = 0
 290 0000 10B5     		push	{r4, lr}
 291              		.cfi_def_cfa_offset 8
 292              		.cfi_offset 4, -8
 293              		.cfi_offset 14, -4
 243:Generated_Source\PSoC5/Display0.c **** 
ARM GAS  C:\Users\ESTEBAN\AppData\Local\Temp\ccarh6t8.s 			page 14


 294              		.loc 1 243 0
 295 0002 FFF7FEFF 		bl	Display0_DmaConfigure
 296              	.LVL37:
 297 0006 0446     		mov	r4, r0
 298              	.LVL38:
 246:Generated_Source\PSoC5/Display0.c **** 
 299              		.loc 1 246 0
 300 0008 FFF7FEFF 		bl	Display0_InClock_Start
 301              	.LVL39:
 249:Generated_Source\PSoC5/Display0.c **** 
 302              		.loc 1 249 0
 303 000c 0122     		movs	r2, #1
 304 000e 024B     		ldr	r3, .L29
 305 0010 83F82620 		strb	r2, [r3, #38]
 252:Generated_Source\PSoC5/Display0.c **** 
 306              		.loc 1 252 0
 307 0014 2046     		mov	r0, r4
 308 0016 10BD     		pop	{r4, pc}
 309              	.LVL40:
 310              	.L30:
 311              		.align	2
 312              	.L29:
 313 0018 00000000 		.word	.LANCHOR0
 314              		.cfi_endproc
 315              	.LFE1:
 316              		.size	Display0_Enable, .-Display0_Enable
 317              		.section	.text.Display0_Stop,"ax",%progbits
 318              		.align	2
 319              		.global	Display0_Stop
 320              		.thumb
 321              		.thumb_func
 322              		.type	Display0_Stop, %function
 323              	Display0_Stop:
 324              	.LFB5:
 433:Generated_Source\PSoC5/Display0.c **** 
 434:Generated_Source\PSoC5/Display0.c **** 
 435:Generated_Source\PSoC5/Display0.c **** /*******************************************************************************
 436:Generated_Source\PSoC5/Display0.c **** * Function Name: Display0_Start
 437:Generated_Source\PSoC5/Display0.c **** ********************************************************************************
 438:Generated_Source\PSoC5/Display0.c **** *
 439:Generated_Source\PSoC5/Display0.c **** * Summary:
 440:Generated_Source\PSoC5/Display0.c **** *  Starts the LCD component , DMA channels and initializes the frame buffer.
 441:Generated_Source\PSoC5/Display0.c **** *
 442:Generated_Source\PSoC5/Display0.c **** * Parameters:
 443:Generated_Source\PSoC5/Display0.c **** *  None.
 444:Generated_Source\PSoC5/Display0.c **** *
 445:Generated_Source\PSoC5/Display0.c **** * Return:
 446:Generated_Source\PSoC5/Display0.c **** *  One of standard status for PSoC3 Component:
 447:Generated_Source\PSoC5/Display0.c **** *      CYRET_SUCCESS - Function completed successfully.
 448:Generated_Source\PSoC5/Display0.c **** *      CYRET_LOCKED - The object was locked, already in use. Some of TDs or
 449:Generated_Source\PSoC5/Display0.c **** *                     channel already in use.
 450:Generated_Source\PSoC5/Display0.c **** *
 451:Generated_Source\PSoC5/Display0.c **** * Global variables:
 452:Generated_Source\PSoC5/Display0.c **** *  Display0_initVar - is used to indicate initial configuration of
 453:Generated_Source\PSoC5/Display0.c **** *  this component. The variable is initialized to zero and set to 1 the first
 454:Generated_Source\PSoC5/Display0.c **** *  time Display0_Start() is called. This allows for component
 455:Generated_Source\PSoC5/Display0.c **** *  initialization without re-initialization in all subsequent calls to the
ARM GAS  C:\Users\ESTEBAN\AppData\Local\Temp\ccarh6t8.s 			page 15


 456:Generated_Source\PSoC5/Display0.c **** *  Display0_Start() routine.
 457:Generated_Source\PSoC5/Display0.c **** *
 458:Generated_Source\PSoC5/Display0.c **** * Reentrant:
 459:Generated_Source\PSoC5/Display0.c **** *  No.
 460:Generated_Source\PSoC5/Display0.c **** *
 461:Generated_Source\PSoC5/Display0.c **** *******************************************************************************/
 462:Generated_Source\PSoC5/Display0.c **** uint8 Display0_Start(void) 
 463:Generated_Source\PSoC5/Display0.c **** {
 464:Generated_Source\PSoC5/Display0.c ****     uint8 status;
 465:Generated_Source\PSoC5/Display0.c **** 
 466:Generated_Source\PSoC5/Display0.c ****     /* If not Initialized then initialize all required hardware and software */
 467:Generated_Source\PSoC5/Display0.c ****     if(Display0_initVar == 0u)
 468:Generated_Source\PSoC5/Display0.c ****     {
 469:Generated_Source\PSoC5/Display0.c ****         Display0_initVar = 1u;
 470:Generated_Source\PSoC5/Display0.c ****         Display0_Init();
 471:Generated_Source\PSoC5/Display0.c ****     }
 472:Generated_Source\PSoC5/Display0.c **** 
 473:Generated_Source\PSoC5/Display0.c ****     status = Display0_Enable();
 474:Generated_Source\PSoC5/Display0.c **** 
 475:Generated_Source\PSoC5/Display0.c ****     return(status);
 476:Generated_Source\PSoC5/Display0.c **** }
 477:Generated_Source\PSoC5/Display0.c **** 
 478:Generated_Source\PSoC5/Display0.c **** 
 479:Generated_Source\PSoC5/Display0.c **** /*******************************************************************************
 480:Generated_Source\PSoC5/Display0.c **** * Function Name: Display0_Stop
 481:Generated_Source\PSoC5/Display0.c **** ********************************************************************************
 482:Generated_Source\PSoC5/Display0.c **** *
 483:Generated_Source\PSoC5/Display0.c **** * Summary:
 484:Generated_Source\PSoC5/Display0.c **** *  Disables the LCD component and disables any required interrupts and DMA
 485:Generated_Source\PSoC5/Display0.c **** *  channels. Automatically blanks the display to avoid damage from DC offsets.
 486:Generated_Source\PSoC5/Display0.c **** *  Does not clear the frame buffer. Disables LCD every frame interrupt.
 487:Generated_Source\PSoC5/Display0.c **** *
 488:Generated_Source\PSoC5/Display0.c **** * Parameters:
 489:Generated_Source\PSoC5/Display0.c **** *  None.
 490:Generated_Source\PSoC5/Display0.c **** *
 491:Generated_Source\PSoC5/Display0.c **** * Return:
 492:Generated_Source\PSoC5/Display0.c **** *  None.
 493:Generated_Source\PSoC5/Display0.c **** *
 494:Generated_Source\PSoC5/Display0.c **** * Global variables:
 495:Generated_Source\PSoC5/Display0.c **** *  Display0_enableState - cleared to 0 by this function indicating
 496:Generated_Source\PSoC5/Display0.c **** *  that the component is disabled.
 497:Generated_Source\PSoC5/Display0.c **** *
 498:Generated_Source\PSoC5/Display0.c **** *******************************************************************************/
 499:Generated_Source\PSoC5/Display0.c **** void Display0_Stop(void) 
 500:Generated_Source\PSoC5/Display0.c **** {
 325              		.loc 1 500 0
 326              		.cfi_startproc
 327              		@ args = 0, pretend = 0, frame = 0
 328              		@ frame_needed = 0, uses_anonymous_args = 0
 329 0000 08B5     		push	{r3, lr}
 330              		.cfi_def_cfa_offset 8
 331              		.cfi_offset 3, -8
 332              		.cfi_offset 14, -4
 501:Generated_Source\PSoC5/Display0.c ****     CyIntDisable(Display0_ISR_NUMBER);
 333              		.loc 1 501 0
 334 0002 0122     		movs	r2, #1
 335 0004 054B     		ldr	r3, .L33
ARM GAS  C:\Users\ESTEBAN\AppData\Local\Temp\ccarh6t8.s 			page 16


 336 0006 1A60     		str	r2, [r3]
 502:Generated_Source\PSoC5/Display0.c **** 
 503:Generated_Source\PSoC5/Display0.c ****     /* Stop clock generation */
 504:Generated_Source\PSoC5/Display0.c ****     Display0_InClock_Disable();
 337              		.loc 1 504 0
 338 0008 FFF7FEFF 		bl	Display0_InClock_Stop
 339              	.LVL41:
 505:Generated_Source\PSoC5/Display0.c **** 
 506:Generated_Source\PSoC5/Display0.c ****     /* Release DMA resources used for the LCD */
 507:Generated_Source\PSoC5/Display0.c ****     Display0_DmaDispose();
 340              		.loc 1 507 0
 341 000c FFF7FEFF 		bl	Display0_DmaDispose
 342              	.LVL42:
 508:Generated_Source\PSoC5/Display0.c **** 
 509:Generated_Source\PSoC5/Display0.c ****     /* Now the component is disabled so save its state */
 510:Generated_Source\PSoC5/Display0.c ****     Display0_enableState = 0u;
 343              		.loc 1 510 0
 344 0010 0022     		movs	r2, #0
 345 0012 034B     		ldr	r3, .L33+4
 346 0014 83F82620 		strb	r2, [r3, #38]
 347 0018 08BD     		pop	{r3, pc}
 348              	.L34:
 349 001a 00BF     		.align	2
 350              	.L33:
 351 001c 80E100E0 		.word	-536813184
 352 0020 00000000 		.word	.LANCHOR0
 353              		.cfi_endproc
 354              	.LFE5:
 355              		.size	Display0_Stop, .-Display0_Stop
 356              		.section	.text.Display0_EnableInt,"ax",%progbits
 357              		.align	2
 358              		.global	Display0_EnableInt
 359              		.thumb
 360              		.thumb_func
 361              		.type	Display0_EnableInt, %function
 362              	Display0_EnableInt:
 363              	.LFB6:
 511:Generated_Source\PSoC5/Display0.c **** }
 512:Generated_Source\PSoC5/Display0.c **** 
 513:Generated_Source\PSoC5/Display0.c **** 
 514:Generated_Source\PSoC5/Display0.c **** /*******************************************************************************
 515:Generated_Source\PSoC5/Display0.c **** * Function Name: Display0_EnableInt
 516:Generated_Source\PSoC5/Display0.c **** ********************************************************************************
 517:Generated_Source\PSoC5/Display0.c **** *
 518:Generated_Source\PSoC5/Display0.c **** * Summary:
 519:Generated_Source\PSoC5/Display0.c **** *  Enables LCD every-frame interrupt.
 520:Generated_Source\PSoC5/Display0.c **** *
 521:Generated_Source\PSoC5/Display0.c **** * Parameters:
 522:Generated_Source\PSoC5/Display0.c **** *  None.
 523:Generated_Source\PSoC5/Display0.c **** *
 524:Generated_Source\PSoC5/Display0.c **** * Return:
 525:Generated_Source\PSoC5/Display0.c **** *  None.
 526:Generated_Source\PSoC5/Display0.c **** *
 527:Generated_Source\PSoC5/Display0.c **** *******************************************************************************/
 528:Generated_Source\PSoC5/Display0.c **** void Display0_EnableInt(void) 
 529:Generated_Source\PSoC5/Display0.c **** {
 364              		.loc 1 529 0
ARM GAS  C:\Users\ESTEBAN\AppData\Local\Temp\ccarh6t8.s 			page 17


 365              		.cfi_startproc
 366              		@ args = 0, pretend = 0, frame = 0
 367              		@ frame_needed = 0, uses_anonymous_args = 0
 368              		@ link register save eliminated.
 530:Generated_Source\PSoC5/Display0.c ****     CyIntEnable(Display0_ISR_NUMBER);
 369              		.loc 1 530 0
 370 0000 0122     		movs	r2, #1
 371 0002 014B     		ldr	r3, .L36
 372 0004 1A60     		str	r2, [r3]
 373 0006 7047     		bx	lr
 374              	.L37:
 375              		.align	2
 376              	.L36:
 377 0008 00E100E0 		.word	-536813312
 378              		.cfi_endproc
 379              	.LFE6:
 380              		.size	Display0_EnableInt, .-Display0_EnableInt
 381              		.section	.text.Display0_DisableInt,"ax",%progbits
 382              		.align	2
 383              		.global	Display0_DisableInt
 384              		.thumb
 385              		.thumb_func
 386              		.type	Display0_DisableInt, %function
 387              	Display0_DisableInt:
 388              	.LFB7:
 531:Generated_Source\PSoC5/Display0.c **** }
 532:Generated_Source\PSoC5/Display0.c **** 
 533:Generated_Source\PSoC5/Display0.c **** 
 534:Generated_Source\PSoC5/Display0.c **** /*******************************************************************************
 535:Generated_Source\PSoC5/Display0.c **** * Function Name: Display0_DisableInt
 536:Generated_Source\PSoC5/Display0.c **** ********************************************************************************
 537:Generated_Source\PSoC5/Display0.c **** * Summary:
 538:Generated_Source\PSoC5/Display0.c **** *  Description: Disables LCD interrupt. Not required if Display0_Stop
 539:Generated_Source\PSoC5/Display0.c **** *  called.
 540:Generated_Source\PSoC5/Display0.c **** *
 541:Generated_Source\PSoC5/Display0.c **** * Parameters:
 542:Generated_Source\PSoC5/Display0.c **** *  None.
 543:Generated_Source\PSoC5/Display0.c **** *
 544:Generated_Source\PSoC5/Display0.c **** * Return:
 545:Generated_Source\PSoC5/Display0.c **** *  None.
 546:Generated_Source\PSoC5/Display0.c **** *
 547:Generated_Source\PSoC5/Display0.c **** *******************************************************************************/
 548:Generated_Source\PSoC5/Display0.c **** void Display0_DisableInt(void) 
 549:Generated_Source\PSoC5/Display0.c **** {
 389              		.loc 1 549 0
 390              		.cfi_startproc
 391              		@ args = 0, pretend = 0, frame = 0
 392              		@ frame_needed = 0, uses_anonymous_args = 0
 393              		@ link register save eliminated.
 550:Generated_Source\PSoC5/Display0.c ****    CyIntDisable(Display0_ISR_NUMBER);
 394              		.loc 1 550 0
 395 0000 0122     		movs	r2, #1
 396 0002 014B     		ldr	r3, .L39
 397 0004 1A60     		str	r2, [r3]
 398 0006 7047     		bx	lr
 399              	.L40:
 400              		.align	2
ARM GAS  C:\Users\ESTEBAN\AppData\Local\Temp\ccarh6t8.s 			page 18


 401              	.L39:
 402 0008 80E100E0 		.word	-536813184
 403              		.cfi_endproc
 404              	.LFE7:
 405              		.size	Display0_DisableInt, .-Display0_DisableInt
 406              		.section	.text.Display0_ReadPixel,"ax",%progbits
 407              		.align	2
 408              		.global	Display0_ReadPixel
 409              		.thumb
 410              		.thumb_func
 411              		.type	Display0_ReadPixel, %function
 412              	Display0_ReadPixel:
 413              	.LFB10:
 551:Generated_Source\PSoC5/Display0.c **** }
 552:Generated_Source\PSoC5/Display0.c **** 
 553:Generated_Source\PSoC5/Display0.c **** 
 554:Generated_Source\PSoC5/Display0.c **** /*******************************************************************************
 555:Generated_Source\PSoC5/Display0.c **** * Function Name: Display0_ClearDisplay
 556:Generated_Source\PSoC5/Display0.c **** ********************************************************************************
 557:Generated_Source\PSoC5/Display0.c **** *
 558:Generated_Source\PSoC5/Display0.c **** * Summary:
 559:Generated_Source\PSoC5/Display0.c **** *  This function clears the display RAM of the frame buffer.
 560:Generated_Source\PSoC5/Display0.c **** *
 561:Generated_Source\PSoC5/Display0.c **** * Parameters:
 562:Generated_Source\PSoC5/Display0.c **** *  None.
 563:Generated_Source\PSoC5/Display0.c **** *
 564:Generated_Source\PSoC5/Display0.c **** * Return:
 565:Generated_Source\PSoC5/Display0.c **** *  None.
 566:Generated_Source\PSoC5/Display0.c **** *
 567:Generated_Source\PSoC5/Display0.c **** * Global variables:
 568:Generated_Source\PSoC5/Display0.c **** *  Display0_buffer[] - an array is modified by this API. Clears the
 569:Generated_Source\PSoC5/Display0.c **** *  frame buffer to all zeroes and then reinitialize it with a 1 in the
 570:Generated_Source\PSoC5/Display0.c **** *  locations specified by the values from Display0_commons[].
 571:Generated_Source\PSoC5/Display0.c **** *
 572:Generated_Source\PSoC5/Display0.c **** *  Display0_commons[] - holds the pixel locations for common lines.
 573:Generated_Source\PSoC5/Display0.c **** *
 574:Generated_Source\PSoC5/Display0.c **** * Reentrant:
 575:Generated_Source\PSoC5/Display0.c **** *  No.
 576:Generated_Source\PSoC5/Display0.c **** *
 577:Generated_Source\PSoC5/Display0.c **** *******************************************************************************/
 578:Generated_Source\PSoC5/Display0.c **** void Display0_ClearDisplay(void) 
 579:Generated_Source\PSoC5/Display0.c **** {
 580:Generated_Source\PSoC5/Display0.c ****     uint16 i;
 581:Generated_Source\PSoC5/Display0.c **** 
 582:Generated_Source\PSoC5/Display0.c ****     /* Clear entire frame buffer to "zero" values */
 583:Generated_Source\PSoC5/Display0.c ****     for(i = 0u ; i < Display0_BUFFER_LENGTH; i++)
 584:Generated_Source\PSoC5/Display0.c ****     {
 585:Generated_Source\PSoC5/Display0.c ****         if(i < (Display0_BUFFER_LENGTH / 2u))
 586:Generated_Source\PSoC5/Display0.c ****         {
 587:Generated_Source\PSoC5/Display0.c ****             /* First line(frame) of the buffer should contain pixel data */
 588:Generated_Source\PSoC5/Display0.c ****             Display0_buffer[i] = 0x00u;
 589:Generated_Source\PSoC5/Display0.c ****         }
 590:Generated_Source\PSoC5/Display0.c ****         else
 591:Generated_Source\PSoC5/Display0.c ****         {
 592:Generated_Source\PSoC5/Display0.c ****             /* Second line(frame) of the buffer should contain inverted pixel data */
 593:Generated_Source\PSoC5/Display0.c ****             Display0_buffer[i] = 0xFFu;
 594:Generated_Source\PSoC5/Display0.c ****         }
ARM GAS  C:\Users\ESTEBAN\AppData\Local\Temp\ccarh6t8.s 			page 19


 595:Generated_Source\PSoC5/Display0.c ****     }
 596:Generated_Source\PSoC5/Display0.c **** 
 597:Generated_Source\PSoC5/Display0.c ****     /* Reinitialize the commons */
 598:Generated_Source\PSoC5/Display0.c ****     Display0_WRITE_PIXEL(Display0_commons[0u], Display0_PIXEL_STATE_OFF);
 599:Generated_Source\PSoC5/Display0.c **** }
 600:Generated_Source\PSoC5/Display0.c **** 
 601:Generated_Source\PSoC5/Display0.c **** 
 602:Generated_Source\PSoC5/Display0.c **** /*******************************************************************************
 603:Generated_Source\PSoC5/Display0.c **** * Function Name: Display0_WritePixel
 604:Generated_Source\PSoC5/Display0.c **** ********************************************************************************
 605:Generated_Source\PSoC5/Display0.c **** *
 606:Generated_Source\PSoC5/Display0.c **** * Summary:
 607:Generated_Source\PSoC5/Display0.c **** *  This function sets or clears a pixel based on pixelState in a frame buffer.
 608:Generated_Source\PSoC5/Display0.c **** *  The Pixel is addressed by a packed number.
 609:Generated_Source\PSoC5/Display0.c **** *
 610:Generated_Source\PSoC5/Display0.c **** * Parameters:
 611:Generated_Source\PSoC5/Display0.c **** *  pixelNumber: is the packed number that points to the pixels location in the
 612:Generated_Source\PSoC5/Display0.c **** *               frame buffer. The lowest three bits in the LSB low nibble are
 613:Generated_Source\PSoC5/Display0.c **** *               the bit position in the byte, the LSB upper nibble (4 bits) is
 614:Generated_Source\PSoC5/Display0.c **** *               the byte address in the multiplex Row and the MSB low nibble
 615:Generated_Source\PSoC5/Display0.c **** *               (4 bits) is the multiplex Row number.
 616:Generated_Source\PSoC5/Display0.c **** *  pixelState : 0 for pixel off,1 for pixel on, 2 for pixel invert.
 617:Generated_Source\PSoC5/Display0.c **** *
 618:Generated_Source\PSoC5/Display0.c **** * Return:
 619:Generated_Source\PSoC5/Display0.c **** *  Status returns the standardized return value for pass or fail on a range
 620:Generated_Source\PSoC5/Display0.c **** *  check of the byte address and multiplex Row number:
 621:Generated_Source\PSoC5/Display0.c **** *      CYRET_SUCCESS - Function completed successfully.
 622:Generated_Source\PSoC5/Display0.c **** *      CYRET_BAD_PARAM - One of the parameters is invalid.
 623:Generated_Source\PSoC5/Display0.c **** *
 624:Generated_Source\PSoC5/Display0.c **** * Global variables:
 625:Generated_Source\PSoC5/Display0.c **** *  Display0_buffer[] - an array is modified by this API. This API sets
 626:Generated_Source\PSoC5/Display0.c **** *  or clears certain bit in the array defined by the input parameter.
 627:Generated_Source\PSoC5/Display0.c **** *
 628:Generated_Source\PSoC5/Display0.c **** * Reentrant:
 629:Generated_Source\PSoC5/Display0.c **** *  No.
 630:Generated_Source\PSoC5/Display0.c **** *
 631:Generated_Source\PSoC5/Display0.c **** *******************************************************************************/
 632:Generated_Source\PSoC5/Display0.c **** uint8 Display0_WritePixel(uint16 pixelNumber, uint8 pixelState) 
 633:Generated_Source\PSoC5/Display0.c **** {
 634:Generated_Source\PSoC5/Display0.c ****     uint16 byteAddr;
 635:Generated_Source\PSoC5/Display0.c ****     uint16 bitAddr;
 636:Generated_Source\PSoC5/Display0.c ****     uint16 row;
 637:Generated_Source\PSoC5/Display0.c ****     uint8 mask;
 638:Generated_Source\PSoC5/Display0.c ****     uint8 status;
 639:Generated_Source\PSoC5/Display0.c **** 
 640:Generated_Source\PSoC5/Display0.c ****     /* Let the User know that he has entered wrong parameter
 641:Generated_Source\PSoC5/Display0.c ****     * which is pixel state greater than 2 or unconnected pixel.
 642:Generated_Source\PSoC5/Display0.c ****     */
 643:Generated_Source\PSoC5/Display0.c ****     if((pixelState > Display0_PIXEL_STATE_INVERT) || (pixelNumber == Display0_NOT_CON))
 644:Generated_Source\PSoC5/Display0.c ****     {
 645:Generated_Source\PSoC5/Display0.c ****         status = CYRET_BAD_PARAM;
 646:Generated_Source\PSoC5/Display0.c ****     }
 647:Generated_Source\PSoC5/Display0.c ****     else
 648:Generated_Source\PSoC5/Display0.c ****     {
 649:Generated_Source\PSoC5/Display0.c ****         /* Extract bit position in the byte */
 650:Generated_Source\PSoC5/Display0.c ****         bitAddr = (pixelNumber & Display0_BIT_MASK);
 651:Generated_Source\PSoC5/Display0.c **** 
ARM GAS  C:\Users\ESTEBAN\AppData\Local\Temp\ccarh6t8.s 			page 20


 652:Generated_Source\PSoC5/Display0.c ****         /* Extract byte position in the Row */
 653:Generated_Source\PSoC5/Display0.c ****         byteAddr = (pixelNumber & Display0_PORT_MASK) >> Display0_PORT_SHIFT;
 654:Generated_Source\PSoC5/Display0.c **** 
 655:Generated_Source\PSoC5/Display0.c ****         /* Extract Row position */
 656:Generated_Source\PSoC5/Display0.c ****         row = (pixelNumber & Display0_ROW_MASK) >> Display0_ROW_SHIFT;
 657:Generated_Source\PSoC5/Display0.c **** 
 658:Generated_Source\PSoC5/Display0.c ****         if(pixelState == Display0_PIXEL_STATE_INVERT)
 659:Generated_Source\PSoC5/Display0.c ****         {
 660:Generated_Source\PSoC5/Display0.c ****             /* Invert actual pixel state */
 661:Generated_Source\PSoC5/Display0.c ****             pixelState = ~(Display0_ReadPixel(pixelNumber));
 662:Generated_Source\PSoC5/Display0.c ****         }
 663:Generated_Source\PSoC5/Display0.c **** 
 664:Generated_Source\PSoC5/Display0.c ****         mask = ~(uint8) (((uint8) Display0_PIXEL_STATE_ON) << bitAddr);
 665:Generated_Source\PSoC5/Display0.c **** 
 666:Generated_Source\PSoC5/Display0.c ****         /* Set pixel in first frame buffer line */
 667:Generated_Source\PSoC5/Display0.c ****         Display0_buffer[(row * Display0_ROW_BYTE_LENGTH) + byteAddr] =
 668:Generated_Source\PSoC5/Display0.c ****             (Display0_buffer[(row * Display0_ROW_BYTE_LENGTH) + byteAddr] & mask) |
 669:Generated_Source\PSoC5/Display0.c ****             ((uint8) (((uint8) pixelState) << bitAddr));
 670:Generated_Source\PSoC5/Display0.c **** 
 671:Generated_Source\PSoC5/Display0.c ****         /* Invert pixel state */
 672:Generated_Source\PSoC5/Display0.c ****         pixelState ^= Display0_PIXEL_STATE_ON;
 673:Generated_Source\PSoC5/Display0.c **** 
 674:Generated_Source\PSoC5/Display0.c ****         Display0_buffer[((row + 1u) * Display0_ROW_BYTE_LENGTH) + byteAddr] =
 675:Generated_Source\PSoC5/Display0.c ****             (Display0_buffer[((row + 1u) * Display0_ROW_BYTE_LENGTH) + byteAddr] & mask) |
 676:Generated_Source\PSoC5/Display0.c ****             ((uint8) (((uint8) pixelState) << bitAddr));
 677:Generated_Source\PSoC5/Display0.c **** 
 678:Generated_Source\PSoC5/Display0.c ****         status = CYRET_SUCCESS;
 679:Generated_Source\PSoC5/Display0.c ****     }
 680:Generated_Source\PSoC5/Display0.c **** 
 681:Generated_Source\PSoC5/Display0.c ****     return(status);
 682:Generated_Source\PSoC5/Display0.c **** }
 683:Generated_Source\PSoC5/Display0.c **** 
 684:Generated_Source\PSoC5/Display0.c **** 
 685:Generated_Source\PSoC5/Display0.c **** /*******************************************************************************
 686:Generated_Source\PSoC5/Display0.c **** * Function Name: Display0_ReadPixel
 687:Generated_Source\PSoC5/Display0.c **** ********************************************************************************
 688:Generated_Source\PSoC5/Display0.c **** *
 689:Generated_Source\PSoC5/Display0.c **** * Summary:
 690:Generated_Source\PSoC5/Display0.c **** *  This function reads a pixels state in a large frame buffer. The Pixel is
 691:Generated_Source\PSoC5/Display0.c **** *  addressed by a packed number.
 692:Generated_Source\PSoC5/Display0.c **** *
 693:Generated_Source\PSoC5/Display0.c **** * Parameters:
 694:Generated_Source\PSoC5/Display0.c **** *  pixelNumber: is the packed number that points to the pixels location in the
 695:Generated_Source\PSoC5/Display0.c **** *               frame buffer. The lowest three bits in the LSB low nibble are
 696:Generated_Source\PSoC5/Display0.c **** *               the bit position in the byte, the LSB upper nibble (4 bits) is
 697:Generated_Source\PSoC5/Display0.c **** *               the byte address in the multiplex Row and the MSB low nibble
 698:Generated_Source\PSoC5/Display0.c **** *               (4 bits) is the multiplex Row number.
 699:Generated_Source\PSoC5/Display0.c **** *
 700:Generated_Source\PSoC5/Display0.c **** * Return:
 701:Generated_Source\PSoC5/Display0.c **** *  Pixel State:
 702:Generated_Source\PSoC5/Display0.c **** *      0x00 (Display0_PIXEL_STATE_OFF) - for pixel off.
 703:Generated_Source\PSoC5/Display0.c **** *      0x01 (Display0_PIXEL_STATE_ON) - for pixel on.
 704:Generated_Source\PSoC5/Display0.c **** *      0xFF (Display0_PIXEL_UNKNOWN_STATE) - indicates that pixel
 705:Generated_Source\PSoC5/Display0.c **** *                                                    isn't assigned.
 706:Generated_Source\PSoC5/Display0.c **** *
 707:Generated_Source\PSoC5/Display0.c **** * Global variables:
 708:Generated_Source\PSoC5/Display0.c **** *  Display0_buffer[] - holds the state of every pixel of the LCD glass
ARM GAS  C:\Users\ESTEBAN\AppData\Local\Temp\ccarh6t8.s 			page 21


 709:Generated_Source\PSoC5/Display0.c **** *  which can be read by this function.
 710:Generated_Source\PSoC5/Display0.c **** *
 711:Generated_Source\PSoC5/Display0.c **** *******************************************************************************/
 712:Generated_Source\PSoC5/Display0.c **** uint8 Display0_ReadPixel(uint16 pixelNumber) 
 713:Generated_Source\PSoC5/Display0.c **** {
 414              		.loc 1 713 0
 415              		.cfi_startproc
 416              		@ args = 0, pretend = 0, frame = 0
 417              		@ frame_needed = 0, uses_anonymous_args = 0
 418              		@ link register save eliminated.
 419              	.LVL43:
 714:Generated_Source\PSoC5/Display0.c ****     uint16 byteAddr;
 715:Generated_Source\PSoC5/Display0.c ****     uint16 bitAddr;
 716:Generated_Source\PSoC5/Display0.c ****     uint16 row;
 717:Generated_Source\PSoC5/Display0.c ****     uint8 pixelState;
 718:Generated_Source\PSoC5/Display0.c **** 
 719:Generated_Source\PSoC5/Display0.c ****     if(pixelNumber != Display0_NOT_CON)
 420              		.loc 1 719 0
 421 0000 FF28     		cmp	r0, #255
 422 0002 0ED0     		beq	.L43
 720:Generated_Source\PSoC5/Display0.c ****     {
 721:Generated_Source\PSoC5/Display0.c ****         /* Extract all required information from pixelNumber to address required pixel */
 722:Generated_Source\PSoC5/Display0.c ****         bitAddr = (pixelNumber & Display0_BIT_MASK);
 423              		.loc 1 722 0
 424 0004 00F00702 		and	r2, r0, #7
 425              	.LVL44:
 723:Generated_Source\PSoC5/Display0.c ****         byteAddr = (pixelNumber & Display0_PORT_MASK) >> Display0_PORT_SHIFT;
 426              		.loc 1 723 0
 427 0008 C0F30313 		ubfx	r3, r0, #4, #4
 428              	.LVL45:
 724:Generated_Source\PSoC5/Display0.c ****         row = (pixelNumber & Display0_ROW_MASK) >> Display0_ROW_SHIFT;
 429              		.loc 1 724 0
 430 000c C0F30320 		ubfx	r0, r0, #8, #4
 431              	.LVL46:
 725:Generated_Source\PSoC5/Display0.c **** 
 726:Generated_Source\PSoC5/Display0.c ****         pixelState = ((Display0_buffer[(row * Display0_ROW_BYTE_LENGTH) + byteAddr] >> bitAddr) &
 432              		.loc 1 726 0
 433 0010 03EB0010 		add	r0, r3, r0, lsl #4
 434              	.LVL47:
 435 0014 044B     		ldr	r3, .L44
 436              	.LVL48:
 437 0016 1B5C     		ldrb	r3, [r3, r0]	@ zero_extendqisi2
 438 0018 43FA02F0 		asr	r0, r3, r2
 439 001c 00F00100 		and	r0, r0, #1
 440              	.LVL49:
 441 0020 7047     		bx	lr
 442              	.LVL50:
 443              	.L43:
 727:Generated_Source\PSoC5/Display0.c ****                        Display0_PIXEL_STATE_ON);
 728:Generated_Source\PSoC5/Display0.c ****     }
 729:Generated_Source\PSoC5/Display0.c ****     else
 730:Generated_Source\PSoC5/Display0.c ****     {
 731:Generated_Source\PSoC5/Display0.c ****         /* Indicate that the pixel number is invalid */
 732:Generated_Source\PSoC5/Display0.c ****         pixelState = Display0_PIXEL_UNKNOWN_STATE;
 444              		.loc 1 732 0
 445 0022 FF20     		movs	r0, #255
 446              	.LVL51:
ARM GAS  C:\Users\ESTEBAN\AppData\Local\Temp\ccarh6t8.s 			page 22


 733:Generated_Source\PSoC5/Display0.c ****     }
 734:Generated_Source\PSoC5/Display0.c **** 
 735:Generated_Source\PSoC5/Display0.c ****     return (pixelState);
 736:Generated_Source\PSoC5/Display0.c **** }
 447              		.loc 1 736 0
 448 0024 7047     		bx	lr
 449              	.L45:
 450 0026 00BF     		.align	2
 451              	.L44:
 452 0028 00000000 		.word	.LANCHOR0
 453              		.cfi_endproc
 454              	.LFE10:
 455              		.size	Display0_ReadPixel, .-Display0_ReadPixel
 456              		.section	.text.Display0_WritePixel,"ax",%progbits
 457              		.align	2
 458              		.global	Display0_WritePixel
 459              		.thumb
 460              		.thumb_func
 461              		.type	Display0_WritePixel, %function
 462              	Display0_WritePixel:
 463              	.LFB9:
 633:Generated_Source\PSoC5/Display0.c ****     uint16 byteAddr;
 464              		.loc 1 633 0
 465              		.cfi_startproc
 466              		@ args = 0, pretend = 0, frame = 0
 467              		@ frame_needed = 0, uses_anonymous_args = 0
 468              	.LVL52:
 643:Generated_Source\PSoC5/Display0.c ****     {
 469              		.loc 1 643 0
 470 0000 0229     		cmp	r1, #2
 471 0002 2BD8     		bhi	.L49
 643:Generated_Source\PSoC5/Display0.c ****     {
 472              		.loc 1 643 0 is_stmt 0 discriminator 1
 473 0004 FF28     		cmp	r0, #255
 474 0006 2BD0     		beq	.L50
 633:Generated_Source\PSoC5/Display0.c ****     uint16 byteAddr;
 475              		.loc 1 633 0 is_stmt 1
 476 0008 F8B5     		push	{r3, r4, r5, r6, r7, lr}
 477              		.cfi_def_cfa_offset 24
 478              		.cfi_offset 3, -24
 479              		.cfi_offset 4, -20
 480              		.cfi_offset 5, -16
 481              		.cfi_offset 6, -12
 482              		.cfi_offset 7, -8
 483              		.cfi_offset 14, -4
 650:Generated_Source\PSoC5/Display0.c **** 
 484              		.loc 1 650 0
 485 000a 00F00705 		and	r5, r0, #7
 486              	.LVL53:
 653:Generated_Source\PSoC5/Display0.c **** 
 487              		.loc 1 653 0
 488 000e C0F30314 		ubfx	r4, r0, #4, #4
 489              	.LVL54:
 656:Generated_Source\PSoC5/Display0.c **** 
 490              		.loc 1 656 0
 491 0012 C0F30326 		ubfx	r6, r0, #8, #4
 492              	.LVL55:
ARM GAS  C:\Users\ESTEBAN\AppData\Local\Temp\ccarh6t8.s 			page 23


 658:Generated_Source\PSoC5/Display0.c ****         {
 493              		.loc 1 658 0
 494 0016 0229     		cmp	r1, #2
 495 0018 03D1     		bne	.L48
 661:Generated_Source\PSoC5/Display0.c ****         }
 496              		.loc 1 661 0
 497 001a FFF7FEFF 		bl	Display0_ReadPixel
 498              	.LVL56:
 499 001e C043     		mvns	r0, r0
 500 0020 C1B2     		uxtb	r1, r0
 501              	.LVL57:
 502              	.L48:
 664:Generated_Source\PSoC5/Display0.c **** 
 503              		.loc 1 664 0
 504 0022 0123     		movs	r3, #1
 505 0024 AB40     		lsls	r3, r3, r5
 506 0026 DB43     		mvns	r3, r3
 507 0028 DBB2     		uxtb	r3, r3
 508              	.LVL58:
 668:Generated_Source\PSoC5/Display0.c ****             ((uint8) (((uint8) pixelState) << bitAddr));
 509              		.loc 1 668 0
 510 002a 04EB061E 		add	lr, r4, r6, lsl #4
 511 002e 0D4F     		ldr	r7, .L53
 512 0030 17F80E20 		ldrb	r2, [r7, lr]	@ zero_extendqisi2
 669:Generated_Source\PSoC5/Display0.c **** 
 513              		.loc 1 669 0
 514 0034 01FA05F0 		lsl	r0, r1, r5
 667:Generated_Source\PSoC5/Display0.c ****             (Display0_buffer[(row * Display0_ROW_BYTE_LENGTH) + byteAddr] & mask) |
 515              		.loc 1 667 0
 516 0038 1A40     		ands	r2, r2, r3
 517 003a 0243     		orrs	r2, r2, r0
 518 003c 07F80E20 		strb	r2, [r7, lr]
 672:Generated_Source\PSoC5/Display0.c **** 
 519              		.loc 1 672 0
 520 0040 81F00101 		eor	r1, r1, #1
 521              	.LVL59:
 674:Generated_Source\PSoC5/Display0.c ****             (Display0_buffer[((row + 1u) * Display0_ROW_BYTE_LENGTH) + byteAddr] & mask) |
 522              		.loc 1 674 0
 523 0044 721C     		adds	r2, r6, #1
 675:Generated_Source\PSoC5/Display0.c ****             ((uint8) (((uint8) pixelState) << bitAddr));
 524              		.loc 1 675 0
 525 0046 04EB0212 		add	r2, r4, r2, lsl #4
 526 004a BC5C     		ldrb	r4, [r7, r2]	@ zero_extendqisi2
 527              	.LVL60:
 676:Generated_Source\PSoC5/Display0.c **** 
 528              		.loc 1 676 0
 529 004c 01FA05F0 		lsl	r0, r1, r5
 674:Generated_Source\PSoC5/Display0.c ****             (Display0_buffer[((row + 1u) * Display0_ROW_BYTE_LENGTH) + byteAddr] & mask) |
 530              		.loc 1 674 0
 531 0050 03EA0401 		and	r1, r3, r4
 532              	.LVL61:
 533 0054 0143     		orrs	r1, r1, r0
 534 0056 B954     		strb	r1, [r7, r2]
 535              	.LVL62:
 678:Generated_Source\PSoC5/Display0.c ****     }
 536              		.loc 1 678 0
 537 0058 0020     		movs	r0, #0
ARM GAS  C:\Users\ESTEBAN\AppData\Local\Temp\ccarh6t8.s 			page 24


 538 005a F8BD     		pop	{r3, r4, r5, r6, r7, pc}
 539              	.LVL63:
 540              	.L49:
 541              		.cfi_def_cfa_offset 0
 542              		.cfi_restore 3
 543              		.cfi_restore 4
 544              		.cfi_restore 5
 545              		.cfi_restore 6
 546              		.cfi_restore 7
 547              		.cfi_restore 14
 645:Generated_Source\PSoC5/Display0.c ****     }
 548              		.loc 1 645 0
 549 005c 0120     		movs	r0, #1
 550              	.LVL64:
 551 005e 7047     		bx	lr
 552              	.LVL65:
 553              	.L50:
 554 0060 0120     		movs	r0, #1
 555              	.LVL66:
 556 0062 7047     		bx	lr
 557              	.L54:
 558              		.align	2
 559              	.L53:
 560 0064 00000000 		.word	.LANCHOR0
 561              		.cfi_endproc
 562              	.LFE9:
 563              		.size	Display0_WritePixel, .-Display0_WritePixel
 564              		.section	.text.Display0_ClearDisplay,"ax",%progbits
 565              		.align	2
 566              		.global	Display0_ClearDisplay
 567              		.thumb
 568              		.thumb_func
 569              		.type	Display0_ClearDisplay, %function
 570              	Display0_ClearDisplay:
 571              	.LFB8:
 579:Generated_Source\PSoC5/Display0.c ****     uint16 i;
 572              		.loc 1 579 0
 573              		.cfi_startproc
 574              		@ args = 0, pretend = 0, frame = 0
 575              		@ frame_needed = 0, uses_anonymous_args = 0
 576 0000 08B5     		push	{r3, lr}
 577              		.cfi_def_cfa_offset 8
 578              		.cfi_offset 3, -8
 579              		.cfi_offset 14, -4
 580              	.LVL67:
 583:Generated_Source\PSoC5/Display0.c ****     {
 581              		.loc 1 583 0
 582 0002 0023     		movs	r3, #0
 583 0004 0AE0     		b	.L56
 584              	.LVL68:
 585              	.L59:
 585:Generated_Source\PSoC5/Display0.c ****         {
 586              		.loc 1 585 0
 587 0006 0F2B     		cmp	r3, #15
 588 0008 03D8     		bhi	.L57
 588:Generated_Source\PSoC5/Display0.c ****         }
 589              		.loc 1 588 0
ARM GAS  C:\Users\ESTEBAN\AppData\Local\Temp\ccarh6t8.s 			page 25


 590 000a 0021     		movs	r1, #0
 591 000c 074A     		ldr	r2, .L61
 592 000e D154     		strb	r1, [r2, r3]
 593 0010 02E0     		b	.L58
 594              	.L57:
 593:Generated_Source\PSoC5/Display0.c ****         }
 595              		.loc 1 593 0
 596 0012 FF21     		movs	r1, #255
 597 0014 054A     		ldr	r2, .L61
 598 0016 D154     		strb	r1, [r2, r3]
 599              	.L58:
 583:Generated_Source\PSoC5/Display0.c ****     {
 600              		.loc 1 583 0 discriminator 2
 601 0018 0133     		adds	r3, r3, #1
 602              	.LVL69:
 603 001a 9BB2     		uxth	r3, r3
 604              	.LVL70:
 605              	.L56:
 583:Generated_Source\PSoC5/Display0.c ****     {
 606              		.loc 1 583 0 is_stmt 0 discriminator 1
 607 001c 1F2B     		cmp	r3, #31
 608 001e F2D9     		bls	.L59
 598:Generated_Source\PSoC5/Display0.c **** }
 609              		.loc 1 598 0 is_stmt 1
 610 0020 0021     		movs	r1, #0
 611 0022 1520     		movs	r0, #21
 612 0024 FFF7FEFF 		bl	Display0_WritePixel
 613              	.LVL71:
 614 0028 08BD     		pop	{r3, pc}
 615              	.L62:
 616 002a 00BF     		.align	2
 617              	.L61:
 618 002c 00000000 		.word	.LANCHOR0
 619              		.cfi_endproc
 620              	.LFE8:
 621              		.size	Display0_ClearDisplay, .-Display0_ClearDisplay
 622              		.section	.text.Display0_Init,"ax",%progbits
 623              		.align	2
 624              		.global	Display0_Init
 625              		.thumb
 626              		.thumb_func
 627              		.type	Display0_Init, %function
 628              	Display0_Init:
 629              	.LFB0:
 200:Generated_Source\PSoC5/Display0.c ****     Display0_ClearDisplay();
 630              		.loc 1 200 0
 631              		.cfi_startproc
 632              		@ args = 0, pretend = 0, frame = 0
 633              		@ frame_needed = 0, uses_anonymous_args = 0
 634 0000 08B5     		push	{r3, lr}
 635              		.cfi_def_cfa_offset 8
 636              		.cfi_offset 3, -8
 637              		.cfi_offset 14, -4
 201:Generated_Source\PSoC5/Display0.c **** 
 638              		.loc 1 201 0
 639 0002 FFF7FEFF 		bl	Display0_ClearDisplay
 640              	.LVL72:
ARM GAS  C:\Users\ESTEBAN\AppData\Local\Temp\ccarh6t8.s 			page 26


 204:Generated_Source\PSoC5/Display0.c **** 
 641              		.loc 1 204 0
 642 0006 0122     		movs	r2, #1
 643 0008 054B     		ldr	r3, .L65
 644 000a 1A60     		str	r2, [r3]
 207:Generated_Source\PSoC5/Display0.c **** 
 645              		.loc 1 207 0
 646 000c 0549     		ldr	r1, .L65+4
 647 000e 0020     		movs	r0, #0
 648 0010 FFF7FEFF 		bl	CyIntSetVector
 649              	.LVL73:
 210:Generated_Source\PSoC5/Display0.c **** }
 650              		.loc 1 210 0
 651 0014 0721     		movs	r1, #7
 652 0016 0020     		movs	r0, #0
 653 0018 FFF7FEFF 		bl	CyIntSetPriority
 654              	.LVL74:
 655 001c 08BD     		pop	{r3, pc}
 656              	.L66:
 657 001e 00BF     		.align	2
 658              	.L65:
 659 0020 80E100E0 		.word	-536813184
 660 0024 00000000 		.word	Display0_ISR
 661              		.cfi_endproc
 662              	.LFE0:
 663              		.size	Display0_Init, .-Display0_Init
 664              		.section	.text.Display0_Start,"ax",%progbits
 665              		.align	2
 666              		.global	Display0_Start
 667              		.thumb
 668              		.thumb_func
 669              		.type	Display0_Start, %function
 670              	Display0_Start:
 671              	.LFB4:
 463:Generated_Source\PSoC5/Display0.c ****     uint8 status;
 672              		.loc 1 463 0
 673              		.cfi_startproc
 674              		@ args = 0, pretend = 0, frame = 0
 675              		@ frame_needed = 0, uses_anonymous_args = 0
 676 0000 08B5     		push	{r3, lr}
 677              		.cfi_def_cfa_offset 8
 678              		.cfi_offset 3, -8
 679              		.cfi_offset 14, -4
 467:Generated_Source\PSoC5/Display0.c ****     {
 680              		.loc 1 467 0
 681 0002 064B     		ldr	r3, .L70
 682 0004 93F82730 		ldrb	r3, [r3, #39]	@ zero_extendqisi2
 683 0008 2BB9     		cbnz	r3, .L68
 469:Generated_Source\PSoC5/Display0.c ****         Display0_Init();
 684              		.loc 1 469 0
 685 000a 0122     		movs	r2, #1
 686 000c 034B     		ldr	r3, .L70
 687 000e 83F82720 		strb	r2, [r3, #39]
 470:Generated_Source\PSoC5/Display0.c ****     }
 688              		.loc 1 470 0
 689 0012 FFF7FEFF 		bl	Display0_Init
 690              	.LVL75:
ARM GAS  C:\Users\ESTEBAN\AppData\Local\Temp\ccarh6t8.s 			page 27


 691              	.L68:
 473:Generated_Source\PSoC5/Display0.c **** 
 692              		.loc 1 473 0
 693 0016 FFF7FEFF 		bl	Display0_Enable
 694              	.LVL76:
 476:Generated_Source\PSoC5/Display0.c **** 
 695              		.loc 1 476 0
 696 001a 08BD     		pop	{r3, pc}
 697              	.L71:
 698              		.align	2
 699              	.L70:
 700 001c 00000000 		.word	.LANCHOR0
 701              		.cfi_endproc
 702              	.LFE4:
 703              		.size	Display0_Start, .-Display0_Start
 704              		.section	.text.Display0_WriteInvertState,"ax",%progbits
 705              		.align	2
 706              		.global	Display0_WriteInvertState
 707              		.thumb
 708              		.thumb_func
 709              		.type	Display0_WriteInvertState, %function
 710              	Display0_WriteInvertState:
 711              	.LFB11:
 737:Generated_Source\PSoC5/Display0.c **** 
 738:Generated_Source\PSoC5/Display0.c **** 
 739:Generated_Source\PSoC5/Display0.c **** /*******************************************************************************
 740:Generated_Source\PSoC5/Display0.c **** * Function Name: Display0_WriteInvertState
 741:Generated_Source\PSoC5/Display0.c **** ********************************************************************************
 742:Generated_Source\PSoC5/Display0.c **** *
 743:Generated_Source\PSoC5/Display0.c **** * Summary:
 744:Generated_Source\PSoC5/Display0.c **** *  This function inverts the display based on invertState.
 745:Generated_Source\PSoC5/Display0.c **** *
 746:Generated_Source\PSoC5/Display0.c **** * Parameters:
 747:Generated_Source\PSoC5/Display0.c **** *  invertState: the values can be - 0 (#Display0_NORMAL_STATE) for
 748:Generated_Source\PSoC5/Display0.c **** *               normal noninverted display and 1
 749:Generated_Source\PSoC5/Display0.c **** *                (#Display0_INVERTED_STATE) for inverted display.
 750:Generated_Source\PSoC5/Display0.c **** *
 751:Generated_Source\PSoC5/Display0.c **** * Return:
 752:Generated_Source\PSoC5/Display0.c **** *  One of standard status for PSoC3 Component:
 753:Generated_Source\PSoC5/Display0.c **** *      CYRET_SUCCESS - function completed successfully.
 754:Generated_Source\PSoC5/Display0.c **** *      CYRET_BAD_PARAM - evaluation of invertState parameter is failed.
 755:Generated_Source\PSoC5/Display0.c **** *
 756:Generated_Source\PSoC5/Display0.c **** *******************************************************************************/
 757:Generated_Source\PSoC5/Display0.c **** uint8 Display0_WriteInvertState(uint8 invertState) 
 758:Generated_Source\PSoC5/Display0.c **** {
 712              		.loc 1 758 0
 713              		.cfi_startproc
 714              		@ args = 0, pretend = 0, frame = 0
 715              		@ frame_needed = 0, uses_anonymous_args = 0
 716              	.LVL77:
 759:Generated_Source\PSoC5/Display0.c ****     uint8 status;
 760:Generated_Source\PSoC5/Display0.c **** 
 761:Generated_Source\PSoC5/Display0.c ****     /* Check if inverstState parameter is valid */
 762:Generated_Source\PSoC5/Display0.c ****     if(invertState <= Display0_INVERTED_STATE)
 717              		.loc 1 762 0
 718 0000 0128     		cmp	r0, #1
 719 0002 0DD8     		bhi	.L75
ARM GAS  C:\Users\ESTEBAN\AppData\Local\Temp\ccarh6t8.s 			page 28


 758:Generated_Source\PSoC5/Display0.c ****     uint8 status;
 720              		.loc 1 758 0
 721 0004 08B5     		push	{r3, lr}
 722              		.cfi_def_cfa_offset 8
 723              		.cfi_offset 3, -8
 724              		.cfi_offset 14, -4
 763:Generated_Source\PSoC5/Display0.c ****     {
 764:Generated_Source\PSoC5/Display0.c ****         /* If the staate is "Invert" then then set pixel - com0 to "1", otherwise
 765:Generated_Source\PSoC5/Display0.c ****         * set it to "0".
 766:Generated_Source\PSoC5/Display0.c ****         */
 767:Generated_Source\PSoC5/Display0.c ****         if(Display0_INVERTED_STATE == invertState)
 725              		.loc 1 767 0
 726 0006 05D1     		bne	.L74
 768:Generated_Source\PSoC5/Display0.c ****         {
 769:Generated_Source\PSoC5/Display0.c ****             Display0_WRITE_PIXEL(Display0_commons[0u], Display0_PIXEL_STATE_ON);
 727              		.loc 1 769 0
 728 0008 0121     		movs	r1, #1
 729 000a 1520     		movs	r0, #21
 730              	.LVL78:
 731 000c FFF7FEFF 		bl	Display0_WritePixel
 732              	.LVL79:
 770:Generated_Source\PSoC5/Display0.c ****         }
 771:Generated_Source\PSoC5/Display0.c ****         else
 772:Generated_Source\PSoC5/Display0.c ****         {
 773:Generated_Source\PSoC5/Display0.c ****             Display0_WRITE_PIXEL(Display0_commons[0u], Display0_PIXEL_STATE_OFF);
 774:Generated_Source\PSoC5/Display0.c ****         }
 775:Generated_Source\PSoC5/Display0.c **** 
 776:Generated_Source\PSoC5/Display0.c ****         status = CYRET_SUCCESS;
 733              		.loc 1 776 0
 734 0010 0020     		movs	r0, #0
 735 0012 08BD     		pop	{r3, pc}
 736              	.LVL80:
 737              	.L74:
 773:Generated_Source\PSoC5/Display0.c ****         }
 738              		.loc 1 773 0
 739 0014 0021     		movs	r1, #0
 740 0016 1520     		movs	r0, #21
 741              	.LVL81:
 742 0018 FFF7FEFF 		bl	Display0_WritePixel
 743              	.LVL82:
 744              		.loc 1 776 0
 745 001c 0020     		movs	r0, #0
 746 001e 08BD     		pop	{r3, pc}
 747              	.LVL83:
 748              	.L75:
 749              		.cfi_def_cfa_offset 0
 750              		.cfi_restore 3
 751              		.cfi_restore 14
 777:Generated_Source\PSoC5/Display0.c ****     }
 778:Generated_Source\PSoC5/Display0.c ****     else
 779:Generated_Source\PSoC5/Display0.c ****     {
 780:Generated_Source\PSoC5/Display0.c ****         status = CYRET_BAD_PARAM;
 752              		.loc 1 780 0
 753 0020 0120     		movs	r0, #1
 754              	.LVL84:
 755 0022 7047     		bx	lr
 756              		.cfi_endproc
ARM GAS  C:\Users\ESTEBAN\AppData\Local\Temp\ccarh6t8.s 			page 29


 757              	.LFE11:
 758              		.size	Display0_WriteInvertState, .-Display0_WriteInvertState
 759              		.section	.text.Display0_ReadInvertState,"ax",%progbits
 760              		.align	2
 761              		.global	Display0_ReadInvertState
 762              		.thumb
 763              		.thumb_func
 764              		.type	Display0_ReadInvertState, %function
 765              	Display0_ReadInvertState:
 766              	.LFB12:
 781:Generated_Source\PSoC5/Display0.c ****     }
 782:Generated_Source\PSoC5/Display0.c **** 
 783:Generated_Source\PSoC5/Display0.c ****     return(status);
 784:Generated_Source\PSoC5/Display0.c **** }
 785:Generated_Source\PSoC5/Display0.c **** 
 786:Generated_Source\PSoC5/Display0.c **** 
 787:Generated_Source\PSoC5/Display0.c **** /*******************************************************************************
 788:Generated_Source\PSoC5/Display0.c **** * Function Name: Display0_ReadInvertState
 789:Generated_Source\PSoC5/Display0.c **** ********************************************************************************
 790:Generated_Source\PSoC5/Display0.c **** *
 791:Generated_Source\PSoC5/Display0.c **** * Summary:
 792:Generated_Source\PSoC5/Display0.c **** *  This function returns the current state of the display, possible states are
 793:Generated_Source\PSoC5/Display0.c **** *  normal and inverted.
 794:Generated_Source\PSoC5/Display0.c **** *
 795:Generated_Source\PSoC5/Display0.c **** * Parameters:
 796:Generated_Source\PSoC5/Display0.c **** *  None.
 797:Generated_Source\PSoC5/Display0.c **** *
 798:Generated_Source\PSoC5/Display0.c **** * Return:
 799:Generated_Source\PSoC5/Display0.c **** *  Display0_NORMAL_STATE (0) - for normal non-inverted display.
 800:Generated_Source\PSoC5/Display0.c **** *  Display0_INVERTED_STATE (1) -  for inverted display.
 801:Generated_Source\PSoC5/Display0.c **** *
 802:Generated_Source\PSoC5/Display0.c **** *******************************************************************************/
 803:Generated_Source\PSoC5/Display0.c **** uint8 Display0_ReadInvertState(void) 
 804:Generated_Source\PSoC5/Display0.c **** {
 767              		.loc 1 804 0
 768              		.cfi_startproc
 769              		@ args = 0, pretend = 0, frame = 0
 770              		@ frame_needed = 0, uses_anonymous_args = 0
 771 0000 08B5     		push	{r3, lr}
 772              		.cfi_def_cfa_offset 8
 773              		.cfi_offset 3, -8
 774              		.cfi_offset 14, -4
 775              	.LVL85:
 805:Generated_Source\PSoC5/Display0.c ****     uint8 state = Display0_INVERTED_STATE;
 806:Generated_Source\PSoC5/Display0.c **** 
 807:Generated_Source\PSoC5/Display0.c ****     /* Get only invert bit of Driver Control Register */
 808:Generated_Source\PSoC5/Display0.c ****     if(Display0_PIXEL_STATE_OFF == Display0_ReadPixel(Display0_commons[0u]))
 776              		.loc 1 808 0
 777 0002 1520     		movs	r0, #21
 778 0004 FFF7FEFF 		bl	Display0_ReadPixel
 779              	.LVL86:
 780 0008 08B1     		cbz	r0, .L80
 805:Generated_Source\PSoC5/Display0.c ****     uint8 state = Display0_INVERTED_STATE;
 781              		.loc 1 805 0
 782 000a 0120     		movs	r0, #1
 783 000c 08BD     		pop	{r3, pc}
 784              	.L80:
ARM GAS  C:\Users\ESTEBAN\AppData\Local\Temp\ccarh6t8.s 			page 30


 809:Generated_Source\PSoC5/Display0.c ****     {
 810:Generated_Source\PSoC5/Display0.c ****         state = Display0_NORMAL_STATE;
 785              		.loc 1 810 0
 786 000e 0020     		movs	r0, #0
 787              	.LVL87:
 811:Generated_Source\PSoC5/Display0.c ****     }
 812:Generated_Source\PSoC5/Display0.c **** 
 813:Generated_Source\PSoC5/Display0.c ****     return(state);
 814:Generated_Source\PSoC5/Display0.c **** }
 788              		.loc 1 814 0
 789 0010 08BD     		pop	{r3, pc}
 790              		.cfi_endproc
 791              	.LFE12:
 792              		.size	Display0_ReadInvertState, .-Display0_ReadInvertState
 793              		.global	Display0_enableState
 794              		.global	Display0_initVar
 795 0012 00BF     		.section	.rodata
 796              		.align	2
 797              		.set	.LANCHOR1,. + 0
 798              		.type	Display0_StSegLcdPort_DMA_TD_PROTO_BLOCK.5152, %object
 799              		.size	Display0_StSegLcdPort_DMA_TD_PROTO_BLOCK.5152, 2
 800              	Display0_StSegLcdPort_DMA_TD_PROTO_BLOCK.5152:
 801 0000 01       		.byte	1
 802 0001 01       		.byte	1
 803              		.bss
 804              		.align	2
 805              		.set	.LANCHOR0,. + 0
 806              		.type	Display0_buffer, %object
 807              		.size	Display0_buffer, 32
 808              	Display0_buffer:
 809 0000 00000000 		.space	32
 809      00000000 
 809      00000000 
 809      00000000 
 809      00000000 
 810              		.type	Display0_lcdChannel, %object
 811              		.size	Display0_lcdChannel, 1
 812              	Display0_lcdChannel:
 813 0020 00       		.space	1
 814 0021 000000   		.space	3
 815              		.type	Display0_lcdTd, %object
 816              		.size	Display0_lcdTd, 2
 817              	Display0_lcdTd:
 818 0024 0000     		.space	2
 819              		.type	Display0_enableState, %object
 820              		.size	Display0_enableState, 1
 821              	Display0_enableState:
 822 0026 00       		.space	1
 823              		.type	Display0_initVar, %object
 824              		.size	Display0_initVar, 1
 825              	Display0_initVar:
 826 0027 00       		.space	1
 827              		.text
 828              	.Letext0:
 829              		.file 2 "Generated_Source\\PSoC5\\cytypes.h"
 830              		.file 3 "Generated_Source\\PSoC5\\Display0.h"
 831              		.file 4 "Generated_Source\\PSoC5/Display0_Lcd_Dma_dma.h"
ARM GAS  C:\Users\ESTEBAN\AppData\Local\Temp\ccarh6t8.s 			page 31


 832              		.file 5 "Generated_Source\\PSoC5/CYDMAC.H"
 833              		.file 6 "Generated_Source\\PSoC5/Display0_InClock.h"
 834              		.file 7 "Generated_Source\\PSoC5/CyLib.h"