ARM GAS  C:\Users\ESTEBAN\AppData\Local\Temp\ccz3APsx.s 			page 1


   1              		.syntax unified
   2              		.cpu cortex-m3
   3              		.fpu softvfp
   4              		.eabi_attribute 20, 1
   5              		.eabi_attribute 21, 1
   6              		.eabi_attribute 23, 3
   7              		.eabi_attribute 24, 1
   8              		.eabi_attribute 25, 1
   9              		.eabi_attribute 26, 1
  10              		.eabi_attribute 30, 1
  11              		.eabi_attribute 34, 1
  12              		.eabi_attribute 18, 4
  13              		.thumb
  14              		.syntax unified
  15              		.file	"Display2_PM.c"
  16              		.text
  17              	.Ltext0:
  18              		.cfi_sections	.debug_frame
  19              		.section	.text.Display2_SaveConfig,"ax",%progbits
  20              		.align	2
  21              		.global	Display2_SaveConfig
  22              		.thumb
  23              		.thumb_func
  24              		.type	Display2_SaveConfig, %function
  25              	Display2_SaveConfig:
  26              	.LFB0:
  27              		.file 1 "Generated_Source\\PSoC5\\Display2_PM.c"
   1:Generated_Source\PSoC5/Display2_PM.c **** /*******************************************************************************
   2:Generated_Source\PSoC5/Display2_PM.c **** * File Name: Display2_PM.c
   3:Generated_Source\PSoC5/Display2_PM.c **** * Version 3.40
   4:Generated_Source\PSoC5/Display2_PM.c **** *
   5:Generated_Source\PSoC5/Display2_PM.c **** * Description:
   6:Generated_Source\PSoC5/Display2_PM.c **** *  This file provides the API source code for Power Management of the Segment
   7:Generated_Source\PSoC5/Display2_PM.c **** *  LCD component.
   8:Generated_Source\PSoC5/Display2_PM.c **** *
   9:Generated_Source\PSoC5/Display2_PM.c **** * Note:
  10:Generated_Source\PSoC5/Display2_PM.c **** *
  11:Generated_Source\PSoC5/Display2_PM.c **** ********************************************************************************
  12:Generated_Source\PSoC5/Display2_PM.c **** * Copyright 2008-2012, Cypress Semiconductor Corporation.  All rights reserved.
  13:Generated_Source\PSoC5/Display2_PM.c **** * You may use this file only in accordance with the license, terms, conditions,
  14:Generated_Source\PSoC5/Display2_PM.c **** * disclaimers, and limitations in the end user license agreement accompanying
  15:Generated_Source\PSoC5/Display2_PM.c **** * the software package with which this file was provided.
  16:Generated_Source\PSoC5/Display2_PM.c **** *******************************************************************************/
  17:Generated_Source\PSoC5/Display2_PM.c **** 
  18:Generated_Source\PSoC5/Display2_PM.c **** #include "Display2.h"
  19:Generated_Source\PSoC5/Display2_PM.c **** #include "cyapicallbacks.h"
  20:Generated_Source\PSoC5/Display2_PM.c **** 
  21:Generated_Source\PSoC5/Display2_PM.c **** 
  22:Generated_Source\PSoC5/Display2_PM.c **** static Display2_BACKUP_STRUCT Display2_backup;
  23:Generated_Source\PSoC5/Display2_PM.c **** 
  24:Generated_Source\PSoC5/Display2_PM.c **** 
  25:Generated_Source\PSoC5/Display2_PM.c **** /*******************************************************************************
  26:Generated_Source\PSoC5/Display2_PM.c **** * Function Name: Display2_SaveConfig
  27:Generated_Source\PSoC5/Display2_PM.c **** ********************************************************************************
  28:Generated_Source\PSoC5/Display2_PM.c **** *
  29:Generated_Source\PSoC5/Display2_PM.c **** * Summary:
  30:Generated_Source\PSoC5/Display2_PM.c **** *  Stores user data. This function is called by the Display2_Sleep()
ARM GAS  C:\Users\ESTEBAN\AppData\Local\Temp\ccz3APsx.s 			page 2


  31:Generated_Source\PSoC5/Display2_PM.c **** *  function prior entering to a Sleep mode.
  32:Generated_Source\PSoC5/Display2_PM.c **** *
  33:Generated_Source\PSoC5/Display2_PM.c **** * Parameters:
  34:Generated_Source\PSoC5/Display2_PM.c **** *  None.
  35:Generated_Source\PSoC5/Display2_PM.c **** *
  36:Generated_Source\PSoC5/Display2_PM.c **** * Return:
  37:Generated_Source\PSoC5/Display2_PM.c **** *  None.
  38:Generated_Source\PSoC5/Display2_PM.c **** *
  39:Generated_Source\PSoC5/Display2_PM.c **** *******************************************************************************/
  40:Generated_Source\PSoC5/Display2_PM.c **** void Display2_SaveConfig(void) 
  41:Generated_Source\PSoC5/Display2_PM.c **** {
  28              		.loc 1 41 0
  29              		.cfi_startproc
  30              		@ args = 0, pretend = 0, frame = 0
  31              		@ frame_needed = 0, uses_anonymous_args = 0
  32              		@ link register save eliminated.
  33 0000 7047     		bx	lr
  34              		.cfi_endproc
  35              	.LFE0:
  36              		.size	Display2_SaveConfig, .-Display2_SaveConfig
  37 0002 00BF     		.section	.text.Display2_RestoreConfig,"ax",%progbits
  38              		.align	2
  39              		.global	Display2_RestoreConfig
  40              		.thumb
  41              		.thumb_func
  42              		.type	Display2_RestoreConfig, %function
  43              	Display2_RestoreConfig:
  44              	.LFB1:
  42:Generated_Source\PSoC5/Display2_PM.c ****     /* Nothing to save for current version of the component */
  43:Generated_Source\PSoC5/Display2_PM.c **** 
  44:Generated_Source\PSoC5/Display2_PM.c ****     /* Optional user code */
  45:Generated_Source\PSoC5/Display2_PM.c ****     /*`#START` SAVE_CONFIG_USER_CODE */
  46:Generated_Source\PSoC5/Display2_PM.c **** 
  47:Generated_Source\PSoC5/Display2_PM.c ****     /*`#END`*/
  48:Generated_Source\PSoC5/Display2_PM.c **** 
  49:Generated_Source\PSoC5/Display2_PM.c ****     #ifdef Display2_SAVE_CONFIG_CALLBACK
  50:Generated_Source\PSoC5/Display2_PM.c ****         Display2_SaveConfig_Callback();
  51:Generated_Source\PSoC5/Display2_PM.c ****     #endif /* Display2_SAVE_CONFIG_CALLBACK */
  52:Generated_Source\PSoC5/Display2_PM.c **** }
  53:Generated_Source\PSoC5/Display2_PM.c **** 
  54:Generated_Source\PSoC5/Display2_PM.c **** 
  55:Generated_Source\PSoC5/Display2_PM.c **** /*******************************************************************************
  56:Generated_Source\PSoC5/Display2_PM.c **** * Function Name: Display2_RestoreConfig
  57:Generated_Source\PSoC5/Display2_PM.c **** ********************************************************************************
  58:Generated_Source\PSoC5/Display2_PM.c **** *
  59:Generated_Source\PSoC5/Display2_PM.c **** * Summary:
  60:Generated_Source\PSoC5/Display2_PM.c **** *  Restores user data. This function is called by the Display2_Wakeup()
  61:Generated_Source\PSoC5/Display2_PM.c **** *  function after resuming from a Sleep mode.
  62:Generated_Source\PSoC5/Display2_PM.c **** *
  63:Generated_Source\PSoC5/Display2_PM.c **** * Parameters:
  64:Generated_Source\PSoC5/Display2_PM.c **** *  None.
  65:Generated_Source\PSoC5/Display2_PM.c **** *
  66:Generated_Source\PSoC5/Display2_PM.c **** * Return:
  67:Generated_Source\PSoC5/Display2_PM.c **** *  None.
  68:Generated_Source\PSoC5/Display2_PM.c **** *
  69:Generated_Source\PSoC5/Display2_PM.c **** *******************************************************************************/
  70:Generated_Source\PSoC5/Display2_PM.c **** void Display2_RestoreConfig(void) 
ARM GAS  C:\Users\ESTEBAN\AppData\Local\Temp\ccz3APsx.s 			page 3


  71:Generated_Source\PSoC5/Display2_PM.c **** {
  45              		.loc 1 71 0
  46              		.cfi_startproc
  47              		@ args = 0, pretend = 0, frame = 0
  48              		@ frame_needed = 0, uses_anonymous_args = 0
  49              		@ link register save eliminated.
  50 0000 7047     		bx	lr
  51              		.cfi_endproc
  52              	.LFE1:
  53              		.size	Display2_RestoreConfig, .-Display2_RestoreConfig
  54 0002 00BF     		.section	.text.Display2_Sleep,"ax",%progbits
  55              		.align	2
  56              		.global	Display2_Sleep
  57              		.thumb
  58              		.thumb_func
  59              		.type	Display2_Sleep, %function
  60              	Display2_Sleep:
  61              	.LFB2:
  72:Generated_Source\PSoC5/Display2_PM.c ****     /* Nothing to restore for current version of the component */
  73:Generated_Source\PSoC5/Display2_PM.c **** 
  74:Generated_Source\PSoC5/Display2_PM.c ****     /* Optional user code */
  75:Generated_Source\PSoC5/Display2_PM.c ****     /*`#START RESTORE_CONFIG_USER_CODE` */
  76:Generated_Source\PSoC5/Display2_PM.c **** 
  77:Generated_Source\PSoC5/Display2_PM.c ****     /*`#END`*/
  78:Generated_Source\PSoC5/Display2_PM.c **** 
  79:Generated_Source\PSoC5/Display2_PM.c ****     #ifdef Display2_RESTORE_CONFIG_CALLBACK
  80:Generated_Source\PSoC5/Display2_PM.c ****         Display2_RestoreConfig_Callback();
  81:Generated_Source\PSoC5/Display2_PM.c ****     #endif /* Display2_RESTORE_CONFIG_CALLBACK */
  82:Generated_Source\PSoC5/Display2_PM.c **** }
  83:Generated_Source\PSoC5/Display2_PM.c **** 
  84:Generated_Source\PSoC5/Display2_PM.c **** 
  85:Generated_Source\PSoC5/Display2_PM.c **** /*******************************************************************************
  86:Generated_Source\PSoC5/Display2_PM.c **** * Function Name: Display2_Sleep
  87:Generated_Source\PSoC5/Display2_PM.c **** ********************************************************************************
  88:Generated_Source\PSoC5/Display2_PM.c **** *
  89:Generated_Source\PSoC5/Display2_PM.c **** * Summary:
  90:Generated_Source\PSoC5/Display2_PM.c **** *  Prepare the component to enter into a Sleep mode.
  91:Generated_Source\PSoC5/Display2_PM.c **** *
  92:Generated_Source\PSoC5/Display2_PM.c **** * Parameters:
  93:Generated_Source\PSoC5/Display2_PM.c **** *  None.
  94:Generated_Source\PSoC5/Display2_PM.c **** *
  95:Generated_Source\PSoC5/Display2_PM.c **** * Return:
  96:Generated_Source\PSoC5/Display2_PM.c **** *  None.
  97:Generated_Source\PSoC5/Display2_PM.c **** *
  98:Generated_Source\PSoC5/Display2_PM.c **** * Global variables:
  99:Generated_Source\PSoC5/Display2_PM.c **** *  Display2_backup - stores the state of the component.
 100:Generated_Source\PSoC5/Display2_PM.c **** *
 101:Generated_Source\PSoC5/Display2_PM.c **** * Reentrant:
 102:Generated_Source\PSoC5/Display2_PM.c **** *  No.
 103:Generated_Source\PSoC5/Display2_PM.c **** *
 104:Generated_Source\PSoC5/Display2_PM.c **** *******************************************************************************/
 105:Generated_Source\PSoC5/Display2_PM.c **** void Display2_Sleep(void) 
 106:Generated_Source\PSoC5/Display2_PM.c **** {
  62              		.loc 1 106 0
  63              		.cfi_startproc
  64              		@ args = 0, pretend = 0, frame = 0
  65              		@ frame_needed = 0, uses_anonymous_args = 0
ARM GAS  C:\Users\ESTEBAN\AppData\Local\Temp\ccz3APsx.s 			page 4


  66              		.loc 1 106 0
  67 0000 08B5     		push	{r3, lr}
  68              		.cfi_def_cfa_offset 8
  69              		.cfi_offset 3, -8
  70              		.cfi_offset 14, -4
 107:Generated_Source\PSoC5/Display2_PM.c ****     if((Display2_CONTROL_REG & Display2_CNTL_CLK_EN) == Display2_CNTL_CLK_EN)
  71              		.loc 1 107 0
  72 0002 074B     		ldr	r3, .L7
  73 0004 1B78     		ldrb	r3, [r3]	@ zero_extendqisi2
  74 0006 13F0010F 		tst	r3, #1
  75 000a 03D0     		beq	.L4
 108:Generated_Source\PSoC5/Display2_PM.c ****     {
 109:Generated_Source\PSoC5/Display2_PM.c ****         Display2_backup.enableState = Display2_LCD_STATE_ENABLED;
  76              		.loc 1 109 0
  77 000c 0122     		movs	r2, #1
  78 000e 054B     		ldr	r3, .L7+4
  79 0010 1A70     		strb	r2, [r3]
  80 0012 02E0     		b	.L5
  81              	.L4:
 110:Generated_Source\PSoC5/Display2_PM.c ****     }
 111:Generated_Source\PSoC5/Display2_PM.c ****     else
 112:Generated_Source\PSoC5/Display2_PM.c ****     {
 113:Generated_Source\PSoC5/Display2_PM.c ****         Display2_backup.enableState = Display2_LCD_STATE_DISABLED;
  82              		.loc 1 113 0
  83 0014 0022     		movs	r2, #0
  84 0016 034B     		ldr	r3, .L7+4
  85 0018 1A70     		strb	r2, [r3]
  86              	.L5:
 114:Generated_Source\PSoC5/Display2_PM.c ****     }
 115:Generated_Source\PSoC5/Display2_PM.c **** 
 116:Generated_Source\PSoC5/Display2_PM.c ****     Display2_Stop();
  87              		.loc 1 116 0
  88 001a FFF7FEFF 		bl	Display2_Stop
  89              	.LVL0:
  90 001e 08BD     		pop	{r3, pc}
  91              	.L8:
  92              		.align	2
  93              	.L7:
  94 0020 75650040 		.word	1073767797
  95 0024 00000000 		.word	.LANCHOR0
  96              		.cfi_endproc
  97              	.LFE2:
  98              		.size	Display2_Sleep, .-Display2_Sleep
  99              		.section	.text.Display2_Wakeup,"ax",%progbits
 100              		.align	2
 101              		.global	Display2_Wakeup
 102              		.thumb
 103              		.thumb_func
 104              		.type	Display2_Wakeup, %function
 105              	Display2_Wakeup:
 106              	.LFB3:
 117:Generated_Source\PSoC5/Display2_PM.c ****     Display2_SaveConfig();
 118:Generated_Source\PSoC5/Display2_PM.c **** }
 119:Generated_Source\PSoC5/Display2_PM.c **** 
 120:Generated_Source\PSoC5/Display2_PM.c **** 
 121:Generated_Source\PSoC5/Display2_PM.c **** /*******************************************************************************
 122:Generated_Source\PSoC5/Display2_PM.c **** * Function Name: Display2_Wakeup
ARM GAS  C:\Users\ESTEBAN\AppData\Local\Temp\ccz3APsx.s 			page 5


 123:Generated_Source\PSoC5/Display2_PM.c **** ********************************************************************************
 124:Generated_Source\PSoC5/Display2_PM.c **** *
 125:Generated_Source\PSoC5/Display2_PM.c **** * Summary:
 126:Generated_Source\PSoC5/Display2_PM.c **** *  Wakes up components from a Sleep mode.
 127:Generated_Source\PSoC5/Display2_PM.c **** *
 128:Generated_Source\PSoC5/Display2_PM.c **** * Parameters:
 129:Generated_Source\PSoC5/Display2_PM.c **** *  None.
 130:Generated_Source\PSoC5/Display2_PM.c **** *
 131:Generated_Source\PSoC5/Display2_PM.c **** * Return:
 132:Generated_Source\PSoC5/Display2_PM.c **** *  Status one of standard status for PSoC3 Component:
 133:Generated_Source\PSoC5/Display2_PM.c **** *      CYRET_SUCCESS - Function completed successfully.
 134:Generated_Source\PSoC5/Display2_PM.c **** *      CYRET_LOCKED - The object was locked, already in use. Some of TDs or a
 135:Generated_Source\PSoC5/Display2_PM.c **** *                     channel already in use or the component was turned off by
 136:Generated_Source\PSoC5/Display2_PM.c **** *                     the user before entering to a sleep.
 137:Generated_Source\PSoC5/Display2_PM.c **** *
 138:Generated_Source\PSoC5/Display2_PM.c **** * Global variables:
 139:Generated_Source\PSoC5/Display2_PM.c **** *  Display2_backup - this API fetch the component state from the
 140:Generated_Source\PSoC5/Display2_PM.c **** *  structure to analyze and decide if the component should be enabled or not
 141:Generated_Source\PSoC5/Display2_PM.c **** *  after waking from a Sleep mode.
 142:Generated_Source\PSoC5/Display2_PM.c **** *
 143:Generated_Source\PSoC5/Display2_PM.c **** * Reentrant:
 144:Generated_Source\PSoC5/Display2_PM.c **** *  No.
 145:Generated_Source\PSoC5/Display2_PM.c **** *
 146:Generated_Source\PSoC5/Display2_PM.c **** *******************************************************************************/
 147:Generated_Source\PSoC5/Display2_PM.c **** uint8 Display2_Wakeup(void) 
 148:Generated_Source\PSoC5/Display2_PM.c **** {
 107              		.loc 1 148 0
 108              		.cfi_startproc
 109              		@ args = 0, pretend = 0, frame = 0
 110              		@ frame_needed = 0, uses_anonymous_args = 0
 111 0000 08B5     		push	{r3, lr}
 112              		.cfi_def_cfa_offset 8
 113              		.cfi_offset 3, -8
 114              		.cfi_offset 14, -4
 149:Generated_Source\PSoC5/Display2_PM.c ****     uint8 status;
 150:Generated_Source\PSoC5/Display2_PM.c **** 
 151:Generated_Source\PSoC5/Display2_PM.c ****     Display2_RestoreConfig();
 152:Generated_Source\PSoC5/Display2_PM.c **** 
 153:Generated_Source\PSoC5/Display2_PM.c ****     if(Display2_backup.enableState == Display2_LCD_STATE_ENABLED)
 115              		.loc 1 153 0
 116 0002 044B     		ldr	r3, .L13
 117 0004 1B78     		ldrb	r3, [r3]	@ zero_extendqisi2
 118 0006 012B     		cmp	r3, #1
 119 0008 02D1     		bne	.L11
 154:Generated_Source\PSoC5/Display2_PM.c ****     {
 155:Generated_Source\PSoC5/Display2_PM.c ****         status = Display2_Enable();
 120              		.loc 1 155 0
 121 000a FFF7FEFF 		bl	Display2_Enable
 122              	.LVL1:
 123 000e 08BD     		pop	{r3, pc}
 124              	.LVL2:
 125              	.L11:
 156:Generated_Source\PSoC5/Display2_PM.c ****     }
 157:Generated_Source\PSoC5/Display2_PM.c ****     else
 158:Generated_Source\PSoC5/Display2_PM.c ****     {
 159:Generated_Source\PSoC5/Display2_PM.c ****         status = CYRET_LOCKED;
 126              		.loc 1 159 0
ARM GAS  C:\Users\ESTEBAN\AppData\Local\Temp\ccz3APsx.s 			page 6


 127 0010 0420     		movs	r0, #4
 128              	.LVL3:
 160:Generated_Source\PSoC5/Display2_PM.c ****     }
 161:Generated_Source\PSoC5/Display2_PM.c **** 
 162:Generated_Source\PSoC5/Display2_PM.c ****     return(status);
 163:Generated_Source\PSoC5/Display2_PM.c **** }
 129              		.loc 1 163 0
 130 0012 08BD     		pop	{r3, pc}
 131              	.L14:
 132              		.align	2
 133              	.L13:
 134 0014 00000000 		.word	.LANCHOR0
 135              		.cfi_endproc
 136              	.LFE3:
 137              		.size	Display2_Wakeup, .-Display2_Wakeup
 138              		.bss
 139              		.align	2
 140              		.set	.LANCHOR0,. + 0
 141              		.type	Display2_backup, %object
 142              		.size	Display2_backup, 1
 143              	Display2_backup:
 144 0000 00       		.space	1
 145              		.text
 146              	.Letext0:
 147              		.file 2 "Generated_Source\\PSoC5\\cytypes.h"
 148              		.file 3 "Generated_Source\\PSoC5\\Display2.h"