ARM GAS  C:\Users\ESTEBAN\AppData\Local\Temp\cchGePNe.s 			page 1


   1              		.syntax unified
   2              		.cpu cortex-m3
   3              		.fpu softvfp
   4              		.eabi_attribute 20, 1
   5              		.eabi_attribute 21, 1
   6              		.eabi_attribute 23, 3
   7              		.eabi_attribute 24, 1
   8              		.eabi_attribute 25, 1
   9              		.eabi_attribute 26, 1
  10              		.eabi_attribute 30, 1
  11              		.eabi_attribute 34, 1
  12              		.eabi_attribute 18, 4
  13              		.thumb
  14              		.syntax unified
  15              		.file	"LCD_SegStatic_1_PM.c"
  16              		.text
  17              	.Ltext0:
  18              		.cfi_sections	.debug_frame
  19              		.section	.text.LCD_SegStatic_1_SaveConfig,"ax",%progbits
  20              		.align	2
  21              		.global	LCD_SegStatic_1_SaveConfig
  22              		.thumb
  23              		.thumb_func
  24              		.type	LCD_SegStatic_1_SaveConfig, %function
  25              	LCD_SegStatic_1_SaveConfig:
  26              	.LFB0:
  27              		.file 1 "Generated_Source\\PSoC5\\LCD_SegStatic_1_PM.c"
   1:Generated_Source\PSoC5/LCD_SegStatic_1_PM.c **** /*******************************************************************************
   2:Generated_Source\PSoC5/LCD_SegStatic_1_PM.c **** * File Name: LCD_SegStatic_1_PM.c
   3:Generated_Source\PSoC5/LCD_SegStatic_1_PM.c **** * Version 2.30
   4:Generated_Source\PSoC5/LCD_SegStatic_1_PM.c **** *
   5:Generated_Source\PSoC5/LCD_SegStatic_1_PM.c **** * Description:
   6:Generated_Source\PSoC5/LCD_SegStatic_1_PM.c **** *  This file provides the API source code for Power Management of the Static
   7:Generated_Source\PSoC5/LCD_SegStatic_1_PM.c **** *  Segment LCD component.
   8:Generated_Source\PSoC5/LCD_SegStatic_1_PM.c **** *
   9:Generated_Source\PSoC5/LCD_SegStatic_1_PM.c **** * Note:
  10:Generated_Source\PSoC5/LCD_SegStatic_1_PM.c **** *
  11:Generated_Source\PSoC5/LCD_SegStatic_1_PM.c **** ********************************************************************************
  12:Generated_Source\PSoC5/LCD_SegStatic_1_PM.c **** * Copyright 2008-2013, Cypress Semiconductor Corporation.  All rights reserved.
  13:Generated_Source\PSoC5/LCD_SegStatic_1_PM.c **** * You may use this file only in accordance with the license, terms, conditions,
  14:Generated_Source\PSoC5/LCD_SegStatic_1_PM.c **** * disclaimers, and limitations in the end user license agreement accompanying
  15:Generated_Source\PSoC5/LCD_SegStatic_1_PM.c **** * the software package with which this file was provided.
  16:Generated_Source\PSoC5/LCD_SegStatic_1_PM.c **** *******************************************************************************/
  17:Generated_Source\PSoC5/LCD_SegStatic_1_PM.c **** 
  18:Generated_Source\PSoC5/LCD_SegStatic_1_PM.c **** #include "LCD_SegStatic_1.h"
  19:Generated_Source\PSoC5/LCD_SegStatic_1_PM.c **** 
  20:Generated_Source\PSoC5/LCD_SegStatic_1_PM.c **** 
  21:Generated_Source\PSoC5/LCD_SegStatic_1_PM.c **** static LCD_SegStatic_1_BACKUP_STRUCT LCD_SegStatic_1_backup;
  22:Generated_Source\PSoC5/LCD_SegStatic_1_PM.c **** 
  23:Generated_Source\PSoC5/LCD_SegStatic_1_PM.c **** 
  24:Generated_Source\PSoC5/LCD_SegStatic_1_PM.c **** /*******************************************************************************
  25:Generated_Source\PSoC5/LCD_SegStatic_1_PM.c **** * Function Name: LCD_SegStatic_1_SaveConfig
  26:Generated_Source\PSoC5/LCD_SegStatic_1_PM.c **** ********************************************************************************
  27:Generated_Source\PSoC5/LCD_SegStatic_1_PM.c **** *
  28:Generated_Source\PSoC5/LCD_SegStatic_1_PM.c **** * Summary:
  29:Generated_Source\PSoC5/LCD_SegStatic_1_PM.c **** *  Does nothing, provided for consistency.
  30:Generated_Source\PSoC5/LCD_SegStatic_1_PM.c **** *
ARM GAS  C:\Users\ESTEBAN\AppData\Local\Temp\cchGePNe.s 			page 2


  31:Generated_Source\PSoC5/LCD_SegStatic_1_PM.c **** * Parameters:
  32:Generated_Source\PSoC5/LCD_SegStatic_1_PM.c **** *  None.
  33:Generated_Source\PSoC5/LCD_SegStatic_1_PM.c **** *
  34:Generated_Source\PSoC5/LCD_SegStatic_1_PM.c **** * Return:
  35:Generated_Source\PSoC5/LCD_SegStatic_1_PM.c **** *  None.
  36:Generated_Source\PSoC5/LCD_SegStatic_1_PM.c **** *
  37:Generated_Source\PSoC5/LCD_SegStatic_1_PM.c **** *******************************************************************************/
  38:Generated_Source\PSoC5/LCD_SegStatic_1_PM.c **** void LCD_SegStatic_1_SaveConfig(void) 
  39:Generated_Source\PSoC5/LCD_SegStatic_1_PM.c **** {
  28              		.loc 1 39 0
  29              		.cfi_startproc
  30              		@ args = 0, pretend = 0, frame = 0
  31              		@ frame_needed = 0, uses_anonymous_args = 0
  32              		@ link register save eliminated.
  33 0000 7047     		bx	lr
  34              		.cfi_endproc
  35              	.LFE0:
  36              		.size	LCD_SegStatic_1_SaveConfig, .-LCD_SegStatic_1_SaveConfig
  37 0002 00BF     		.section	.text.LCD_SegStatic_1_RestoreConfig,"ax",%progbits
  38              		.align	2
  39              		.global	LCD_SegStatic_1_RestoreConfig
  40              		.thumb
  41              		.thumb_func
  42              		.type	LCD_SegStatic_1_RestoreConfig, %function
  43              	LCD_SegStatic_1_RestoreConfig:
  44              	.LFB1:
  40:Generated_Source\PSoC5/LCD_SegStatic_1_PM.c ****     /* Nothing to save in current version */
  41:Generated_Source\PSoC5/LCD_SegStatic_1_PM.c **** }
  42:Generated_Source\PSoC5/LCD_SegStatic_1_PM.c **** 
  43:Generated_Source\PSoC5/LCD_SegStatic_1_PM.c **** 
  44:Generated_Source\PSoC5/LCD_SegStatic_1_PM.c **** /*******************************************************************************
  45:Generated_Source\PSoC5/LCD_SegStatic_1_PM.c **** * Function Name: LCD_SegStatic_1_RestoreConfig
  46:Generated_Source\PSoC5/LCD_SegStatic_1_PM.c **** ********************************************************************************
  47:Generated_Source\PSoC5/LCD_SegStatic_1_PM.c **** *
  48:Generated_Source\PSoC5/LCD_SegStatic_1_PM.c **** * Summary:
  49:Generated_Source\PSoC5/LCD_SegStatic_1_PM.c **** *  Does nothing, provided for consistency.
  50:Generated_Source\PSoC5/LCD_SegStatic_1_PM.c **** *
  51:Generated_Source\PSoC5/LCD_SegStatic_1_PM.c **** * Parameters:
  52:Generated_Source\PSoC5/LCD_SegStatic_1_PM.c **** *  None.
  53:Generated_Source\PSoC5/LCD_SegStatic_1_PM.c **** *
  54:Generated_Source\PSoC5/LCD_SegStatic_1_PM.c **** * Return:
  55:Generated_Source\PSoC5/LCD_SegStatic_1_PM.c **** *  None.
  56:Generated_Source\PSoC5/LCD_SegStatic_1_PM.c **** *
  57:Generated_Source\PSoC5/LCD_SegStatic_1_PM.c **** *******************************************************************************/
  58:Generated_Source\PSoC5/LCD_SegStatic_1_PM.c **** void LCD_SegStatic_1_RestoreConfig(void) 
  59:Generated_Source\PSoC5/LCD_SegStatic_1_PM.c **** {
  45              		.loc 1 59 0
  46              		.cfi_startproc
  47              		@ args = 0, pretend = 0, frame = 0
  48              		@ frame_needed = 0, uses_anonymous_args = 0
  49              		@ link register save eliminated.
  50 0000 7047     		bx	lr
  51              		.cfi_endproc
  52              	.LFE1:
  53              		.size	LCD_SegStatic_1_RestoreConfig, .-LCD_SegStatic_1_RestoreConfig
  54 0002 00BF     		.section	.text.LCD_SegStatic_1_Sleep,"ax",%progbits
  55              		.align	2
ARM GAS  C:\Users\ESTEBAN\AppData\Local\Temp\cchGePNe.s 			page 3


  56              		.global	LCD_SegStatic_1_Sleep
  57              		.thumb
  58              		.thumb_func
  59              		.type	LCD_SegStatic_1_Sleep, %function
  60              	LCD_SegStatic_1_Sleep:
  61              	.LFB2:
  60:Generated_Source\PSoC5/LCD_SegStatic_1_PM.c ****     /* Nothing to restore in current version */
  61:Generated_Source\PSoC5/LCD_SegStatic_1_PM.c **** }
  62:Generated_Source\PSoC5/LCD_SegStatic_1_PM.c **** 
  63:Generated_Source\PSoC5/LCD_SegStatic_1_PM.c **** 
  64:Generated_Source\PSoC5/LCD_SegStatic_1_PM.c **** /*******************************************************************************
  65:Generated_Source\PSoC5/LCD_SegStatic_1_PM.c **** * Function Name: LCD_SegStatic_1_Sleep
  66:Generated_Source\PSoC5/LCD_SegStatic_1_PM.c **** ********************************************************************************
  67:Generated_Source\PSoC5/LCD_SegStatic_1_PM.c **** *
  68:Generated_Source\PSoC5/LCD_SegStatic_1_PM.c **** * Summary:
  69:Generated_Source\PSoC5/LCD_SegStatic_1_PM.c **** *  Prepares component for entering the sleep mode.
  70:Generated_Source\PSoC5/LCD_SegStatic_1_PM.c **** *
  71:Generated_Source\PSoC5/LCD_SegStatic_1_PM.c **** * Parameters:
  72:Generated_Source\PSoC5/LCD_SegStatic_1_PM.c **** *  None.
  73:Generated_Source\PSoC5/LCD_SegStatic_1_PM.c **** 
  74:Generated_Source\PSoC5/LCD_SegStatic_1_PM.c **** *
  75:Generated_Source\PSoC5/LCD_SegStatic_1_PM.c **** * Return:
  76:Generated_Source\PSoC5/LCD_SegStatic_1_PM.c **** *  None.
  77:Generated_Source\PSoC5/LCD_SegStatic_1_PM.c **** *
  78:Generated_Source\PSoC5/LCD_SegStatic_1_PM.c **** * Global variables:
  79:Generated_Source\PSoC5/LCD_SegStatic_1_PM.c **** *  LCD_SegStatic_1_enableState - holds a state of the component that will be
  80:Generated_Source\PSoC5/LCD_SegStatic_1_PM.c **** *  stored in LCD_SegStatic_1_backup.
  81:Generated_Source\PSoC5/LCD_SegStatic_1_PM.c **** *
  82:Generated_Source\PSoC5/LCD_SegStatic_1_PM.c **** *  LCD_SegStatic_1_backup - stores the state of the component.
  83:Generated_Source\PSoC5/LCD_SegStatic_1_PM.c **** *
  84:Generated_Source\PSoC5/LCD_SegStatic_1_PM.c **** * Reentrant:
  85:Generated_Source\PSoC5/LCD_SegStatic_1_PM.c **** *  No.
  86:Generated_Source\PSoC5/LCD_SegStatic_1_PM.c **** *
  87:Generated_Source\PSoC5/LCD_SegStatic_1_PM.c **** *******************************************************************************/
  88:Generated_Source\PSoC5/LCD_SegStatic_1_PM.c **** void LCD_SegStatic_1_Sleep(void) 
  89:Generated_Source\PSoC5/LCD_SegStatic_1_PM.c **** {
  62              		.loc 1 89 0
  63              		.cfi_startproc
  64              		@ args = 0, pretend = 0, frame = 0
  65              		@ frame_needed = 0, uses_anonymous_args = 0
  66              		.loc 1 89 0
  67 0000 08B5     		push	{r3, lr}
  68              		.cfi_def_cfa_offset 8
  69              		.cfi_offset 3, -8
  70              		.cfi_offset 14, -4
  90:Generated_Source\PSoC5/LCD_SegStatic_1_PM.c ****     LCD_SegStatic_1_backup.enableState = LCD_SegStatic_1_enableState;
  71              		.loc 1 90 0
  72 0002 034B     		ldr	r3, .L5
  73 0004 1A78     		ldrb	r2, [r3]	@ zero_extendqisi2
  74 0006 034B     		ldr	r3, .L5+4
  75 0008 1A70     		strb	r2, [r3]
  91:Generated_Source\PSoC5/LCD_SegStatic_1_PM.c ****     LCD_SegStatic_1_SaveConfig();
  92:Generated_Source\PSoC5/LCD_SegStatic_1_PM.c ****     LCD_SegStatic_1_Stop();
  76              		.loc 1 92 0
  77 000a FFF7FEFF 		bl	LCD_SegStatic_1_Stop
  78              	.LVL0:
  79 000e 08BD     		pop	{r3, pc}
ARM GAS  C:\Users\ESTEBAN\AppData\Local\Temp\cchGePNe.s 			page 4


  80              	.L6:
  81              		.align	2
  82              	.L5:
  83 0010 00000000 		.word	LCD_SegStatic_1_enableState
  84 0014 00000000 		.word	.LANCHOR0
  85              		.cfi_endproc
  86              	.LFE2:
  87              		.size	LCD_SegStatic_1_Sleep, .-LCD_SegStatic_1_Sleep
  88              		.section	.text.LCD_SegStatic_1_Wakeup,"ax",%progbits
  89              		.align	2
  90              		.global	LCD_SegStatic_1_Wakeup
  91              		.thumb
  92              		.thumb_func
  93              		.type	LCD_SegStatic_1_Wakeup, %function
  94              	LCD_SegStatic_1_Wakeup:
  95              	.LFB3:
  93:Generated_Source\PSoC5/LCD_SegStatic_1_PM.c **** }
  94:Generated_Source\PSoC5/LCD_SegStatic_1_PM.c **** 
  95:Generated_Source\PSoC5/LCD_SegStatic_1_PM.c **** 
  96:Generated_Source\PSoC5/LCD_SegStatic_1_PM.c **** /*******************************************************************************
  97:Generated_Source\PSoC5/LCD_SegStatic_1_PM.c **** * Function Name: LCD_SegStatic_1_Wakeup
  98:Generated_Source\PSoC5/LCD_SegStatic_1_PM.c **** ********************************************************************************
  99:Generated_Source\PSoC5/LCD_SegStatic_1_PM.c **** *
 100:Generated_Source\PSoC5/LCD_SegStatic_1_PM.c **** * Summary:
 101:Generated_Source\PSoC5/LCD_SegStatic_1_PM.c **** *  Wakes component from sleep mode. Configures DMA and enables the component for
 102:Generated_Source\PSoC5/LCD_SegStatic_1_PM.c **** *  normal operation.
 103:Generated_Source\PSoC5/LCD_SegStatic_1_PM.c **** *
 104:Generated_Source\PSoC5/LCD_SegStatic_1_PM.c **** * Parameters:
 105:Generated_Source\PSoC5/LCD_SegStatic_1_PM.c **** *  LCD_SegStatic_1_enableState - Global variable.
 106:Generated_Source\PSoC5/LCD_SegStatic_1_PM.c **** *
 107:Generated_Source\PSoC5/LCD_SegStatic_1_PM.c **** * Global variables:
 108:Generated_Source\PSoC5/LCD_SegStatic_1_PM.c **** *  LCD_SegStatic_1_backup - this API fetch the component state from the
 109:Generated_Source\PSoC5/LCD_SegStatic_1_PM.c **** *  structure to analyze and decide if the component should be enabled or not.
 110:Generated_Source\PSoC5/LCD_SegStatic_1_PM.c **** *
 111:Generated_Source\PSoC5/LCD_SegStatic_1_PM.c **** * Return:
 112:Generated_Source\PSoC5/LCD_SegStatic_1_PM.c **** *  Status one of standard status for PSoC3 Component:
 113:Generated_Source\PSoC5/LCD_SegStatic_1_PM.c **** *       CYRET_SUCCESS - Function completed successfully.
 114:Generated_Source\PSoC5/LCD_SegStatic_1_PM.c **** *       CYRET_LOCKED - The object was locked, already in use. Some of TDs or
 115:Generated_Source\PSoC5/LCD_SegStatic_1_PM.c **** *                      a channel already in use or the component was turned
 116:Generated_Source\PSoC5/LCD_SegStatic_1_PM.c **** *                      off by the user before entering to a sleep.
 117:Generated_Source\PSoC5/LCD_SegStatic_1_PM.c **** *
 118:Generated_Source\PSoC5/LCD_SegStatic_1_PM.c **** * Reentrant:
 119:Generated_Source\PSoC5/LCD_SegStatic_1_PM.c **** *  No.
 120:Generated_Source\PSoC5/LCD_SegStatic_1_PM.c **** *
 121:Generated_Source\PSoC5/LCD_SegStatic_1_PM.c **** *******************************************************************************/
 122:Generated_Source\PSoC5/LCD_SegStatic_1_PM.c **** uint8 LCD_SegStatic_1_Wakeup(void) 
 123:Generated_Source\PSoC5/LCD_SegStatic_1_PM.c **** {
  96              		.loc 1 123 0
  97              		.cfi_startproc
  98              		@ args = 0, pretend = 0, frame = 0
  99              		@ frame_needed = 0, uses_anonymous_args = 0
 100 0000 08B5     		push	{r3, lr}
 101              		.cfi_def_cfa_offset 8
 102              		.cfi_offset 3, -8
 103              		.cfi_offset 14, -4
 124:Generated_Source\PSoC5/LCD_SegStatic_1_PM.c ****     uint8 status;
 125:Generated_Source\PSoC5/LCD_SegStatic_1_PM.c **** 
ARM GAS  C:\Users\ESTEBAN\AppData\Local\Temp\cchGePNe.s 			page 5


 126:Generated_Source\PSoC5/LCD_SegStatic_1_PM.c ****     LCD_SegStatic_1_RestoreConfig();
 127:Generated_Source\PSoC5/LCD_SegStatic_1_PM.c **** 
 128:Generated_Source\PSoC5/LCD_SegStatic_1_PM.c ****     if(LCD_SegStatic_1_backup.enableState == 1u)
 104              		.loc 1 128 0
 105 0002 044B     		ldr	r3, .L11
 106 0004 1B78     		ldrb	r3, [r3]	@ zero_extendqisi2
 107 0006 012B     		cmp	r3, #1
 108 0008 02D1     		bne	.L9
 129:Generated_Source\PSoC5/LCD_SegStatic_1_PM.c ****     {
 130:Generated_Source\PSoC5/LCD_SegStatic_1_PM.c ****        status = LCD_SegStatic_1_Enable();
 109              		.loc 1 130 0
 110 000a FFF7FEFF 		bl	LCD_SegStatic_1_Enable
 111              	.LVL1:
 112 000e 08BD     		pop	{r3, pc}
 113              	.LVL2:
 114              	.L9:
 131:Generated_Source\PSoC5/LCD_SegStatic_1_PM.c ****     }
 132:Generated_Source\PSoC5/LCD_SegStatic_1_PM.c ****     else
 133:Generated_Source\PSoC5/LCD_SegStatic_1_PM.c ****     {
 134:Generated_Source\PSoC5/LCD_SegStatic_1_PM.c ****         status = CYRET_LOCKED;
 115              		.loc 1 134 0
 116 0010 0420     		movs	r0, #4
 117              	.LVL3:
 135:Generated_Source\PSoC5/LCD_SegStatic_1_PM.c ****     }
 136:Generated_Source\PSoC5/LCD_SegStatic_1_PM.c **** 
 137:Generated_Source\PSoC5/LCD_SegStatic_1_PM.c ****     return(status);
 138:Generated_Source\PSoC5/LCD_SegStatic_1_PM.c **** }
 118              		.loc 1 138 0
 119 0012 08BD     		pop	{r3, pc}
 120              	.L12:
 121              		.align	2
 122              	.L11:
 123 0014 00000000 		.word	.LANCHOR0
 124              		.cfi_endproc
 125              	.LFE3:
 126              		.size	LCD_SegStatic_1_Wakeup, .-LCD_SegStatic_1_Wakeup
 127              		.bss
 128              		.align	2
 129              		.set	.LANCHOR0,. + 0
 130              		.type	LCD_SegStatic_1_backup, %object
 131              		.size	LCD_SegStatic_1_backup, 1
 132              	LCD_SegStatic_1_backup:
 133 0000 00       		.space	1
 134              		.text
 135              	.Letext0:
 136              		.file 2 "Generated_Source\\PSoC5\\cytypes.h"
 137              		.file 3 "Generated_Source\\PSoC5\\LCD_SegStatic_1.h"