ARM GAS  C:\Users\ESTEBAN\AppData\Local\Temp\ccgIKUa0.s 			page 1


   1              		.syntax unified
   2              		.cpu cortex-m3
   3              		.fpu softvfp
   4              		.eabi_attribute 20, 1
   5              		.eabi_attribute 21, 1
   6              		.eabi_attribute 23, 3
   7              		.eabi_attribute 24, 1
   8              		.eabi_attribute 25, 1
   9              		.eabi_attribute 26, 1
  10              		.eabi_attribute 30, 1
  11              		.eabi_attribute 34, 1
  12              		.eabi_attribute 18, 4
  13              		.thumb
  14              		.syntax unified
  15              		.file	"main.c"
  16              		.text
  17              	.Ltext0:
  18              		.cfi_sections	.debug_frame
  19              		.section	.text.interrupcion,"ax",%progbits
  20              		.align	2
  21              		.global	interrupcion
  22              		.thumb
  23              		.thumb_func
  24              		.type	interrupcion, %function
  25              	interrupcion:
  26              	.LFB64:
  27              		.file 1 "main.c"
   1:main.c        **** /* ========================================
   2:main.c        ****  *
   3:main.c        ****  * Copyright YOUR COMPANY, THE YEAR
   4:main.c        ****  * All Rights Reserved
   5:main.c        ****  * UNPUBLISHED, LICENSED SOFTWARE.
   6:main.c        ****  *
   7:main.c        ****  * CONFIDENTIAL AND PROPRIETARY INFORMATION
   8:main.c        ****  * WHICH IS THE PROPERTY OF your company.
   9:main.c        ****  *
  10:main.c        ****  * ========================================
  11:main.c        **** */ 
  12:main.c        **** #include "project.h" //Libreria del hardware de Psoc.
  13:main.c        **** #include "stdio.h"// Libreria del ADC.
  14:main.c        **** #include "stdlib.h"
  15:main.c        **** // Inicializacion de las clases. 
  16:main.c        **** void Celsius();
  17:main.c        **** void Fahrenheit();
  18:main.c        **** // Inicializacion de las varibales, char, int, float.
  19:main.c        **** char recibir,publicar[12];
  20:main.c        **** int bandera=0,acu=0,ValorADC,ValorADC2, Vdisplay1, Vdisplay2,VoltajeADC=0,tempC=0,tempF=0;
  21:main.c        **** float TempFfloat,TempCfloat;
  22:main.c        **** 
  23:main.c        **** CY_ISR(interrupcion){//intterupcion del puerto UART para recibir datos.
  28              		.loc 1 23 0
  29              		.cfi_startproc
  30              		@ args = 0, pretend = 0, frame = 0
  31              		@ frame_needed = 0, uses_anonymous_args = 0
  32 0000 10B5     		push	{r4, lr}
  33              		.cfi_def_cfa_offset 8
  34              		.cfi_offset 4, -8
ARM GAS  C:\Users\ESTEBAN\AppData\Local\Temp\ccgIKUa0.s 			page 2


  35              		.cfi_offset 14, -4
  24:main.c        ****     //Se recibe el dato y se publica al instante.
  25:main.c        ****     recibir= UART_GetChar();
  36              		.loc 1 25 0
  37 0002 FFF7FEFF 		bl	UART_GetChar
  38              	.LVL0:
  39 0006 084C     		ldr	r4, .L5
  40 0008 2070     		strb	r0, [r4]
  26:main.c        ****     UART_PutChar(recibir);
  41              		.loc 1 26 0
  42 000a FFF7FEFF 		bl	UART_PutChar
  43              	.LVL1:
  27:main.c        ****  
  28:main.c        ****     if (recibir =='C'){
  44              		.loc 1 28 0
  45 000e 2378     		ldrb	r3, [r4]	@ zero_extendqisi2
  46 0010 432B     		cmp	r3, #67
  47 0012 02D1     		bne	.L2
  29:main.c        ****          acu=1;}
  48              		.loc 1 29 0
  49 0014 0121     		movs	r1, #1
  50 0016 054A     		ldr	r2, .L5+4
  51 0018 1160     		str	r1, [r2]
  52              	.L2:
  30:main.c        ****     if (recibir =='F'){
  53              		.loc 1 30 0
  54 001a 462B     		cmp	r3, #70
  55 001c 02D1     		bne	.L1
  31:main.c        ****          acu=0;}
  56              		.loc 1 31 0
  57 001e 0022     		movs	r2, #0
  58 0020 024B     		ldr	r3, .L5+4
  59 0022 1A60     		str	r2, [r3]
  60              	.L1:
  61 0024 10BD     		pop	{r4, pc}
  62              	.L6:
  63 0026 00BF     		.align	2
  64              	.L5:
  65 0028 00000000 		.word	recibir
  66 002c 00000000 		.word	.LANCHOR0
  67              		.cfi_endproc
  68              	.LFE64:
  69              		.size	interrupcion, .-interrupcion
  70              		.global	__aeabi_f2d
  71              		.section	.text.Celsius,"ax",%progbits
  72              		.align	2
  73              		.global	Celsius
  74              		.thumb
  75              		.thumb_func
  76              		.type	Celsius, %function
  77              	Celsius:
  78              	.LFB66:
  32:main.c        **** }
  33:main.c        **** 
  34:main.c        **** int main(void)
  35:main.c        **** {   
  36:main.c        ****     
ARM GAS  C:\Users\ESTEBAN\AppData\Local\Temp\ccgIKUa0.s 			page 3


  37:main.c        ****     
  38:main.c        ****     
  39:main.c        ****     CyGlobalIntEnable; /* Enable global interrupts. */
  40:main.c        ****     //Inicializacion de los Bloques y las interrupcion.
  41:main.c        ****     isrRx_Start();
  42:main.c        ****     isrRx_StartEx(interrupcion);
  43:main.c        ****     Display1_Start();
  44:main.c        ****     UART_Start();
  45:main.c        ****     ADC_Start();
  46:main.c        ****     
  47:main.c        ****     for(;;)
  48:main.c        ****     { 
  49:main.c        ****      //condicionales para definir la activacion de Void. 
  50:main.c        ****      if(acu==2){
  51:main.c        ****      acu=0;}
  52:main.c        ****      if(Pulsador_Read()==1){
  53:main.c        ****      acu=acu+1;}
  54:main.c        ****      if(acu==1){
  55:main.c        ****      bandera=1;}
  56:main.c        ****      if(acu==0){
  57:main.c        ****      bandera=2;}  
  58:main.c        ****      if(recibir ==' '){// si se recibe un espacio se detendra la ejecucion del programa.
  59:main.c        ****      bandera=0;}
  60:main.c        ****     
  61:main.c        ****            switch (bandera){//dependiendo delvalor de la vandera se ejecutara un void diferente.
  62:main.c        ****             case 0:
  63:main.c        ****             break;
  64:main.c        ****             
  65:main.c        ****             case 1:
  66:main.c        ****             Celsius();
  67:main.c        ****             break;
  68:main.c        ****             
  69:main.c        ****             case 2:
  70:main.c        ****             Fahrenheit();
  71:main.c        ****             break;
  72:main.c        ****               
  73:main.c        ****         }
  74:main.c        ****        
  75:main.c        ****         ADC_StartConvert();//Inicia la conversion analogo digiral
  76:main.c        ****         ADC_IsEndConversion(ADC_WAIT_FOR_RESULT);
  77:main.c        ****         ValorADC=ADC_GetResult32();//se guarda en una varible tipo entero, el valor obtenido.
  78:main.c        ****         ADC_StopConvert();
  79:main.c        ****         
  80:main.c        ****         tempC=ValorADC*100/14340;//se guarda la varible el valor ,en este caso se utiliza 14345, de
  81:main.c        ****         TempCfloat=(ValorADC*100)/14340;//se aclara que esto varia depentendiendo del tipo de senso
  82:main.c        ****         
  83:main.c        ****       
  84:main.c        ****     }
  85:main.c        **** }
  86:main.c        **** 
  87:main.c        **** void Celsius(){
  79              		.loc 1 87 0
  80              		.cfi_startproc
  81              		@ args = 0, pretend = 0, frame = 0
  82              		@ frame_needed = 0, uses_anonymous_args = 0
  83 0000 10B5     		push	{r4, lr}
  84              		.cfi_def_cfa_offset 8
ARM GAS  C:\Users\ESTEBAN\AppData\Local\Temp\ccgIKUa0.s 			page 4


  85              		.cfi_offset 4, -8
  86              		.cfi_offset 14, -4
  88:main.c        ****   //se enciende el Led1 y se apaga el Led2
  89:main.c        ****   SLED1_Write(1);
  87              		.loc 1 89 0
  88 0002 0120     		movs	r0, #1
  89 0004 FFF7FEFF 		bl	SLED1_Write
  90              	.LVL2:
  90:main.c        ****   SLED2_Write(0);
  91              		.loc 1 90 0
  92 0008 0020     		movs	r0, #0
  93 000a FFF7FEFF 		bl	SLED2_Write
  94              	.LVL3:
  91:main.c        ****   
  92:main.c        ****   
  93:main.c        ****   if(recibir =='\r'){ //solo hasta que se oprima un enter se enviara el vaor por el terminal, debid
  95              		.loc 1 93 0
  96 000e 174B     		ldr	r3, .L10
  97 0010 1B78     		ldrb	r3, [r3]	@ zero_extendqisi2
  98 0012 0D2B     		cmp	r3, #13
  99 0014 0DD1     		bne	.L8
  94:main.c        ****   sprintf(publicar,"Temperatura(celsius): %0.2f \n \r" ,TempCfloat);
 100              		.loc 1 94 0
 101 0016 164B     		ldr	r3, .L10+4
 102 0018 1868     		ldr	r0, [r3]	@ float
 103 001a FFF7FEFF 		bl	__aeabi_f2d
 104              	.LVL4:
 105 001e 154C     		ldr	r4, .L10+8
 106 0020 0246     		mov	r2, r0
 107 0022 0B46     		mov	r3, r1
 108 0024 1449     		ldr	r1, .L10+12
 109 0026 2046     		mov	r0, r4
 110 0028 FFF7FEFF 		bl	sprintf
 111              	.LVL5:
  95:main.c        ****   UART_PutString(publicar);}
 112              		.loc 1 95 0
 113 002c 2046     		mov	r0, r4
 114 002e FFF7FEFF 		bl	UART_PutString
 115              	.LVL6:
 116              	.L8:
  96:main.c        **** 
  97:main.c        ****   CyDelay(100);
 117              		.loc 1 97 0
 118 0032 6420     		movs	r0, #100
 119 0034 FFF7FEFF 		bl	CyDelay
 120              	.LVL7:
  98:main.c        ****   Vdisplay1=tempC/10;//se optiene el primer numero de los dos que conforman el valor entero de la t
 121              		.loc 1 98 0
 122 0038 104B     		ldr	r3, .L10+16
 123 003a 5A68     		ldr	r2, [r3, #4]
 124 003c 1048     		ldr	r0, .L10+20
 125 003e 80FB0230 		smull	r3, r0, r0, r2
 126 0042 D317     		asrs	r3, r2, #31
 127 0044 C3EBA000 		rsb	r0, r3, r0, asr #2
 128 0048 0E4B     		ldr	r3, .L10+24
 129 004a 1860     		str	r0, [r3]
  99:main.c        ****   Vdisplay2=tempC%10;//se obtiene el segundo numero.
ARM GAS  C:\Users\ESTEBAN\AppData\Local\Temp\ccgIKUa0.s 			page 5


 130              		.loc 1 99 0
 131 004c 00EB8001 		add	r1, r0, r0, lsl #2
 132 0050 4B00     		lsls	r3, r1, #1
 133 0052 D31A     		subs	r3, r2, r3
 134 0054 0C4C     		ldr	r4, .L10+28
 135 0056 2360     		str	r3, [r4]
 100:main.c        **** 
 101:main.c        ****   Display1_Write7SegDigit_0(Vdisplay1,0);//se publica en el primer Display el valor numeico.
 136              		.loc 1 101 0
 137 0058 0021     		movs	r1, #0
 138 005a C0B2     		uxtb	r0, r0
 139 005c FFF7FEFF 		bl	Display1_Write7SegDigit_0
 140              	.LVL8:
 102:main.c        ****   Display1_Write7SegDigit_0(Vdisplay2,1);//se publica en el segundo Display.
 141              		.loc 1 102 0
 142 0060 0121     		movs	r1, #1
 143 0062 2078     		ldrb	r0, [r4]	@ zero_extendqisi2
 144 0064 FFF7FEFF 		bl	Display1_Write7SegDigit_0
 145              	.LVL9:
 146 0068 10BD     		pop	{r4, pc}
 147              	.L11:
 148 006a 00BF     		.align	2
 149              	.L10:
 150 006c 00000000 		.word	recibir
 151 0070 00000000 		.word	TempCfloat
 152 0074 00000000 		.word	publicar
 153 0078 00000000 		.word	.LC0
 154 007c 00000000 		.word	.LANCHOR0
 155 0080 67666666 		.word	1717986919
 156 0084 00000000 		.word	Vdisplay1
 157 0088 00000000 		.word	Vdisplay2
 158              		.cfi_endproc
 159              	.LFE66:
 160              		.size	Celsius, .-Celsius
 161              		.global	__aeabi_fmul
 162              		.global	__aeabi_fdiv
 163              		.global	__aeabi_fadd
 164              		.section	.text.Fahrenheit,"ax",%progbits
 165              		.align	2
 166              		.global	Fahrenheit
 167              		.thumb
 168              		.thumb_func
 169              		.type	Fahrenheit, %function
 170              	Fahrenheit:
 171              	.LFB67:
 103:main.c        **** }
 104:main.c        **** 
 105:main.c        **** void Fahrenheit(){
 172              		.loc 1 105 0
 173              		.cfi_startproc
 174              		@ args = 0, pretend = 0, frame = 0
 175              		@ frame_needed = 0, uses_anonymous_args = 0
 176 0000 10B5     		push	{r4, lr}
 177              		.cfi_def_cfa_offset 8
 178              		.cfi_offset 4, -8
 179              		.cfi_offset 14, -4
 106:main.c        **** //se predende el segundo Led se apaga el primero
ARM GAS  C:\Users\ESTEBAN\AppData\Local\Temp\ccgIKUa0.s 			page 6


 107:main.c        ****   SLED2_Write(1);
 180              		.loc 1 107 0
 181 0002 0120     		movs	r0, #1
 182 0004 FFF7FEFF 		bl	SLED2_Write
 183              	.LVL10:
 108:main.c        ****   SLED1_Write(0);
 184              		.loc 1 108 0
 185 0008 0020     		movs	r0, #0
 186 000a FFF7FEFF 		bl	SLED1_Write
 187              	.LVL11:
 109:main.c        **** //ecuacion para pasar de grados Celsius a grados Fahrendeit
 110:main.c        ****   tempF=((tempC*9)/5)+32;
 188              		.loc 1 110 0
 189 000e 2349     		ldr	r1, .L15
 190 0010 4B68     		ldr	r3, [r1, #4]
 191 0012 03EBC303 		add	r3, r3, r3, lsl #3
 192 0016 224A     		ldr	r2, .L15+4
 193 0018 82FB0302 		smull	r0, r2, r2, r3
 194 001c DB17     		asrs	r3, r3, #31
 195 001e C3EB6203 		rsb	r3, r3, r2, asr #1
 196 0022 2033     		adds	r3, r3, #32
 197 0024 8B60     		str	r3, [r1, #8]
 111:main.c        ****   TempFfloat=((TempCfloat*9)/5)+32;
 198              		.loc 1 111 0
 199 0026 1F49     		ldr	r1, .L15+8
 200 0028 1F4B     		ldr	r3, .L15+12
 201 002a 1868     		ldr	r0, [r3]	@ float
 202 002c FFF7FEFF 		bl	__aeabi_fmul
 203              	.LVL12:
 204 0030 1E49     		ldr	r1, .L15+16
 205 0032 FFF7FEFF 		bl	__aeabi_fdiv
 206              	.LVL13:
 207 0036 4FF08441 		mov	r1, #1107296256
 208 003a FFF7FEFF 		bl	__aeabi_fadd
 209              	.LVL14:
 210 003e 1C4B     		ldr	r3, .L15+20
 211 0040 1860     		str	r0, [r3]	@ float
 112:main.c        **** 
 113:main.c        ****   if(recibir =='\r'){
 212              		.loc 1 113 0
 213 0042 1C4B     		ldr	r3, .L15+24
 214 0044 1B78     		ldrb	r3, [r3]	@ zero_extendqisi2
 215 0046 0D2B     		cmp	r3, #13
 216 0048 0BD1     		bne	.L13
 114:main.c        ****   sprintf(publicar,"Temperatura(Fahrenheit): %0.2f \n \r" ,TempFfloat);
 217              		.loc 1 114 0
 218 004a FFF7FEFF 		bl	__aeabi_f2d
 219              	.LVL15:
 220 004e 1A4C     		ldr	r4, .L15+28
 221 0050 0246     		mov	r2, r0
 222 0052 0B46     		mov	r3, r1
 223 0054 1949     		ldr	r1, .L15+32
 224 0056 2046     		mov	r0, r4
 225 0058 FFF7FEFF 		bl	sprintf
 226              	.LVL16:
 115:main.c        ****   UART_PutString(publicar);}
 227              		.loc 1 115 0
ARM GAS  C:\Users\ESTEBAN\AppData\Local\Temp\ccgIKUa0.s 			page 7


 228 005c 2046     		mov	r0, r4
 229 005e FFF7FEFF 		bl	UART_PutString
 230              	.LVL17:
 231              	.L13:
 116:main.c        **** 
 117:main.c        ****   CyDelay(100);
 232              		.loc 1 117 0
 233 0062 6420     		movs	r0, #100
 234 0064 FFF7FEFF 		bl	CyDelay
 235              	.LVL18:
 118:main.c        ****   Vdisplay1=tempF/10;
 236              		.loc 1 118 0
 237 0068 0C4B     		ldr	r3, .L15
 238 006a 9A68     		ldr	r2, [r3, #8]
 239 006c 0C48     		ldr	r0, .L15+4
 240 006e 80FB0230 		smull	r3, r0, r0, r2
 241 0072 D317     		asrs	r3, r2, #31
 242 0074 C3EBA000 		rsb	r0, r3, r0, asr #2
 243 0078 114B     		ldr	r3, .L15+36
 244 007a 1860     		str	r0, [r3]
 119:main.c        ****   Vdisplay2=tempF%10;
 245              		.loc 1 119 0
 246 007c 00EB8001 		add	r1, r0, r0, lsl #2
 247 0080 4B00     		lsls	r3, r1, #1
 248 0082 D31A     		subs	r3, r2, r3
 249 0084 0F4C     		ldr	r4, .L15+40
 250 0086 2360     		str	r3, [r4]
 120:main.c        **** 
 121:main.c        ****   Display1_Write7SegDigit_0(Vdisplay1,0);
 251              		.loc 1 121 0
 252 0088 0021     		movs	r1, #0
 253 008a C0B2     		uxtb	r0, r0
 254 008c FFF7FEFF 		bl	Display1_Write7SegDigit_0
 255              	.LVL19:
 122:main.c        ****   Display1_Write7SegDigit_0(Vdisplay2,1);    
 256              		.loc 1 122 0
 257 0090 0121     		movs	r1, #1
 258 0092 2078     		ldrb	r0, [r4]	@ zero_extendqisi2
 259 0094 FFF7FEFF 		bl	Display1_Write7SegDigit_0
 260              	.LVL20:
 261 0098 10BD     		pop	{r4, pc}
 262              	.L16:
 263 009a 00BF     		.align	2
 264              	.L15:
 265 009c 00000000 		.word	.LANCHOR0
 266 00a0 67666666 		.word	1717986919
 267 00a4 00001041 		.word	1091567616
 268 00a8 00000000 		.word	TempCfloat
 269 00ac 0000A040 		.word	1084227584
 270 00b0 00000000 		.word	TempFfloat
 271 00b4 00000000 		.word	recibir
 272 00b8 00000000 		.word	publicar
 273 00bc 20000000 		.word	.LC1
 274 00c0 00000000 		.word	Vdisplay1
 275 00c4 00000000 		.word	Vdisplay2
 276              		.cfi_endproc
 277              	.LFE67:
ARM GAS  C:\Users\ESTEBAN\AppData\Local\Temp\ccgIKUa0.s 			page 8


 278              		.size	Fahrenheit, .-Fahrenheit
 279              		.global	__aeabi_i2f
 280              		.section	.text.main,"ax",%progbits
 281              		.align	2
 282              		.global	main
 283              		.thumb
 284              		.thumb_func
 285              		.type	main, %function
 286              	main:
 287              	.LFB65:
  35:main.c        ****     
 288              		.loc 1 35 0
 289              		.cfi_startproc
 290              		@ Volatile: function does not return.
 291              		@ args = 0, pretend = 0, frame = 0
 292              		@ frame_needed = 0, uses_anonymous_args = 0
 293 0000 08B5     		push	{r3, lr}
 294              		.cfi_def_cfa_offset 8
 295              		.cfi_offset 3, -8
 296              		.cfi_offset 14, -4
  39:main.c        ****     //Inicializacion de los Bloques y las interrupcion.
 297              		.loc 1 39 0
 298              		.syntax unified
 299              	@ 39 "main.c" 1
 300 0002 62B6     		CPSIE   i
 301              	@ 0 "" 2
  41:main.c        ****     isrRx_StartEx(interrupcion);
 302              		.loc 1 41 0
 303              		.thumb
 304              		.syntax unified
 305 0004 FFF7FEFF 		bl	isrRx_Start
 306              	.LVL21:
  42:main.c        ****     Display1_Start();
 307              		.loc 1 42 0
 308 0008 2848     		ldr	r0, .L28
 309 000a FFF7FEFF 		bl	isrRx_StartEx
 310              	.LVL22:
  43:main.c        ****     UART_Start();
 311              		.loc 1 43 0
 312 000e FFF7FEFF 		bl	Display1_Start
 313              	.LVL23:
  44:main.c        ****     ADC_Start();
 314              		.loc 1 44 0
 315 0012 FFF7FEFF 		bl	UART_Start
 316              	.LVL24:
  45:main.c        ****     
 317              		.loc 1 45 0
 318 0016 FFF7FEFF 		bl	ADC_Start
 319              	.LVL25:
 320              	.L26:
  50:main.c        ****      acu=0;}
 321              		.loc 1 50 0
 322 001a 254B     		ldr	r3, .L28+4
 323 001c 1B68     		ldr	r3, [r3]
 324 001e 022B     		cmp	r3, #2
 325 0020 02D1     		bne	.L18
  51:main.c        ****      if(Pulsador_Read()==1){
ARM GAS  C:\Users\ESTEBAN\AppData\Local\Temp\ccgIKUa0.s 			page 9


 326              		.loc 1 51 0
 327 0022 0022     		movs	r2, #0
 328 0024 224B     		ldr	r3, .L28+4
 329 0026 1A60     		str	r2, [r3]
 330              	.L18:
  52:main.c        ****      acu=acu+1;}
 331              		.loc 1 52 0
 332 0028 FFF7FEFF 		bl	Pulsador_Read
 333              	.LVL26:
 334 002c 0128     		cmp	r0, #1
 335 002e 03D1     		bne	.L19
  53:main.c        ****      if(acu==1){
 336              		.loc 1 53 0
 337 0030 1F4A     		ldr	r2, .L28+4
 338 0032 1368     		ldr	r3, [r2]
 339 0034 0133     		adds	r3, r3, #1
 340 0036 1360     		str	r3, [r2]
 341              	.L19:
  54:main.c        ****      bandera=1;}
 342              		.loc 1 54 0
 343 0038 1D4B     		ldr	r3, .L28+4
 344 003a 1B68     		ldr	r3, [r3]
 345 003c 012B     		cmp	r3, #1
 346 003e 02D1     		bne	.L20
  55:main.c        ****      if(acu==0){
 347              		.loc 1 55 0
 348 0040 0121     		movs	r1, #1
 349 0042 1B4A     		ldr	r2, .L28+4
 350 0044 D160     		str	r1, [r2, #12]
 351              	.L20:
  56:main.c        ****      bandera=2;}  
 352              		.loc 1 56 0
 353 0046 13B9     		cbnz	r3, .L21
  57:main.c        ****      if(recibir ==' '){// si se recibe un espacio se detendra la ejecucion del programa.
 354              		.loc 1 57 0
 355 0048 0222     		movs	r2, #2
 356 004a 194B     		ldr	r3, .L28+4
 357 004c DA60     		str	r2, [r3, #12]
 358              	.L21:
  58:main.c        ****      bandera=0;}
 359              		.loc 1 58 0
 360 004e 194B     		ldr	r3, .L28+8
 361 0050 1B78     		ldrb	r3, [r3]	@ zero_extendqisi2
 362 0052 202B     		cmp	r3, #32
 363 0054 02D1     		bne	.L22
  59:main.c        ****     
 364              		.loc 1 59 0
 365 0056 0022     		movs	r2, #0
 366 0058 154B     		ldr	r3, .L28+4
 367 005a DA60     		str	r2, [r3, #12]
 368              	.L22:
  61:main.c        ****             case 0:
 369              		.loc 1 61 0
 370 005c 144B     		ldr	r3, .L28+4
 371 005e DB68     		ldr	r3, [r3, #12]
 372 0060 012B     		cmp	r3, #1
 373 0062 02D0     		beq	.L24
ARM GAS  C:\Users\ESTEBAN\AppData\Local\Temp\ccgIKUa0.s 			page 10


 374 0064 022B     		cmp	r3, #2
 375 0066 03D0     		beq	.L25
 376 0068 04E0     		b	.L23
 377              	.L24:
  66:main.c        ****             break;
 378              		.loc 1 66 0
 379 006a FFF7FEFF 		bl	Celsius
 380              	.LVL27:
  67:main.c        ****             
 381              		.loc 1 67 0
 382 006e 01E0     		b	.L23
 383              	.L25:
  70:main.c        ****             break;
 384              		.loc 1 70 0
 385 0070 FFF7FEFF 		bl	Fahrenheit
 386              	.LVL28:
 387              	.L23:
  75:main.c        ****         ADC_IsEndConversion(ADC_WAIT_FOR_RESULT);
 388              		.loc 1 75 0
 389 0074 FFF7FEFF 		bl	ADC_StartConvert
 390              	.LVL29:
  76:main.c        ****         ValorADC=ADC_GetResult32();//se guarda en una varible tipo entero, el valor obtenido.
 391              		.loc 1 76 0
 392 0078 0020     		movs	r0, #0
 393 007a FFF7FEFF 		bl	ADC_IsEndConversion
 394              	.LVL30:
  77:main.c        ****         ADC_StopConvert();
 395              		.loc 1 77 0
 396 007e FFF7FEFF 		bl	ADC_GetResult32
 397              	.LVL31:
 398 0082 0D4C     		ldr	r4, .L28+12
 399 0084 2060     		str	r0, [r4]
  78:main.c        ****         
 400              		.loc 1 78 0
 401 0086 FFF7FEFF 		bl	ADC_StopConvert
 402              	.LVL32:
  80:main.c        ****         TempCfloat=(ValorADC*100)/14340;//se aclara que esto varia depentendiendo del tipo de senso
 403              		.loc 1 80 0
 404 008a 2068     		ldr	r0, [r4]
 405 008c 6423     		movs	r3, #100
 406 008e 03FB00F3 		mul	r3, r3, r0
 407 0092 0A48     		ldr	r0, .L28+16
 408 0094 80FB0320 		smull	r2, r0, r0, r3
 409 0098 DB17     		asrs	r3, r3, #31
 410 009a C3EB2030 		rsb	r0, r3, r0, asr #12
 411 009e 044B     		ldr	r3, .L28+4
 412 00a0 5860     		str	r0, [r3, #4]
  81:main.c        ****         
 413              		.loc 1 81 0
 414 00a2 FFF7FEFF 		bl	__aeabi_i2f
 415              	.LVL33:
 416 00a6 064B     		ldr	r3, .L28+20
 417 00a8 1860     		str	r0, [r3]	@ float
  84:main.c        **** }
 418              		.loc 1 84 0
 419 00aa B6E7     		b	.L26
 420              	.L29:
ARM GAS  C:\Users\ESTEBAN\AppData\Local\Temp\ccgIKUa0.s 			page 11


 421              		.align	2
 422              	.L28:
 423 00ac 00000000 		.word	interrupcion
 424 00b0 00000000 		.word	.LANCHOR0
 425 00b4 00000000 		.word	recibir
 426 00b8 00000000 		.word	ValorADC
 427 00bc 31591F49 		.word	1226791217
 428 00c0 00000000 		.word	TempCfloat
 429              		.cfi_endproc
 430              	.LFE65:
 431              		.size	main, .-main
 432              		.comm	TempCfloat,4,4
 433              		.comm	TempFfloat,4,4
 434              		.global	tempF
 435              		.global	tempC
 436              		.global	VoltajeADC
 437              		.comm	Vdisplay2,4,4
 438              		.comm	Vdisplay1,4,4
 439              		.comm	ValorADC2,4,4
 440              		.comm	ValorADC,4,4
 441              		.global	acu
 442              		.global	bandera
 443              		.comm	publicar,12,4
 444              		.comm	recibir,1,1
 445              		.section	.rodata.str1.4,"aMS",%progbits,1
 446              		.align	2
 447              	.LC0:
 448 0000 54656D70 		.ascii	"Temperatura(celsius): %0.2f \012 \015\000"
 448      65726174 
 448      75726128 
 448      63656C73 
 448      69757329 
 449              	.LC1:
 450 0020 54656D70 		.ascii	"Temperatura(Fahrenheit): %0.2f \012 \015\000"
 450      65726174 
 450      75726128 
 450      46616872 
 450      656E6865 
 451              		.bss
 452              		.align	2
 453              		.set	.LANCHOR0,. + 0
 454              		.type	acu, %object
 455              		.size	acu, 4
 456              	acu:
 457 0000 00000000 		.space	4
 458              		.type	tempC, %object
 459              		.size	tempC, 4
 460              	tempC:
 461 0004 00000000 		.space	4
 462              		.type	tempF, %object
 463              		.size	tempF, 4
 464              	tempF:
 465 0008 00000000 		.space	4
 466              		.type	bandera, %object
 467              		.size	bandera, 4
 468              	bandera:
 469 000c 00000000 		.space	4
ARM GAS  C:\Users\ESTEBAN\AppData\Local\Temp\ccgIKUa0.s 			page 12


 470              		.type	VoltajeADC, %object
 471              		.size	VoltajeADC, 4
 472              	VoltajeADC:
 473 0010 00000000 		.space	4
 474              		.text
 475              	.Letext0:
 476              		.file 2 "c:\\program files (x86)\\cypress\\psoc creator\\4.2\\psoc creator\\import\\gnu\\arm\\5.4.
 477              		.file 3 "c:\\program files (x86)\\cypress\\psoc creator\\4.2\\psoc creator\\import\\gnu\\arm\\5.4.
 478              		.file 4 "Generated_Source\\PSoC5/core_cm3.h"
 479              		.file 5 "Generated_Source\\PSoC5/UART.h"
 480              		.file 6 "Generated_Source\\PSoC5/SLED1.h"
 481              		.file 7 "Generated_Source\\PSoC5/SLED2.h"
 482              		.file 8 "c:\\program files (x86)\\cypress\\psoc creator\\4.2\\psoc creator\\import\\gnu\\arm\\5.4.
 483              		.file 9 "Generated_Source\\PSoC5/CyLib.h"
 484              		.file 10 "Generated_Source\\PSoC5/Display1.h"
 485              		.file 11 "Generated_Source\\PSoC5/isrRx.h"
 486              		.file 12 "Generated_Source\\PSoC5/ADC.h"
 487              		.file 13 "Generated_Source\\PSoC5/Pulsador.h"