ARM GAS  C:\Users\t\AppData\Local\Temp\ccaeUnYd.s 			page 1


   1              		.syntax unified
   2              		.cpu cortex-m3
   3              		.fpu softvfp
   4              		.eabi_attribute 20, 1
   5              		.eabi_attribute 21, 1
   6              		.eabi_attribute 23, 3
   7              		.eabi_attribute 24, 1
   8              		.eabi_attribute 25, 1
   9              		.eabi_attribute 26, 1
  10              		.eabi_attribute 30, 1
  11              		.eabi_attribute 34, 1
  12              		.eabi_attribute 18, 4
  13              		.thumb
  14              		.syntax unified
  15              		.file	"main.c"
  16              		.text
  17              	.Ltext0:
  18              		.cfi_sections	.debug_frame
  19              		.section	.text.Enviar,"ax",%progbits
  20              		.align	2
  21              		.global	Enviar
  22              		.thumb
  23              		.thumb_func
  24              		.type	Enviar, %function
  25              	Enviar:
  26              	.LFB64:
  27              		.file 1 "main.c"
   1:main.c        **** /* ========================================
   2:main.c        ****  *
   3:main.c        ****  * Copyright YOUR COMPANY, THE YEAR
   4:main.c        ****  * All Rights Reserved
   5:main.c        ****  * UNPUBLISHED, LICENSED SOFTWARE.
   6:main.c        ****  *
   7:main.c        ****  * CONFIDENTIAL AND PROPRIETARY INFORMATION
   8:main.c        ****  * WHICH IS THE PROPERTY OF your company.
   9:main.c        ****  *
  10:main.c        ****  * ========================================
  11:main.c        **** */
  12:main.c        **** #include "project.h"
  13:main.c        **** #include <stdio.h>
  14:main.c        **** 
  15:main.c        **** int numero[5],dato;
  16:main.c        **** float32 voltiosADC[5];
  17:main.c        **** char publicar[12];
  18:main.c        **** char recibir;
  19:main.c        **** int canal=0;
  20:main.c        **** CY_ISR(Enviar){
  28              		.loc 1 20 0
  29              		.cfi_startproc
  30              		@ args = 0, pretend = 0, frame = 0
  31              		@ frame_needed = 0, uses_anonymous_args = 0
  32 0000 10B5     		push	{r4, lr}
  33              		.cfi_def_cfa_offset 8
  34              		.cfi_offset 4, -8
  35              		.cfi_offset 14, -4
  21:main.c        **** if(canal==0){
  36              		.loc 1 21 0
ARM GAS  C:\Users\t\AppData\Local\Temp\ccaeUnYd.s 			page 2


  37 0002 3D4B     		ldr	r3, .L12
  38 0004 1B68     		ldr	r3, [r3]
  39 0006 4BB9     		cbnz	r3, .L2
  22:main.c        ****  
  23:main.c        ****   sprintf(publicar,"%3dc0 \n \r" ,numero[0]);
  40              		.loc 1 23 0
  41 0008 3C4C     		ldr	r4, .L12+4
  42 000a 3D4B     		ldr	r3, .L12+8
  43 000c 1A68     		ldr	r2, [r3]
  44 000e 3D49     		ldr	r1, .L12+12
  45 0010 2046     		mov	r0, r4
  46 0012 FFF7FEFF 		bl	sprintf
  47              	.LVL0:
  24:main.c        ****   UART_PutString(publicar);
  48              		.loc 1 24 0
  49 0016 2046     		mov	r0, r4
  50 0018 FFF7FEFF 		bl	UART_PutString
  51              	.LVL1:
  52              	.L2:
  25:main.c        **** }
  26:main.c        **** if(canal==1){
  53              		.loc 1 26 0
  54 001c 364B     		ldr	r3, .L12
  55 001e 1B68     		ldr	r3, [r3]
  56 0020 012B     		cmp	r3, #1
  57 0022 16D1     		bne	.L3
  27:main.c        ****      dato=numero[1]*2;
  58              		.loc 1 27 0
  59 0024 364B     		ldr	r3, .L12+8
  60 0026 5A68     		ldr	r2, [r3, #4]
  61 0028 5200     		lsls	r2, r2, #1
  62 002a 374B     		ldr	r3, .L12+16
  63 002c 1A60     		str	r2, [r3]
  28:main.c        ****      if(dato<65536){
  64              		.loc 1 28 0
  65 002e B2F5803F 		cmp	r2, #65536
  66 0032 08DA     		bge	.L4
  29:main.c        ****      sprintf(publicar,"%3dc1 \n \r" ,numero[1]*2);
  67              		.loc 1 29 0
  68 0034 314C     		ldr	r4, .L12+4
  69 0036 3549     		ldr	r1, .L12+20
  70 0038 2046     		mov	r0, r4
  71 003a FFF7FEFF 		bl	sprintf
  72              	.LVL2:
  30:main.c        ****      UART_PutString(publicar);
  73              		.loc 1 30 0
  74 003e 2046     		mov	r0, r4
  75 0040 FFF7FEFF 		bl	UART_PutString
  76              	.LVL3:
  77 0044 05E0     		b	.L3
  78              	.L4:
  31:main.c        **** 
  32:main.c        ****        }
  33:main.c        ****      else if(dato>=65536){
  79              		.loc 1 33 0
  80 0046 B2F5803F 		cmp	r2, #65536
  81 004a 02DB     		blt	.L3
ARM GAS  C:\Users\t\AppData\Local\Temp\ccaeUnYd.s 			page 3


  34:main.c        ****      UART_PutString("65536c1 \n \r");}
  82              		.loc 1 34 0
  83 004c 3048     		ldr	r0, .L12+24
  84 004e FFF7FEFF 		bl	UART_PutString
  85              	.LVL4:
  86              	.L3:
  35:main.c        **** }
  36:main.c        **** if(canal==2){
  87              		.loc 1 36 0
  88 0052 294B     		ldr	r3, .L12
  89 0054 1B68     		ldr	r3, [r3]
  90 0056 022B     		cmp	r3, #2
  91 0058 16D1     		bne	.L5
  37:main.c        ****   dato=numero[2]*4;
  92              		.loc 1 37 0
  93 005a 294B     		ldr	r3, .L12+8
  94 005c 9A68     		ldr	r2, [r3, #8]
  95 005e 9200     		lsls	r2, r2, #2
  96 0060 294B     		ldr	r3, .L12+16
  97 0062 1A60     		str	r2, [r3]
  38:main.c        ****      if(dato<65536){
  98              		.loc 1 38 0
  99 0064 B2F5803F 		cmp	r2, #65536
 100 0068 08DA     		bge	.L6
  39:main.c        ****      sprintf(publicar,"%3dc2 \n \r" ,numero[2]*4);
 101              		.loc 1 39 0
 102 006a 244C     		ldr	r4, .L12+4
 103 006c 2949     		ldr	r1, .L12+28
 104 006e 2046     		mov	r0, r4
 105 0070 FFF7FEFF 		bl	sprintf
 106              	.LVL5:
  40:main.c        ****      UART_PutString(publicar);
 107              		.loc 1 40 0
 108 0074 2046     		mov	r0, r4
 109 0076 FFF7FEFF 		bl	UART_PutString
 110              	.LVL6:
 111 007a 05E0     		b	.L5
 112              	.L6:
  41:main.c        **** 
  42:main.c        ****        }
  43:main.c        ****      else if(dato>=65536){
 113              		.loc 1 43 0
 114 007c B2F5803F 		cmp	r2, #65536
 115 0080 02DB     		blt	.L5
  44:main.c        ****      UART_PutString("65536c2 \n \r");}
 116              		.loc 1 44 0
 117 0082 2548     		ldr	r0, .L12+32
 118 0084 FFF7FEFF 		bl	UART_PutString
 119              	.LVL7:
 120              	.L5:
  45:main.c        **** }
  46:main.c        **** if(canal==3){
 121              		.loc 1 46 0
 122 0088 1B4B     		ldr	r3, .L12
 123 008a 1B68     		ldr	r3, [r3]
 124 008c 032B     		cmp	r3, #3
 125 008e 16D1     		bne	.L7
ARM GAS  C:\Users\t\AppData\Local\Temp\ccaeUnYd.s 			page 4


  47:main.c        ****   dato=numero[3]*8;
 126              		.loc 1 47 0
 127 0090 1B4B     		ldr	r3, .L12+8
 128 0092 DA68     		ldr	r2, [r3, #12]
 129 0094 D200     		lsls	r2, r2, #3
 130 0096 1C4B     		ldr	r3, .L12+16
 131 0098 1A60     		str	r2, [r3]
  48:main.c        ****      if(dato<65536){
 132              		.loc 1 48 0
 133 009a B2F5803F 		cmp	r2, #65536
 134 009e 08DA     		bge	.L8
  49:main.c        ****      sprintf(publicar,"%3dc3 \n \r" ,numero[3]*8);
 135              		.loc 1 49 0
 136 00a0 164C     		ldr	r4, .L12+4
 137 00a2 1E49     		ldr	r1, .L12+36
 138 00a4 2046     		mov	r0, r4
 139 00a6 FFF7FEFF 		bl	sprintf
 140              	.LVL8:
  50:main.c        ****      UART_PutString(publicar);
 141              		.loc 1 50 0
 142 00aa 2046     		mov	r0, r4
 143 00ac FFF7FEFF 		bl	UART_PutString
 144              	.LVL9:
 145 00b0 05E0     		b	.L7
 146              	.L8:
  51:main.c        **** 
  52:main.c        ****        }
  53:main.c        ****      else if(dato>=65536){
 147              		.loc 1 53 0
 148 00b2 B2F5803F 		cmp	r2, #65536
 149 00b6 02DB     		blt	.L7
  54:main.c        ****      UART_PutString("65536c3 \n \r");};
 150              		.loc 1 54 0
 151 00b8 1948     		ldr	r0, .L12+40
 152 00ba FFF7FEFF 		bl	UART_PutString
 153              	.LVL10:
 154              	.L7:
  55:main.c        **** }
  56:main.c        **** if(canal==4){
 155              		.loc 1 56 0
 156 00be 0E4B     		ldr	r3, .L12
 157 00c0 1B68     		ldr	r3, [r3]
 158 00c2 042B     		cmp	r3, #4
 159 00c4 16D1     		bne	.L1
  57:main.c        ****      dato=numero[4]*16;
 160              		.loc 1 57 0
 161 00c6 0E4B     		ldr	r3, .L12+8
 162 00c8 1A69     		ldr	r2, [r3, #16]
 163 00ca 1201     		lsls	r2, r2, #4
 164 00cc 0E4B     		ldr	r3, .L12+16
 165 00ce 1A60     		str	r2, [r3]
  58:main.c        ****      if(dato<65536){
 166              		.loc 1 58 0
 167 00d0 B2F5803F 		cmp	r2, #65536
 168 00d4 08DA     		bge	.L10
  59:main.c        ****      sprintf(publicar,"%3dc4 \n \r" ,numero[4]*16);
 169              		.loc 1 59 0
ARM GAS  C:\Users\t\AppData\Local\Temp\ccaeUnYd.s 			page 5


 170 00d6 094C     		ldr	r4, .L12+4
 171 00d8 1249     		ldr	r1, .L12+44
 172 00da 2046     		mov	r0, r4
 173 00dc FFF7FEFF 		bl	sprintf
 174              	.LVL11:
  60:main.c        ****      UART_PutString(publicar);
 175              		.loc 1 60 0
 176 00e0 2046     		mov	r0, r4
 177 00e2 FFF7FEFF 		bl	UART_PutString
 178              	.LVL12:
 179 00e6 10BD     		pop	{r4, pc}
 180              	.L10:
  61:main.c        **** 
  62:main.c        ****        }
  63:main.c        ****      else if(dato>=65536){
 181              		.loc 1 63 0
 182 00e8 B2F5803F 		cmp	r2, #65536
 183 00ec 02DB     		blt	.L1
  64:main.c        ****      UART_PutString("65536c4 \n \r");}
 184              		.loc 1 64 0
 185 00ee 0E48     		ldr	r0, .L12+48
 186 00f0 FFF7FEFF 		bl	UART_PutString
 187              	.LVL13:
 188              	.L1:
 189 00f4 10BD     		pop	{r4, pc}
 190              	.L13:
 191 00f6 00BF     		.align	2
 192              	.L12:
 193 00f8 00000000 		.word	.LANCHOR0
 194 00fc 00000000 		.word	publicar
 195 0100 00000000 		.word	numero
 196 0104 00000000 		.word	.LC0
 197 0108 00000000 		.word	dato
 198 010c 0C000000 		.word	.LC1
 199 0110 18000000 		.word	.LC2
 200 0114 24000000 		.word	.LC3
 201 0118 30000000 		.word	.LC4
 202 011c 3C000000 		.word	.LC5
 203 0120 48000000 		.word	.LC6
 204 0124 54000000 		.word	.LC7
 205 0128 60000000 		.word	.LC8
 206              		.cfi_endproc
 207              	.LFE64:
 208              		.size	Enviar, .-Enviar
 209              		.section	.text.Recibir,"ax",%progbits
 210              		.align	2
 211              		.global	Recibir
 212              		.thumb
 213              		.thumb_func
 214              		.type	Recibir, %function
 215              	Recibir:
 216              	.LFB65:
  65:main.c        **** }
  66:main.c        **** }
  67:main.c        **** 
  68:main.c        **** 
  69:main.c        **** CY_ISR(Recibir){
ARM GAS  C:\Users\t\AppData\Local\Temp\ccaeUnYd.s 			page 6


 217              		.loc 1 69 0
 218              		.cfi_startproc
 219              		@ args = 0, pretend = 0, frame = 0
 220              		@ frame_needed = 0, uses_anonymous_args = 0
 221 0000 08B5     		push	{r3, lr}
 222              		.cfi_def_cfa_offset 8
 223              		.cfi_offset 3, -8
 224              		.cfi_offset 14, -4
  70:main.c        **** 
  71:main.c        ****     recibir=UART_GetChar();
 225              		.loc 1 71 0
 226 0002 FFF7FEFF 		bl	UART_GetChar
 227              	.LVL14:
 228 0006 0D4B     		ldr	r3, .L21
 229 0008 1870     		strb	r0, [r3]
  72:main.c        ****  if(recibir==0){
 230              		.loc 1 72 0
 231 000a 10B9     		cbnz	r0, .L15
  73:main.c        ****     canal=1;
 232              		.loc 1 73 0
 233 000c 0122     		movs	r2, #1
 234 000e 0C4B     		ldr	r3, .L21+4
 235 0010 1A60     		str	r2, [r3]
 236              	.L15:
  74:main.c        ****  }
  75:main.c        **** if(recibir==1){
 237              		.loc 1 75 0
 238 0012 0128     		cmp	r0, #1
 239 0014 02D1     		bne	.L16
  76:main.c        ****     canal=2;
 240              		.loc 1 76 0
 241 0016 0222     		movs	r2, #2
 242 0018 094B     		ldr	r3, .L21+4
 243 001a 1A60     		str	r2, [r3]
 244              	.L16:
  77:main.c        ****  }
  78:main.c        **** if(recibir==2){
 245              		.loc 1 78 0
 246 001c 0228     		cmp	r0, #2
 247 001e 02D1     		bne	.L17
  79:main.c        ****     canal=2;
 248              		.loc 1 79 0
 249 0020 0222     		movs	r2, #2
 250 0022 074B     		ldr	r3, .L21+4
 251 0024 1A60     		str	r2, [r3]
 252              	.L17:
  80:main.c        ****  }
  81:main.c        **** if(recibir==3){
 253              		.loc 1 81 0
 254 0026 0328     		cmp	r0, #3
 255 0028 02D1     		bne	.L18
  82:main.c        ****     canal=3;
 256              		.loc 1 82 0
 257 002a 0322     		movs	r2, #3
 258 002c 044B     		ldr	r3, .L21+4
 259 002e 1A60     		str	r2, [r3]
 260              	.L18:
ARM GAS  C:\Users\t\AppData\Local\Temp\ccaeUnYd.s 			page 7


  83:main.c        ****  }
  84:main.c        **** if(recibir==4){
 261              		.loc 1 84 0
 262 0030 0428     		cmp	r0, #4
 263 0032 02D1     		bne	.L14
  85:main.c        ****     canal=4;
 264              		.loc 1 85 0
 265 0034 0422     		movs	r2, #4
 266 0036 024B     		ldr	r3, .L21+4
 267 0038 1A60     		str	r2, [r3]
 268              	.L14:
 269 003a 08BD     		pop	{r3, pc}
 270              	.L22:
 271              		.align	2
 272              	.L21:
 273 003c 00000000 		.word	recibir
 274 0040 00000000 		.word	.LANCHOR0
 275              		.cfi_endproc
 276              	.LFE65:
 277              		.size	Recibir, .-Recibir
 278              		.section	.text.main,"ax",%progbits
 279              		.align	2
 280              		.global	main
 281              		.thumb
 282              		.thumb_func
 283              		.type	main, %function
 284              	main:
 285              	.LFB66:
  86:main.c        ****  }
  87:main.c        **** 
  88:main.c        **** 
  89:main.c        **** }
  90:main.c        **** 
  91:main.c        **** 
  92:main.c        **** int main(void)
  93:main.c        **** {
 286              		.loc 1 93 0
 287              		.cfi_startproc
 288              		@ Volatile: function does not return.
 289              		@ args = 0, pretend = 0, frame = 0
 290              		@ frame_needed = 0, uses_anonymous_args = 0
 291 0000 08B5     		push	{r3, lr}
 292              		.cfi_def_cfa_offset 8
 293              		.cfi_offset 3, -8
 294              		.cfi_offset 14, -4
  94:main.c        ****     CyGlobalIntEnable; 
 295              		.loc 1 94 0
 296              		.syntax unified
 297              	@ 94 "main.c" 1
 298 0002 62B6     		CPSIE   i
 299              	@ 0 "" 2
  95:main.c        ****     PWM_Start();
 300              		.loc 1 95 0
 301              		.thumb
 302              		.syntax unified
 303 0004 FFF7FEFF 		bl	PWM_Start
 304              	.LVL15:
ARM GAS  C:\Users\t\AppData\Local\Temp\ccaeUnYd.s 			page 8


  96:main.c        ****     MUX_Start();
 305              		.loc 1 96 0
 306 0008 FFF7FEFF 		bl	MUX_Start
 307              	.LVL16:
  97:main.c        ****     UART_Start();
 308              		.loc 1 97 0
 309 000c FFF7FEFF 		bl	UART_Start
 310              	.LVL17:
  98:main.c        ****     ADC_Start();
 311              		.loc 1 98 0
 312 0010 FFF7FEFF 		bl	ADC_Start
 313              	.LVL18:
  99:main.c        ****     
 100:main.c        ****     isrRX_StartEx(Recibir);
 314              		.loc 1 100 0
 315 0014 2E48     		ldr	r0, .L26
 316 0016 FFF7FEFF 		bl	isrRX_StartEx
 317              	.LVL19:
 101:main.c        ****     isrEnvio_StartEx(Enviar);
 318              		.loc 1 101 0
 319 001a 2E48     		ldr	r0, .L26+4
 320 001c FFF7FEFF 		bl	isrEnvio_StartEx
 321              	.LVL20:
 322              	.L24:
 102:main.c        ****     for(;;)
 103:main.c        ****     {
 104:main.c        ****         MUX_FastSelect(0);
 323              		.loc 1 104 0 discriminator 1
 324 0020 0020     		movs	r0, #0
 325 0022 FFF7FEFF 		bl	MUX_FastSelect
 326              	.LVL21:
 105:main.c        ****         ADC_StartConvert();
 327              		.loc 1 105 0 discriminator 1
 328 0026 FFF7FEFF 		bl	ADC_StartConvert
 329              	.LVL22:
 106:main.c        ****         ADC_IsEndConversion(ADC_WAIT_FOR_RESULT);
 330              		.loc 1 106 0 discriminator 1
 331 002a 0020     		movs	r0, #0
 332 002c FFF7FEFF 		bl	ADC_IsEndConversion
 333              	.LVL23:
 107:main.c        ****         numero[0]=ADC_GetResult32();
 334              		.loc 1 107 0 discriminator 1
 335 0030 FFF7FEFF 		bl	ADC_GetResult32
 336              	.LVL24:
 337 0034 284C     		ldr	r4, .L26+8
 338 0036 2060     		str	r0, [r4]
 108:main.c        ****         ADC_StopConvert();
 339              		.loc 1 108 0 discriminator 1
 340 0038 FFF7FEFF 		bl	ADC_StopConvert
 341              	.LVL25:
 109:main.c        ****         
 110:main.c        ****         MUX_FastSelect(1);
 342              		.loc 1 110 0 discriminator 1
 343 003c 0120     		movs	r0, #1
 344 003e FFF7FEFF 		bl	MUX_FastSelect
 345              	.LVL26:
 111:main.c        ****         ADC_StartConvert();
ARM GAS  C:\Users\t\AppData\Local\Temp\ccaeUnYd.s 			page 9


 346              		.loc 1 111 0 discriminator 1
 347 0042 FFF7FEFF 		bl	ADC_StartConvert
 348              	.LVL27:
 112:main.c        ****         ADC_IsEndConversion(ADC_WAIT_FOR_RESULT);
 349              		.loc 1 112 0 discriminator 1
 350 0046 0020     		movs	r0, #0
 351 0048 FFF7FEFF 		bl	ADC_IsEndConversion
 352              	.LVL28:
 113:main.c        ****         numero[1]=ADC_GetResult32();
 353              		.loc 1 113 0 discriminator 1
 354 004c FFF7FEFF 		bl	ADC_GetResult32
 355              	.LVL29:
 356 0050 6060     		str	r0, [r4, #4]
 114:main.c        ****         ADC_StopConvert();
 357              		.loc 1 114 0 discriminator 1
 358 0052 FFF7FEFF 		bl	ADC_StopConvert
 359              	.LVL30:
 115:main.c        ****         
 116:main.c        ****         MUX_FastSelect(2);
 360              		.loc 1 116 0 discriminator 1
 361 0056 0220     		movs	r0, #2
 362 0058 FFF7FEFF 		bl	MUX_FastSelect
 363              	.LVL31:
 117:main.c        ****         ADC_StartConvert();
 364              		.loc 1 117 0 discriminator 1
 365 005c FFF7FEFF 		bl	ADC_StartConvert
 366              	.LVL32:
 118:main.c        ****         ADC_IsEndConversion(ADC_WAIT_FOR_RESULT);
 367              		.loc 1 118 0 discriminator 1
 368 0060 0020     		movs	r0, #0
 369 0062 FFF7FEFF 		bl	ADC_IsEndConversion
 370              	.LVL33:
 119:main.c        ****         numero[2]=ADC_GetResult32();
 371              		.loc 1 119 0 discriminator 1
 372 0066 FFF7FEFF 		bl	ADC_GetResult32
 373              	.LVL34:
 374 006a A060     		str	r0, [r4, #8]
 120:main.c        ****         ADC_StopConvert();
 375              		.loc 1 120 0 discriminator 1
 376 006c FFF7FEFF 		bl	ADC_StopConvert
 377              	.LVL35:
 121:main.c        ****         
 122:main.c        ****         MUX_FastSelect(3);
 378              		.loc 1 122 0 discriminator 1
 379 0070 0320     		movs	r0, #3
 380 0072 FFF7FEFF 		bl	MUX_FastSelect
 381              	.LVL36:
 123:main.c        ****         ADC_StartConvert();
 382              		.loc 1 123 0 discriminator 1
 383 0076 FFF7FEFF 		bl	ADC_StartConvert
 384              	.LVL37:
 124:main.c        ****         ADC_IsEndConversion(ADC_WAIT_FOR_RESULT);
 385              		.loc 1 124 0 discriminator 1
 386 007a 0020     		movs	r0, #0
 387 007c FFF7FEFF 		bl	ADC_IsEndConversion
 388              	.LVL38:
 125:main.c        ****         numero[3]=ADC_GetResult32();
ARM GAS  C:\Users\t\AppData\Local\Temp\ccaeUnYd.s 			page 10


 389              		.loc 1 125 0 discriminator 1
 390 0080 FFF7FEFF 		bl	ADC_GetResult32
 391              	.LVL39:
 392 0084 E060     		str	r0, [r4, #12]
 126:main.c        ****         ADC_StopConvert();
 393              		.loc 1 126 0 discriminator 1
 394 0086 FFF7FEFF 		bl	ADC_StopConvert
 395              	.LVL40:
 127:main.c        ****         
 128:main.c        ****         MUX_FastSelect(4);
 396              		.loc 1 128 0 discriminator 1
 397 008a 0420     		movs	r0, #4
 398 008c FFF7FEFF 		bl	MUX_FastSelect
 399              	.LVL41:
 129:main.c        ****         ADC_StartConvert();
 400              		.loc 1 129 0 discriminator 1
 401 0090 FFF7FEFF 		bl	ADC_StartConvert
 402              	.LVL42:
 130:main.c        ****         ADC_IsEndConversion(ADC_WAIT_FOR_RESULT);
 403              		.loc 1 130 0 discriminator 1
 404 0094 0020     		movs	r0, #0
 405 0096 FFF7FEFF 		bl	ADC_IsEndConversion
 406              	.LVL43:
 131:main.c        ****         numero[4]=ADC_GetResult32();
 407              		.loc 1 131 0 discriminator 1
 408 009a FFF7FEFF 		bl	ADC_GetResult32
 409              	.LVL44:
 410 009e 2061     		str	r0, [r4, #16]
 132:main.c        ****         ADC_StopConvert();
 411              		.loc 1 132 0 discriminator 1
 412 00a0 FFF7FEFF 		bl	ADC_StopConvert
 413              	.LVL45:
 133:main.c        ****         
 134:main.c        ****         voltiosADC[0]=ADC_CountsTo_Volts(numero[0]);
 414              		.loc 1 134 0 discriminator 1
 415 00a4 2068     		ldr	r0, [r4]
 416 00a6 FFF7FEFF 		bl	ADC_CountsTo_Volts
 417              	.LVL46:
 418 00aa 0C4D     		ldr	r5, .L26+12
 419 00ac 2860     		str	r0, [r5]	@ float
 135:main.c        ****         voltiosADC[1]=ADC_CountsTo_Volts(numero[1]);
 420              		.loc 1 135 0 discriminator 1
 421 00ae 6068     		ldr	r0, [r4, #4]
 422 00b0 FFF7FEFF 		bl	ADC_CountsTo_Volts
 423              	.LVL47:
 424 00b4 6860     		str	r0, [r5, #4]	@ float
 136:main.c        ****         voltiosADC[2]=ADC_CountsTo_Volts(numero[2]);
 425              		.loc 1 136 0 discriminator 1
 426 00b6 A068     		ldr	r0, [r4, #8]
 427 00b8 FFF7FEFF 		bl	ADC_CountsTo_Volts
 428              	.LVL48:
 429 00bc A860     		str	r0, [r5, #8]	@ float
 137:main.c        ****         voltiosADC[3]=ADC_CountsTo_Volts(numero[3]);
 430              		.loc 1 137 0 discriminator 1
 431 00be E068     		ldr	r0, [r4, #12]
 432 00c0 FFF7FEFF 		bl	ADC_CountsTo_Volts
 433              	.LVL49:
ARM GAS  C:\Users\t\AppData\Local\Temp\ccaeUnYd.s 			page 11


 434 00c4 E860     		str	r0, [r5, #12]	@ float
 138:main.c        ****         voltiosADC[4]=ADC_CountsTo_Volts(numero[4]);
 435              		.loc 1 138 0 discriminator 1
 436 00c6 2069     		ldr	r0, [r4, #16]
 437 00c8 FFF7FEFF 		bl	ADC_CountsTo_Volts
 438              	.LVL50:
 439 00cc 2861     		str	r0, [r5, #16]	@ float
 440 00ce A7E7     		b	.L24
 441              	.L27:
 442              		.align	2
 443              	.L26:
 444 00d0 00000000 		.word	Recibir
 445 00d4 00000000 		.word	Enviar
 446 00d8 00000000 		.word	numero
 447 00dc 00000000 		.word	voltiosADC
 448              		.cfi_endproc
 449              	.LFE66:
 450              		.size	main, .-main
 451              		.global	canal
 452              		.comm	recibir,1,1
 453              		.comm	publicar,12,4
 454              		.comm	voltiosADC,20,4
 455              		.comm	dato,4,4
 456              		.comm	numero,20,4
 457              		.section	.rodata.str1.4,"aMS",%progbits,1
 458              		.align	2
 459              	.LC0:
 460 0000 25336463 		.ascii	"%3dc0 \012 \015\000"
 460      30200A20 
 460      0D00
 461 000a 0000     		.space	2
 462              	.LC1:
 463 000c 25336463 		.ascii	"%3dc1 \012 \015\000"
 463      31200A20 
 463      0D00
 464 0016 0000     		.space	2
 465              	.LC2:
 466 0018 36353533 		.ascii	"65536c1 \012 \015\000"
 466      36633120 
 466      0A200D00 
 467              	.LC3:
 468 0024 25336463 		.ascii	"%3dc2 \012 \015\000"
 468      32200A20 
 468      0D00
 469 002e 0000     		.space	2
 470              	.LC4:
 471 0030 36353533 		.ascii	"65536c2 \012 \015\000"
 471      36633220 
 471      0A200D00 
 472              	.LC5:
 473 003c 25336463 		.ascii	"%3dc3 \012 \015\000"
 473      33200A20 
 473      0D00
 474 0046 0000     		.space	2
 475              	.LC6:
 476 0048 36353533 		.ascii	"65536c3 \012 \015\000"
 476      36633320 
ARM GAS  C:\Users\t\AppData\Local\Temp\ccaeUnYd.s 			page 12


 476      0A200D00 
 477              	.LC7:
 478 0054 25336463 		.ascii	"%3dc4 \012 \015\000"
 478      34200A20 
 478      0D00
 479 005e 0000     		.space	2
 480              	.LC8:
 481 0060 36353533 		.ascii	"65536c4 \012 \015\000"
 481      36633420 
 481      0A200D00 
 482              		.bss
 483              		.align	2
 484              		.set	.LANCHOR0,. + 0
 485              		.type	canal, %object
 486              		.size	canal, 4
 487              	canal:
 488 0000 00000000 		.space	4
 489              		.text
 490              	.Letext0:
 491              		.file 2 "c:\\program files (x86)\\cypress\\psoc creator\\4.2\\psoc creator\\import\\gnu\\arm\\5.4.
 492              		.file 3 "c:\\program files (x86)\\cypress\\psoc creator\\4.2\\psoc creator\\import\\gnu\\arm\\5.4.
 493              		.file 4 "Generated_Source\\PSoC5/cytypes.h"
 494              		.file 5 "Generated_Source\\PSoC5/core_cm3.h"
 495              		.file 6 "c:\\program files (x86)\\cypress\\psoc creator\\4.2\\psoc creator\\import\\gnu\\arm\\5.4.
 496              		.file 7 "Generated_Source\\PSoC5/UART.h"
 497              		.file 8 "Generated_Source\\PSoC5/PWM.h"
 498              		.file 9 "Generated_Source\\PSoC5/MUX.h"
 499              		.file 10 "Generated_Source\\PSoC5/ADC.h"
 500              		.file 11 "Generated_Source\\PSoC5/isrRX.h"
 501              		.file 12 "Generated_Source\\PSoC5/isrEnvio.h"